ARM Linker, 5.01 [Build 94] 

==============================================================================

Image Symbol Table

    Local Symbols

    Symbol Name                              Value     Ov Type        Size  Object(Section)

    [Anonymous Symbol]                       0x00000000   ARM Code       0  sbl1.o ABSOLUTE
    ../clib/angel/rt.s                       0x00000000   Number         0  aeabi_ldiv0_sigfpe.o ABSOLUTE
    ../clib/angel/rt.s                       0x00000000   Number         0  aeabi_ldiv0.o ABSOLUTE
    ../clib/angel/rt.s                       0x00000000   Number         0  rt_div0.o ABSOLUTE
    ../clib/angel/sys.s                      0x00000000   Number         0  use_no_semi.o ABSOLUTE
    ../clib/angel/sys.s                      0x00000000   Number         0  indicate_semi.o ABSOLUTE
    ../clib/angel/sysapp.c                   0x00000000   Number         0  sys_exit.o ABSOLUTE
    ../clib/angel/sysapp.c                   0x00000000   Number         0  sys_wrch.o ABSOLUTE
    ../clib/division.s                       0x00000000   Number         0  rtudiv10.o ABSOLUTE
    ../clib/longlong.s                       0x00000000   Number         0  lludiv5.o ABSOLUTE
    ../clib/longlong.s                       0x00000000   Number         0  llsdiv.o ABSOLUTE
    ../clib/longlong.s                       0x00000000   Number         0  llshl.o ABSOLUTE
    ../clib/memcpset.s                       0x00000000   Number         0  rt_memmove_w.o ABSOLUTE
    ../clib/memcpset.s                       0x00000000   Number         0  memset.o ABSOLUTE
    ../clib/memcpset.s                       0x00000000   Number         0  aeabi_memset.o ABSOLUTE
    ../clib/memcpset.s                       0x00000000   Number         0  rt_memcpy_w.o ABSOLUTE
    ../clib/memcpset.s                       0x00000000   Number         0  rt_memclr.o ABSOLUTE
    ../clib/memcpset.s                       0x00000000   Number         0  rt_memmove.o ABSOLUTE
    ../clib/memcpset.s                       0x00000000   Number         0  rt_memclr_w.o ABSOLUTE
    ../clib/memcpset.s                       0x00000000   Number         0  rt_memcpy.o ABSOLUTE
    ../clib/memcpset.s                       0x00000000   Number         0  strcmp.o ABSOLUTE
    ../clib/memcpset.s                       0x00000000   Number         0  memcpy.o ABSOLUTE
    ../clib/misc.s                           0x00000000   Number         0  printf_stubs.o ABSOLUTE
    ../clib/printf.c                         0x00000000   Number         0  _printf_hex_ll_ptr.o ABSOLUTE
    ../clib/printf.c                         0x00000000   Number         0  _printf_hex_int_ptr.o ABSOLUTE
    ../clib/printf.c                         0x00000000   Number         0  _printf_hex_ptr.o ABSOLUTE
    ../clib/printf.c                         0x00000000   Number         0  _printf_hex_int_ll.o ABSOLUTE
    ../clib/printf.c                         0x00000000   Number         0  _printf_hex_int_ll_ptr.o ABSOLUTE
    ../clib/printf.c                         0x00000000   Number         0  _printf_hex_int.o ABSOLUTE
    ../clib/printf.c                         0x00000000   Number         0  _printf_hex_ll.o ABSOLUTE
    ../clib/printf.c                         0x00000000   Number         0  __printf_nopercent.o ABSOLUTE
    ../clib/printf.c                         0x00000000   Number         0  __printf_flags.o ABSOLUTE
    ../clib/printf.c                         0x00000000   Number         0  _printf_dec.o ABSOLUTE
    ../clib/printf.c                         0x00000000   Number         0  _printf_str.o ABSOLUTE
    ../clib/printf.c                         0x00000000   Number         0  __printf_ss.o ABSOLUTE
    ../clib/printf.c                         0x00000000   Number         0  __printf_flags_ss.o ABSOLUTE
    ../clib/printf.c                         0x00000000   Number         0  __printf_wp.o ABSOLUTE
    ../clib/printf.c                         0x00000000   Number         0  _printf_pad.o ABSOLUTE
    ../clib/printf.c                         0x00000000   Number         0  _printf_intcommon.o ABSOLUTE
    ../clib/printf.c                         0x00000000   Number         0  __printf.o ABSOLUTE
    ../clib/printf.c                         0x00000000   Number         0  _printf_char_common.o ABSOLUTE
    ../clib/printf.c                         0x00000000   Number         0  noretval__2snprintf.o ABSOLUTE
    ../clib/printf.c                         0x00000000   Number         0  __printf_flags_wp.o ABSOLUTE
    ../clib/printf.c                         0x00000000   Number         0  _sputc.o ABSOLUTE
    ../clib/printf.c                         0x00000000   Number         0  __printf_flags_ss_wp.o ABSOLUTE
    ../clib/printf.c                         0x00000000   Number         0  _snputc.o ABSOLUTE
    ../clib/printf.c                         0x00000000   Number         0  __2snprintf.o ABSOLUTE
    ../clib/printf.c                         0x00000000   Number         0  __printf_ss_wp.o ABSOLUTE
    ../clib/printf.c                         0x00000000   Number         0  _printf_char.o ABSOLUTE
    ../clib/printf_percent.s                 0x00000000   Number         0  _printf_percent.o ABSOLUTE
    ../clib/printf_percent.s                 0x00000000   Number         0  _printf_x.o ABSOLUTE
    ../clib/printf_percent.s                 0x00000000   Number         0  _printf_u.o ABSOLUTE
    ../clib/printf_percent.s                 0x00000000   Number         0  _printf_d.o ABSOLUTE
    ../clib/printf_percent.s                 0x00000000   Number         0  _printf_percent_end.o ABSOLUTE
    ../clib/printf_percent.s                 0x00000000   Number         0  _printf_s.o ABSOLUTE
    ../clib/signal.c                         0x00000000   Number         0  defsig_fpe_inner.o ABSOLUTE
    ../clib/signal.c                         0x00000000   Number         0  defsig_exit.o ABSOLUTE
    ../clib/signal.c                         0x00000000   Number         0  defsig_abrt_inner.o ABSOLUTE
    ../clib/signal.c                         0x00000000   Number         0  defsig_general.o ABSOLUTE
    ../clib/signal.c                         0x00000000   Number         0  defsig_abrt_formal.o ABSOLUTE
    ../clib/signal.c                         0x00000000   Number         0  defsig_fpe_outer.o ABSOLUTE
    ../clib/signal.c                         0x00000000   Number         0  defsig_abrt_outer.o ABSOLUTE
    ../clib/signal.c                         0x00000000   Number         0  defsig_fpe_formal.o ABSOLUTE
    ../clib/stdlib.c                         0x00000000   Number         0  abort.o ABSOLUTE
    ../clib/string.c                         0x00000000   Number         0  strlen.o ABSOLUTE
    ../clib/string.c                         0x00000000   Number         0  strncmp.o ABSOLUTE
    ../clib/string.c                         0x00000000   Number         0  memcmp.o ABSOLUTE
    ../clib/string.c                         0x00000000   Number         0  strchr.o ABSOLUTE
    ../clib/unhosted.s                       0x00000000   Number         0  uwrite4.o ABSOLUTE
    ../clib/unhosted.s                       0x00000000   Number         0  uread4.o ABSOLUTE
    /local/mnt/workspace/CRMBuilds/BOOT.BF.3.1.2.c3-00012-M8909WAAAANAZB-1_20161208_043404/b/boot_images/build/build/sbl1/Cortex-A7/WAATANAZ/oem_version.c 0x00000000   Number         0  oem_version.o ABSOLUTE
    /local/mnt/workspace/CRMBuilds/BOOT.BF.3.1.2.c3-00012-M8909WAAAANAZB-1_20161208_043404/b/boot_images/build/build/sbl1/Cortex-A7/WAATANAZ/qc_version.c 0x00000000   Number         0  qc_version.o ABSOLUTE
    /local/mnt/workspace/CRMBuilds/BOOT.BF.3.1.2.c3-00012-M8909WAAAANAZB-1_20161208_043404/b/boot_images/core/apt/build/sbl1/Cortex-A7/WAATANAZ/boot_apt_test_asm.o.i 0x00000000   Number         0  boot_apt_test_asm.o ABSOLUTE
    /local/mnt/workspace/CRMBuilds/BOOT.BF.3.1.2.c3-00012-M8909WAAAANAZB-1_20161208_043404/b/boot_images/core/apt/src/boot_apt_test.c 0x00000000   Number         0  boot_apt_test.o ABSOLUTE
    /local/mnt/workspace/CRMBuilds/BOOT.BF.3.1.2.c3-00012-M8909WAAAANAZB-1_20161208_043404/b/boot_images/core/boot/ddr/common/ddr_drivers.c 0x00000000   Number         0  ddr_drivers.o ABSOLUTE
    /local/mnt/workspace/CRMBuilds/BOOT.BF.3.1.2.c3-00012-M8909WAAAANAZB-1_20161208_043404/b/boot_images/core/boot/ddr/common/ddr_sync.c 0x00000000   Number         0  ddr_sync.o ABSOLUTE
    /local/mnt/workspace/CRMBuilds/BOOT.BF.3.1.2.c3-00012-M8909WAAAANAZB-1_20161208_043404/b/boot_images/core/boot/ddr/common/ddr_test.c 0x00000000   Number         0  ddr_test.o ABSOLUTE
    /local/mnt/workspace/CRMBuilds/BOOT.BF.3.1.2.c3-00012-M8909WAAAANAZB-1_20161208_043404/b/boot_images/core/boot/ddr/common/params/v1/ddr_params.c 0x00000000   Number         0  ddr_params.o ABSOLUTE
    /local/mnt/workspace/CRMBuilds/BOOT.BF.3.1.2.c3-00012-M8909WAAAANAZB-1_20161208_043404/b/boot_images/core/boot/ddr/hw/controller/BIMC_DPE_v1.c 0x00000000   Number         0  BIMC_DPE_v1.o ABSOLUTE
    /local/mnt/workspace/CRMBuilds/BOOT.BF.3.1.2.c3-00012-M8909WAAAANAZB-1_20161208_043404/b/boot_images/core/boot/ddr/hw/controller/BIMC_SCMO_v1.c 0x00000000   Number         0  BIMC_SCMO_v1.o ABSOLUTE
    /local/mnt/workspace/CRMBuilds/BOOT.BF.3.1.2.c3-00012-M8909WAAAANAZB-1_20161208_043404/b/boot_images/core/boot/ddr/hw/controller/BIMC_SHKE_v1.c 0x00000000   Number         0  BIMC_SHKE_v1.o ABSOLUTE
    /local/mnt/workspace/CRMBuilds/BOOT.BF.3.1.2.c3-00012-M8909WAAAANAZB-1_20161208_043404/b/boot_images/core/boot/ddr/hw/controller/BIMC_v1.c 0x00000000   Number         0  BIMC_v1.o ABSOLUTE
    /local/mnt/workspace/CRMBuilds/BOOT.BF.3.1.2.c3-00012-M8909WAAAANAZB-1_20161208_043404/b/boot_images/core/boot/ddr/hw/msm8909w/ddr_config.c 0x00000000   Number         0  ddr_config.o ABSOLUTE
    /local/mnt/workspace/CRMBuilds/BOOT.BF.3.1.2.c3-00012-M8909WAAAANAZB-1_20161208_043404/b/boot_images/core/boot/ddr/hw/msm8909w/ddr_target.c 0x00000000   Number         0  ddr_target.o ABSOLUTE
    /local/mnt/workspace/CRMBuilds/BOOT.BF.3.1.2.c3-00012-M8909WAAAANAZB-1_20161208_043404/b/boot_images/core/boot/ddr/hw/phy/AHB2PHY.c 0x00000000   Number         0  AHB2PHY.o ABSOLUTE
    /local/mnt/workspace/CRMBuilds/BOOT.BF.3.1.2.c3-00012-M8909WAAAANAZB-1_20161208_043404/b/boot_images/core/boot/ddr/hw/phy/v1/DDR_PHY.c 0x00000000   Number         0  DDR_PHY.o ABSOLUTE
    /local/mnt/workspace/CRMBuilds/BOOT.BF.3.1.2.c3-00012-M8909WAAAANAZB-1_20161208_043404/b/boot_images/core/boot/secboot3/hw/build/sbl1/Cortex-A7/WAATANAZ/sbl1/sbl1.o.i 0x00000000   Number         0  sbl1.o ABSOLUTE
    /local/mnt/workspace/CRMBuilds/BOOT.BF.3.1.2.c3-00012-M8909WAAAANAZB-1_20161208_043404/b/boot_images/core/boot/secboot3/hw/build/sbl1/Cortex-A7/WAATANAZ/sys_debug.o.i 0x00000000   Number         0  sys_debug.o ABSOLUTE
    /local/mnt/workspace/CRMBuilds/BOOT.BF.3.1.2.c3-00012-M8909WAAAANAZB-1_20161208_043404/b/boot_images/core/boot/secboot3/hw/msm8909/boot_cdt_array.c 0x00000000   Number         0  boot_cdt_array.o ABSOLUTE
    /local/mnt/workspace/CRMBuilds/BOOT.BF.3.1.2.c3-00012-M8909WAAAANAZB-1_20161208_043404/b/boot_images/core/boot/secboot3/hw/msm8909/boot_dload_debug_target.c 0x00000000   Number         0  boot_dload_debug_target.o ABSOLUTE
    /local/mnt/workspace/CRMBuilds/BOOT.BF.3.1.2.c3-00012-M8909WAAAANAZB-1_20161208_043404/b/boot_images/core/boot/secboot3/hw/msm8909/boot_rollback_img_set.c 0x00000000   Number         0  boot_rollback_img_set.o ABSOLUTE
    /local/mnt/workspace/CRMBuilds/BOOT.BF.3.1.2.c3-00012-M8909WAAAANAZB-1_20161208_043404/b/boot_images/core/boot/secboot3/hw/msm8909/sbl1/sbl1_config.c 0x00000000   Number         0  sbl1_config.o ABSOLUTE
    /local/mnt/workspace/CRMBuilds/BOOT.BF.3.1.2.c3-00012-M8909WAAAANAZB-1_20161208_043404/b/boot_images/core/boot/secboot3/hw/msm8909/sbl1/sbl1_hw.c 0x00000000   Number         0  sbl1_hw.o ABSOLUTE
    /local/mnt/workspace/CRMBuilds/BOOT.BF.3.1.2.c3-00012-M8909WAAAANAZB-1_20161208_043404/b/boot_images/core/boot/secboot3/hw/msm8909/sbl1/sbl1_mc.c 0x00000000   Number         0  sbl1_mc.o ABSOLUTE
    /local/mnt/workspace/CRMBuilds/BOOT.BF.3.1.2.c3-00012-M8909WAAAANAZB-1_20161208_043404/b/boot_images/core/boot/secboot3/hw/msm8909/sbl1/sbl1_sahara.c 0x00000000   Number         0  sbl1_sahara.o ABSOLUTE
    /local/mnt/workspace/CRMBuilds/BOOT.BF.3.1.2.c3-00012-M8909WAAAANAZB-1_20161208_043404/b/boot_images/core/boot/secboot3/hw/msm8909/sbl1/sbl1_target.c 0x00000000   Number         0  sbl1_target.o ABSOLUTE
    /local/mnt/workspace/CRMBuilds/BOOT.BF.3.1.2.c3-00012-M8909WAAAANAZB-1_20161208_043404/b/boot_images/core/boot/secboot3/hw/msm8909/sys_debug_mc.c 0x00000000   Number         0  sys_debug_mc.o ABSOLUTE
    /local/mnt/workspace/CRMBuilds/BOOT.BF.3.1.2.c3-00012-M8909WAAAANAZB-1_20161208_043404/b/boot_images/core/boot/secboot3/src/boot_a53.c 0x00000000   Number         0  boot_a53.o ABSOLUTE
    /local/mnt/workspace/CRMBuilds/BOOT.BF.3.1.2.c3-00012-M8909WAAAANAZB-1_20161208_043404/b/boot_images/core/boot/secboot3/src/boot_authenticator.c 0x00000000   Number         0  boot_authenticator.o ABSOLUTE
    /local/mnt/workspace/CRMBuilds/BOOT.BF.3.1.2.c3-00012-M8909WAAAANAZB-1_20161208_043404/b/boot_images/core/boot/secboot3/src/boot_clobber_prot.c 0x00000000   Number         0  boot_clobber_prot.o ABSOLUTE
    /local/mnt/workspace/CRMBuilds/BOOT.BF.3.1.2.c3-00012-M8909WAAAANAZB-1_20161208_043404/b/boot_images/core/boot/secboot3/src/boot_clobber_prot_local.c 0x00000000   Number         0  boot_clobber_prot_local.o ABSOLUTE
    /local/mnt/workspace/CRMBuilds/BOOT.BF.3.1.2.c3-00012-M8909WAAAANAZB-1_20161208_043404/b/boot_images/core/boot/secboot3/src/boot_config.c 0x00000000   Number         0  boot_config.o ABSOLUTE
    /local/mnt/workspace/CRMBuilds/BOOT.BF.3.1.2.c3-00012-M8909WAAAANAZB-1_20161208_043404/b/boot_images/core/boot/secboot3/src/boot_config_data.c 0x00000000   Number         0  boot_config_data.o ABSOLUTE
    /local/mnt/workspace/CRMBuilds/BOOT.BF.3.1.2.c3-00012-M8909WAAAANAZB-1_20161208_043404/b/boot_images/core/boot/secboot3/src/boot_config_eeprom.c 0x00000000   Number         0  boot_config_eeprom.o ABSOLUTE
    /local/mnt/workspace/CRMBuilds/BOOT.BF.3.1.2.c3-00012-M8909WAAAANAZB-1_20161208_043404/b/boot_images/core/boot/secboot3/src/boot_ddr_info.c 0x00000000   Number         0  boot_ddr_info.o ABSOLUTE
    /local/mnt/workspace/CRMBuilds/BOOT.BF.3.1.2.c3-00012-M8909WAAAANAZB-1_20161208_043404/b/boot_images/core/boot/secboot3/src/boot_dload.c 0x00000000   Number         0  boot_dload.o ABSOLUTE
    /local/mnt/workspace/CRMBuilds/BOOT.BF.3.1.2.c3-00012-M8909WAAAANAZB-1_20161208_043404/b/boot_images/core/boot/secboot3/src/boot_dload_debug.c 0x00000000   Number         0  boot_dload_debug.o ABSOLUTE
    /local/mnt/workspace/CRMBuilds/BOOT.BF.3.1.2.c3-00012-M8909WAAAANAZB-1_20161208_043404/b/boot_images/core/boot/secboot3/src/boot_elf_loader.c 0x00000000   Number         0  boot_elf_loader.o ABSOLUTE
    /local/mnt/workspace/CRMBuilds/BOOT.BF.3.1.2.c3-00012-M8909WAAAANAZB-1_20161208_043404/b/boot_images/core/boot/secboot3/src/boot_error_handler.c 0x00000000   Number         0  boot_error_handler.o ABSOLUTE
    /local/mnt/workspace/CRMBuilds/BOOT.BF.3.1.2.c3-00012-M8909WAAAANAZB-1_20161208_043404/b/boot_images/core/boot/secboot3/src/boot_extern_apt_interface.c 0x00000000   Number         0  boot_extern_apt_interface.o ABSOLUTE
    /local/mnt/workspace/CRMBuilds/BOOT.BF.3.1.2.c3-00012-M8909WAAAANAZB-1_20161208_043404/b/boot_images/core/boot/secboot3/src/boot_extern_bam_interface.c 0x00000000   Number         0  boot_extern_bam_interface.o ABSOLUTE
    /local/mnt/workspace/CRMBuilds/BOOT.BF.3.1.2.c3-00012-M8909WAAAANAZB-1_20161208_043404/b/boot_images/core/boot/secboot3/src/boot_extern_bus_interface.c 0x00000000   Number         0  boot_extern_bus_interface.o ABSOLUTE
    /local/mnt/workspace/CRMBuilds/BOOT.BF.3.1.2.c3-00012-M8909WAAAANAZB-1_20161208_043404/b/boot_images/core/boot/secboot3/src/boot_extern_busywait_interface.c 0x00000000   Number         0  boot_extern_busywait_interface.o ABSOLUTE
    /local/mnt/workspace/CRMBuilds/BOOT.BF.3.1.2.c3-00012-M8909WAAAANAZB-1_20161208_043404/b/boot_images/core/boot/secboot3/src/boot_extern_clk_interface.c 0x00000000   Number         0  boot_extern_clk_interface.o ABSOLUTE
    /local/mnt/workspace/CRMBuilds/BOOT.BF.3.1.2.c3-00012-M8909WAAAANAZB-1_20161208_043404/b/boot_images/core/boot/secboot3/src/boot_extern_crypto_interface.c 0x00000000   Number         0  boot_extern_crypto_interface.o ABSOLUTE
    /local/mnt/workspace/CRMBuilds/BOOT.BF.3.1.2.c3-00012-M8909WAAAANAZB-1_20161208_043404/b/boot_images/core/boot/secboot3/src/boot_extern_dal_interface.c 0x00000000   Number         0  boot_extern_dal_interface.o ABSOLUTE
    /local/mnt/workspace/CRMBuilds/BOOT.BF.3.1.2.c3-00012-M8909WAAAANAZB-1_20161208_043404/b/boot_images/core/boot/secboot3/src/boot_extern_ddr_interface.c 0x00000000   Number         0  boot_extern_ddr_interface.o ABSOLUTE
    /local/mnt/workspace/CRMBuilds/BOOT.BF.3.1.2.c3-00012-M8909WAAAANAZB-1_20161208_043404/b/boot_images/core/boot/secboot3/src/boot_extern_flash_interface.c 0x00000000   Number         0  boot_extern_flash_interface.o ABSOLUTE
    /local/mnt/workspace/CRMBuilds/BOOT.BF.3.1.2.c3-00012-M8909WAAAANAZB-1_20161208_043404/b/boot_images/core/boot/secboot3/src/boot_extern_hsusb_interface.c 0x00000000   Number         0  boot_extern_hsusb_interface.o ABSOLUTE
    /local/mnt/workspace/CRMBuilds/BOOT.BF.3.1.2.c3-00012-M8909WAAAANAZB-1_20161208_043404/b/boot_images/core/boot/secboot3/src/boot_extern_platforminfo_interface.c 0x00000000   Number         0  boot_extern_platforminfo_interface.o ABSOLUTE
    /local/mnt/workspace/CRMBuilds/BOOT.BF.3.1.2.c3-00012-M8909WAAAANAZB-1_20161208_043404/b/boot_images/core/boot/secboot3/src/boot_extern_pmic_interface.c 0x00000000   Number         0  boot_extern_pmic_interface.o ABSOLUTE
    /local/mnt/workspace/CRMBuilds/BOOT.BF.3.1.2.c3-00012-M8909WAAAANAZB-1_20161208_043404/b/boot_images/core/boot/secboot3/src/boot_extern_secboot_interface.c 0x00000000   Number         0  boot_extern_secboot_interface.o ABSOLUTE
    /local/mnt/workspace/CRMBuilds/BOOT.BF.3.1.2.c3-00012-M8909WAAAANAZB-1_20161208_043404/b/boot_images/core/boot/secboot3/src/boot_extern_seccfg_interface.c 0x00000000   Number         0  boot_extern_seccfg_interface.o ABSOLUTE
    /local/mnt/workspace/CRMBuilds/BOOT.BF.3.1.2.c3-00012-M8909WAAAANAZB-1_20161208_043404/b/boot_images/core/boot/secboot3/src/boot_extern_smem_interface.c 0x00000000   Number         0  boot_extern_smem_interface.o ABSOLUTE
    /local/mnt/workspace/CRMBuilds/BOOT.BF.3.1.2.c3-00012-M8909WAAAANAZB-1_20161208_043404/b/boot_images/core/boot/secboot3/src/boot_extern_tlmm_interface.c 0x00000000   Number         0  boot_extern_tlmm_interface.o ABSOLUTE
    /local/mnt/workspace/CRMBuilds/BOOT.BF.3.1.2.c3-00012-M8909WAAAANAZB-1_20161208_043404/b/boot_images/core/boot/secboot3/src/boot_extern_tsensor_interface.c 0x00000000   Number         0  boot_extern_tsensor_interface.o ABSOLUTE
    /local/mnt/workspace/CRMBuilds/BOOT.BF.3.1.2.c3-00012-M8909WAAAANAZB-1_20161208_043404/b/boot_images/core/boot/secboot3/src/boot_flash.c 0x00000000   Number         0  boot_flash.o ABSOLUTE
    /local/mnt/workspace/CRMBuilds/BOOT.BF.3.1.2.c3-00012-M8909WAAAANAZB-1_20161208_043404/b/boot_images/core/boot/secboot3/src/boot_flash_dev_dal.c 0x00000000   Number         0  boot_flash_dev_dal.o ABSOLUTE
    /local/mnt/workspace/CRMBuilds/BOOT.BF.3.1.2.c3-00012-M8909WAAAANAZB-1_20161208_043404/b/boot_images/core/boot/secboot3/src/boot_flash_dev_if.c 0x00000000   Number         0  boot_flash_dev_if.o ABSOLUTE
    /local/mnt/workspace/CRMBuilds/BOOT.BF.3.1.2.c3-00012-M8909WAAAANAZB-1_20161208_043404/b/boot_images/core/boot/secboot3/src/boot_flash_dev_nand.c 0x00000000   Number         0  boot_flash_dev_nand.o ABSOLUTE
    /local/mnt/workspace/CRMBuilds/BOOT.BF.3.1.2.c3-00012-M8909WAAAANAZB-1_20161208_043404/b/boot_images/core/boot/secboot3/src/boot_flash_dev_nand_if.c 0x00000000   Number         0  boot_flash_dev_nand_if.o ABSOLUTE
    /local/mnt/workspace/CRMBuilds/BOOT.BF.3.1.2.c3-00012-M8909WAAAANAZB-1_20161208_043404/b/boot_images/core/boot/secboot3/src/boot_flash_partition.c 0x00000000   Number         0  boot_flash_partition.o ABSOLUTE
    /local/mnt/workspace/CRMBuilds/BOOT.BF.3.1.2.c3-00012-M8909WAAAANAZB-1_20161208_043404/b/boot_images/core/boot/secboot3/src/boot_flash_target.c 0x00000000   Number         0  boot_flash_target.o ABSOLUTE
    /local/mnt/workspace/CRMBuilds/BOOT.BF.3.1.2.c3-00012-M8909WAAAANAZB-1_20161208_043404/b/boot_images/core/boot/secboot3/src/boot_flash_trans_nand.c 0x00000000   Number         0  boot_flash_trans_nand.o ABSOLUTE
    /local/mnt/workspace/CRMBuilds/BOOT.BF.3.1.2.c3-00012-M8909WAAAANAZB-1_20161208_043404/b/boot_images/core/boot/secboot3/src/boot_gpt_partition_id.c 0x00000000   Number         0  boot_gpt_partition_id.o ABSOLUTE
    /local/mnt/workspace/CRMBuilds/BOOT.BF.3.1.2.c3-00012-M8909WAAAANAZB-1_20161208_043404/b/boot_images/core/boot/secboot3/src/boot_hash.c 0x00000000   Number         0  boot_hash.o ABSOLUTE
    /local/mnt/workspace/CRMBuilds/BOOT.BF.3.1.2.c3-00012-M8909WAAAANAZB-1_20161208_043404/b/boot_images/core/boot/secboot3/src/boot_hash_buffer.c 0x00000000   Number         0  boot_hash_buffer.o ABSOLUTE
    /local/mnt/workspace/CRMBuilds/BOOT.BF.3.1.2.c3-00012-M8909WAAAANAZB-1_20161208_043404/b/boot_images/core/boot/secboot3/src/boot_loader.c 0x00000000   Number         0  boot_loader.o ABSOLUTE
    /local/mnt/workspace/CRMBuilds/BOOT.BF.3.1.2.c3-00012-M8909WAAAANAZB-1_20161208_043404/b/boot_images/core/boot/secboot3/src/boot_logger.c 0x00000000   Number         0  boot_logger.o ABSOLUTE
    /local/mnt/workspace/CRMBuilds/BOOT.BF.3.1.2.c3-00012-M8909WAAAANAZB-1_20161208_043404/b/boot_images/core/boot/secboot3/src/boot_logger_ram.c 0x00000000   Number         0  boot_logger_ram.o ABSOLUTE
    /local/mnt/workspace/CRMBuilds/BOOT.BF.3.1.2.c3-00012-M8909WAAAANAZB-1_20161208_043404/b/boot_images/core/boot/secboot3/src/boot_logger_timer.c 0x00000000   Number         0  boot_logger_timer.o ABSOLUTE
    /local/mnt/workspace/CRMBuilds/BOOT.BF.3.1.2.c3-00012-M8909WAAAANAZB-1_20161208_043404/b/boot_images/core/boot/secboot3/src/boot_logger_uart.c 0x00000000   Number         0  boot_logger_uart.o ABSOLUTE
    /local/mnt/workspace/CRMBuilds/BOOT.BF.3.1.2.c3-00012-M8909WAAAANAZB-1_20161208_043404/b/boot_images/core/boot/secboot3/src/boot_mc.c 0x00000000   Number         0  boot_mc.o ABSOLUTE
    /local/mnt/workspace/CRMBuilds/BOOT.BF.3.1.2.c3-00012-M8909WAAAANAZB-1_20161208_043404/b/boot_images/core/boot/secboot3/src/boot_page_table.c 0x00000000   Number         0  boot_page_table.o ABSOLUTE
    /local/mnt/workspace/CRMBuilds/BOOT.BF.3.1.2.c3-00012-M8909WAAAANAZB-1_20161208_043404/b/boot_images/core/boot/secboot3/src/boot_pbl_v1.c 0x00000000   Number         0  boot_pbl_v1.o ABSOLUTE
    /local/mnt/workspace/CRMBuilds/BOOT.BF.3.1.2.c3-00012-M8909WAAAANAZB-1_20161208_043404/b/boot_images/core/boot/secboot3/src/boot_ram_init.c 0x00000000   Number         0  boot_ram_init.o ABSOLUTE
    /local/mnt/workspace/CRMBuilds/BOOT.BF.3.1.2.c3-00012-M8909WAAAANAZB-1_20161208_043404/b/boot_images/core/boot/secboot3/src/boot_ram_partition.c 0x00000000   Number         0  boot_ram_partition.o ABSOLUTE
    /local/mnt/workspace/CRMBuilds/BOOT.BF.3.1.2.c3-00012-M8909WAAAANAZB-1_20161208_043404/b/boot_images/core/boot/secboot3/src/boot_rollback_version.c 0x00000000   Number         0  boot_rollback_version.o ABSOLUTE
    /local/mnt/workspace/CRMBuilds/BOOT.BF.3.1.2.c3-00012-M8909WAAAANAZB-1_20161208_043404/b/boot_images/core/boot/secboot3/src/boot_sahara.c 0x00000000   Number         0  boot_sahara.o ABSOLUTE
    /local/mnt/workspace/CRMBuilds/BOOT.BF.3.1.2.c3-00012-M8909WAAAANAZB-1_20161208_043404/b/boot_images/core/boot/secboot3/src/boot_sbl_qsee_interface.c 0x00000000   Number         0  boot_sbl_qsee_interface.o ABSOLUTE
    /local/mnt/workspace/CRMBuilds/BOOT.BF.3.1.2.c3-00012-M8909WAAAANAZB-1_20161208_043404/b/boot_images/core/boot/secboot3/src/boot_secure_watchdog.c 0x00000000   Number         0  boot_secure_watchdog.o ABSOLUTE
    /local/mnt/workspace/CRMBuilds/BOOT.BF.3.1.2.c3-00012-M8909WAAAANAZB-1_20161208_043404/b/boot_images/core/boot/secboot3/src/boot_smem.c 0x00000000   Number         0  boot_smem.o ABSOLUTE
    /local/mnt/workspace/CRMBuilds/BOOT.BF.3.1.2.c3-00012-M8909WAAAANAZB-1_20161208_043404/b/boot_images/core/boot/secboot3/src/boot_statistics.c 0x00000000   Number         0  boot_statistics.o ABSOLUTE
    /local/mnt/workspace/CRMBuilds/BOOT.BF.3.1.2.c3-00012-M8909WAAAANAZB-1_20161208_043404/b/boot_images/core/boot/secboot3/src/boot_thermal_management.c 0x00000000   Number         0  boot_thermal_management.o ABSOLUTE
    /local/mnt/workspace/CRMBuilds/BOOT.BF.3.1.2.c3-00012-M8909WAAAANAZB-1_20161208_043404/b/boot_images/core/boot/secboot3/src/boot_uart.c 0x00000000   Number         0  boot_uart.o ABSOLUTE
    /local/mnt/workspace/CRMBuilds/BOOT.BF.3.1.2.c3-00012-M8909WAAAANAZB-1_20161208_043404/b/boot_images/core/boot/secboot3/src/boot_util.c 0x00000000   Number         0  boot_util.o ABSOLUTE
    /local/mnt/workspace/CRMBuilds/BOOT.BF.3.1.2.c3-00012-M8909WAAAANAZB-1_20161208_043404/b/boot_images/core/boot/secboot3/src/build/sbl1/Cortex-A7/WAATANAZ/boot_a53_asm.o.i 0x00000000   Number         0  boot_a53_asm.o ABSOLUTE
    /local/mnt/workspace/CRMBuilds/BOOT.BF.3.1.2.c3-00012-M8909WAAAANAZB-1_20161208_043404/b/boot_images/core/boot/secboot3/src/build/sbl1/Cortex-A7/WAATANAZ/boot_armv7_mmu.o.i 0x00000000   Number         0  boot_armv7_mmu.o ABSOLUTE
    /local/mnt/workspace/CRMBuilds/BOOT.BF.3.1.2.c3-00012-M8909WAAAANAZB-1_20161208_043404/b/boot_images/core/boot/secboot3/src/build/sbl1/Cortex-A7/WAATANAZ/boot_util_asm.o.i 0x00000000   Number         0  boot_util_asm.o ABSOLUTE
    /local/mnt/workspace/CRMBuilds/BOOT.BF.3.1.2.c3-00012-M8909WAAAANAZB-1_20161208_043404/b/boot_images/core/bsp/bootloaders/sbl1/build/WAATANAZ/SBL1_nand_oem_uuid.c 0x00000000   Number         0  SBL1_nand_oem_uuid.o ABSOLUTE
    /local/mnt/workspace/CRMBuilds/BOOT.BF.3.1.2.c3-00012-M8909WAAAANAZB-1_20161208_043404/b/boot_images/core/buses/i2c/src/dev/I2cDeviceQup.c 0x00000000   Number         0  I2cDeviceQup.o ABSOLUTE
    /local/mnt/workspace/CRMBuilds/BOOT.BF.3.1.2.c3-00012-M8909WAAAANAZB-1_20161208_043404/b/boot_images/core/buses/i2c/src/dev/I2cDriverDalInfo.c 0x00000000   Number         0  I2cDriverDalInfo.o ABSOLUTE
    /local/mnt/workspace/CRMBuilds/BOOT.BF.3.1.2.c3-00012-M8909WAAAANAZB-1_20161208_043404/b/boot_images/core/buses/i2c/src/dev/I2cPlatSvc.c 0x00000000   Number         0  I2cPlatSvc.o ABSOLUTE
    /local/mnt/workspace/CRMBuilds/BOOT.BF.3.1.2.c3-00012-M8909WAAAANAZB-1_20161208_043404/b/boot_images/core/buses/i2c/src/dev/I2cSys.c 0x00000000   Number         0  I2cSys.o ABSOLUTE
    /local/mnt/workspace/CRMBuilds/BOOT.BF.3.1.2.c3-00012-M8909WAAAANAZB-1_20161208_043404/b/boot_images/core/buses/icb/src/8909/icbcfg_data.c 0x00000000   Number         0  icbcfg_data.o ABSOLUTE
    /local/mnt/workspace/CRMBuilds/BOOT.BF.3.1.2.c3-00012-M8909WAAAANAZB-1_20161208_043404/b/boot_images/core/buses/icb/src/common/HALbimc.c 0x00000000   Number         0  HALbimc.o ABSOLUTE
    /local/mnt/workspace/CRMBuilds/BOOT.BF.3.1.2.c3-00012-M8909WAAAANAZB-1_20161208_043404/b/boot_images/core/buses/icb/src/common/HALbimcImpl.c 0x00000000   Number         0  HALbimcImpl.o ABSOLUTE
    /local/mnt/workspace/CRMBuilds/BOOT.BF.3.1.2.c3-00012-M8909WAAAANAZB-1_20161208_043404/b/boot_images/core/buses/icb/src/common/icbcfg.c 0x00000000   Number         0  icbcfg.o ABSOLUTE
    /local/mnt/workspace/CRMBuilds/BOOT.BF.3.1.2.c3-00012-M8909WAAAANAZB-1_20161208_043404/b/boot_images/core/buses/spmi/src/core/SpmiBus.c 0x00000000   Number         0  SpmiBus.o ABSOLUTE
    /local/mnt/workspace/CRMBuilds/BOOT.BF.3.1.2.c3-00012-M8909WAAAANAZB-1_20161208_043404/b/boot_images/core/buses/spmi/src/core/hal/SpmiHal.c 0x00000000   Number         0  SpmiHal.o ABSOLUTE
    /local/mnt/workspace/CRMBuilds/BOOT.BF.3.1.2.c3-00012-M8909WAAAANAZB-1_20161208_043404/b/boot_images/core/buses/spmi/src/core/hal/bear/PmicArb.c 0x00000000   Number         0  PmicArb.o ABSOLUTE
    /local/mnt/workspace/CRMBuilds/BOOT.BF.3.1.2.c3-00012-M8909WAAAANAZB-1_20161208_043404/b/boot_images/core/buses/spmi/src/core/hal/bear/SpmiCfg.c 0x00000000   Number         0  SpmiCfg.o ABSOLUTE
    /local/mnt/workspace/CRMBuilds/BOOT.BF.3.1.2.c3-00012-M8909WAAAANAZB-1_20161208_043404/b/boot_images/core/buses/spmi/src/core/hal/bear/SpmiMaster.c 0x00000000   Number         0  SpmiMaster.o ABSOLUTE
    /local/mnt/workspace/CRMBuilds/BOOT.BF.3.1.2.c3-00012-M8909WAAAANAZB-1_20161208_043404/b/boot_images/core/buses/spmi/src/core/hal/bear/SpmiRadixTree.c 0x00000000   Number         0  SpmiRadixTree.o ABSOLUTE
    /local/mnt/workspace/CRMBuilds/BOOT.BF.3.1.2.c3-00012-M8909WAAAANAZB-1_20161208_043404/b/boot_images/core/buses/spmi/src/platform/config/bear/default/GeniImage.c 0x00000000   Number         0  GeniImage.o ABSOLUTE
    /local/mnt/workspace/CRMBuilds/BOOT.BF.3.1.2.c3-00012-M8909WAAAANAZB-1_20161208_043404/b/boot_images/core/buses/spmi/src/platform/os/SpmiOs.c 0x00000000   Number         0  SpmiOs.o ABSOLUTE
    /local/mnt/workspace/CRMBuilds/BOOT.BF.3.1.2.c3-00012-M8909WAAAANAZB-1_20161208_043404/b/boot_images/core/buses/spmi/src/platform/os/sbl/SpmiOsImage.c 0x00000000   Number         0  SpmiOsImage.o ABSOLUTE
    /local/mnt/workspace/CRMBuilds/BOOT.BF.3.1.2.c3-00012-M8909WAAAANAZB-1_20161208_043404/b/boot_images/core/buses/spmi/src/platform/os/sbl/SpmiOsLogs.c 0x00000000   Number         0  SpmiOsLogs.o ABSOLUTE
    /local/mnt/workspace/CRMBuilds/BOOT.BF.3.1.2.c3-00012-M8909WAAAANAZB-1_20161208_043404/b/boot_images/core/buses/uart/src/Uart.c 0x00000000   Number         0  Uart.o ABSOLUTE
    /local/mnt/workspace/CRMBuilds/BOOT.BF.3.1.2.c3-00012-M8909WAAAANAZB-1_20161208_043404/b/boot_images/core/buses/uart/src/Uart_hal.c 0x00000000   Number         0  Uart_hal.o ABSOLUTE
    /local/mnt/workspace/CRMBuilds/BOOT.BF.3.1.2.c3-00012-M8909WAAAANAZB-1_20161208_043404/b/boot_images/core/buses/uart/src/Uart_log.c 0x00000000   Number         0  Uart_log.o ABSOLUTE
    /local/mnt/workspace/CRMBuilds/BOOT.BF.3.1.2.c3-00012-M8909WAAAANAZB-1_20161208_043404/b/boot_images/core/buses/uart/src/Uart_sbl_os.c 0x00000000   Number         0  Uart_sbl_os.o ABSOLUTE
    /local/mnt/workspace/CRMBuilds/BOOT.BF.3.1.2.c3-00012-M8909WAAAANAZB-1_20161208_043404/b/boot_images/core/dal/config/build/sbl1/Cortex-A7/WAATANAZ/DALConfig_boot.c 0x00000000   Number         0  DALConfig_boot.o ABSOLUTE
    /local/mnt/workspace/CRMBuilds/BOOT.BF.3.1.2.c3-00012-M8909WAAAANAZB-1_20161208_043404/b/boot_images/core/dal/config/build/sbl1/Cortex-A7/WAATANAZ/DALModDir_boot.c 0x00000000   Number         0  DALModDir_boot.o ABSOLUTE
    /local/mnt/workspace/CRMBuilds/BOOT.BF.3.1.2.c3-00012-M8909WAAAANAZB-1_20161208_043404/b/boot_images/core/dal/src/DALGlbCtxt.c 0x00000000   Number         0  DALGlbCtxt.o ABSOLUTE
    /local/mnt/workspace/CRMBuilds/BOOT.BF.3.1.2.c3-00012-M8909WAAAANAZB-1_20161208_043404/b/boot_images/core/dal/src/DALHeap.c 0x00000000   Number         0  DALHeap.o ABSOLUTE
    /local/mnt/workspace/CRMBuilds/BOOT.BF.3.1.2.c3-00012-M8909WAAAANAZB-1_20161208_043404/b/boot_images/core/dal/src/DALMemDesc.c 0x00000000   Number         0  DALMemDesc.o ABSOLUTE
    /local/mnt/workspace/CRMBuilds/BOOT.BF.3.1.2.c3-00012-M8909WAAAANAZB-1_20161208_043404/b/boot_images/core/dal/src/DALModEnv.c 0x00000000   Number         0  DALModEnv.o ABSOLUTE
    /local/mnt/workspace/CRMBuilds/BOOT.BF.3.1.2.c3-00012-M8909WAAAANAZB-1_20161208_043404/b/boot_images/core/dal/src/DALProps.c 0x00000000   Number         0  DALProps.o ABSOLUTE
    /local/mnt/workspace/CRMBuilds/BOOT.BF.3.1.2.c3-00012-M8909WAAAANAZB-1_20161208_043404/b/boot_images/core/dal/src/dalfwkbase.c 0x00000000   Number         0  dalfwkbase.o ABSOLUTE
    /local/mnt/workspace/CRMBuilds/BOOT.BF.3.1.2.c3-00012-M8909WAAAANAZB-1_20161208_043404/b/boot_images/core/debugtools/version/src/image_uuid.c 0x00000000   Number         0  image_uuid.o ABSOLUTE
    /local/mnt/workspace/CRMBuilds/BOOT.BF.3.1.2.c3-00012-M8909WAAAANAZB-1_20161208_043404/b/boot_images/core/debugtools/version/src/image_version.c 0x00000000   Number         0  image_version.o ABSOLUTE
    /local/mnt/workspace/CRMBuilds/BOOT.BF.3.1.2.c3-00012-M8909WAAAANAZB-1_20161208_043404/b/boot_images/core/hwengines/adc/config/8909/AdcBsp.c 0x00000000   Number         0  AdcBsp.o ABSOLUTE
    /local/mnt/workspace/CRMBuilds/BOOT.BF.3.1.2.c3-00012-M8909WAAAANAZB-1_20161208_043404/b/boot_images/core/hwengines/adc/config/8909/VAdcBsp.c 0x00000000   Number         0  VAdcBsp.o ABSOLUTE
    /local/mnt/workspace/CRMBuilds/BOOT.BF.3.1.2.c3-00012-M8909WAAAANAZB-1_20161208_043404/b/boot_images/core/hwengines/adc/dal/src/AdcBoot.c 0x00000000   Number         0  AdcBoot.o ABSOLUTE
    /local/mnt/workspace/CRMBuilds/BOOT.BF.3.1.2.c3-00012-M8909WAAAANAZB-1_20161208_043404/b/boot_images/core/hwengines/adc/devices/common/src/AdcScalingUtil.c 0x00000000   Number         0  AdcScalingUtil.o ABSOLUTE
    /local/mnt/workspace/CRMBuilds/BOOT.BF.3.1.2.c3-00012-M8909WAAAANAZB-1_20161208_043404/b/boot_images/core/hwengines/adc/devices/vadc/src/DalVAdc.c 0x00000000   Number         0  DalVAdc.o ABSOLUTE
    /local/mnt/workspace/CRMBuilds/BOOT.BF.3.1.2.c3-00012-M8909WAAAANAZB-1_20161208_043404/b/boot_images/core/hwengines/adc/devices/vadc/src/DalVAdcFwk.c 0x00000000   Number         0  DalVAdcFwk.o ABSOLUTE
    /local/mnt/workspace/CRMBuilds/BOOT.BF.3.1.2.c3-00012-M8909WAAAANAZB-1_20161208_043404/b/boot_images/core/hwengines/adc/devices/vadc/src/DalVAdcInfo.c 0x00000000   Number         0  DalVAdcInfo.o ABSOLUTE
    /local/mnt/workspace/CRMBuilds/BOOT.BF.3.1.2.c3-00012-M8909WAAAANAZB-1_20161208_043404/b/boot_images/core/hwengines/adc/devices/vadc/src/VAdcHal.c 0x00000000   Number         0  VAdcHal.o ABSOLUTE
    /local/mnt/workspace/CRMBuilds/BOOT.BF.3.1.2.c3-00012-M8909WAAAANAZB-1_20161208_043404/b/boot_images/core/hwengines/bam/8909/bamtgtcfg.c 0x00000000   Number         0  bamtgtcfg.o ABSOLUTE
    /local/mnt/workspace/CRMBuilds/BOOT.BF.3.1.2.c3-00012-M8909WAAAANAZB-1_20161208_043404/b/boot_images/core/hwengines/bam/bamosal.c 0x00000000   Number         0  bamosal.o ABSOLUTE
    /local/mnt/workspace/CRMBuilds/BOOT.BF.3.1.2.c3-00012-M8909WAAAANAZB-1_20161208_043404/b/boot_images/core/hwengines/bam/bams.c 0x00000000   Number         0  bams.o ABSOLUTE
    /local/mnt/workspace/CRMBuilds/BOOT.BF.3.1.2.c3-00012-M8909WAAAANAZB-1_20161208_043404/b/boot_images/core/hwengines/bam/core4/bamcore.c 0x00000000   Number         0  bamcore.o ABSOLUTE
    /local/mnt/workspace/CRMBuilds/BOOT.BF.3.1.2.c3-00012-M8909WAAAANAZB-1_20161208_043404/b/boot_images/core/hwengines/tsens/config/8909/BootTempCheckBsp.c 0x00000000   Number         0  BootTempCheckBsp.o ABSOLUTE
    /local/mnt/workspace/CRMBuilds/BOOT.BF.3.1.2.c3-00012-M8909WAAAANAZB-1_20161208_043404/b/boot_images/core/hwengines/tsens/config/8909/TsensBootBsp.c 0x00000000   Number         0  TsensBootBsp.o ABSOLUTE
    /local/mnt/workspace/CRMBuilds/BOOT.BF.3.1.2.c3-00012-M8909WAAAANAZB-1_20161208_043404/b/boot_images/core/hwengines/tsens/config/8909/TsensiConversion.c 0x00000000   Number         0  TsensiConversion.o ABSOLUTE
    /local/mnt/workspace/CRMBuilds/BOOT.BF.3.1.2.c3-00012-M8909WAAAANAZB-1_20161208_043404/b/boot_images/core/hwengines/tsens/hal/8909/HALtsens.c 0x00000000   Number         0  HALtsens.o ABSOLUTE
    /local/mnt/workspace/CRMBuilds/BOOT.BF.3.1.2.c3-00012-M8909WAAAANAZB-1_20161208_043404/b/boot_images/core/hwengines/tsens/src/BootTempCheck.c 0x00000000   Number         0  BootTempCheck.o ABSOLUTE
    /local/mnt/workspace/CRMBuilds/BOOT.BF.3.1.2.c3-00012-M8909WAAAANAZB-1_20161208_043404/b/boot_images/core/hwengines/tsens/src/TsensBoot.c 0x00000000   Number         0  TsensBoot.o ABSOLUTE
    /local/mnt/workspace/CRMBuilds/BOOT.BF.3.1.2.c3-00012-M8909WAAAANAZB-1_20161208_043404/b/boot_images/core/kernel/libstd/src/memscpy.c 0x00000000   Number         0  memscpy.o ABSOLUTE
    /local/mnt/workspace/CRMBuilds/BOOT.BF.3.1.2.c3-00012-M8909WAAAANAZB-1_20161208_043404/b/boot_images/core/kernel/libstd/src/memsmove.c 0x00000000   Number         0  memsmove.o ABSOLUTE
    /local/mnt/workspace/CRMBuilds/BOOT.BF.3.1.2.c3-00012-M8909WAAAANAZB-1_20161208_043404/b/boot_images/core/kernel/libstd/src/strlcpy.c 0x00000000   Number         0  strlcpy.o ABSOLUTE
    /local/mnt/workspace/CRMBuilds/BOOT.BF.3.1.2.c3-00012-M8909WAAAANAZB-1_20161208_043404/b/boot_images/core/mproc/smem/config/smem_8916_structs.c 0x00000000   Number         0  smem_8916_structs.o ABSOLUTE
    /local/mnt/workspace/CRMBuilds/BOOT.BF.3.1.2.c3-00012-M8909WAAAANAZB-1_20161208_043404/b/boot_images/core/mproc/smem/src/smem.c 0x00000000   Number         0  smem.o ABSOLUTE
    /local/mnt/workspace/CRMBuilds/BOOT.BF.3.1.2.c3-00012-M8909WAAAANAZB-1_20161208_043404/b/boot_images/core/mproc/smem/src/smem_boot.c 0x00000000   Number         0  smem_boot.o ABSOLUTE
    /local/mnt/workspace/CRMBuilds/BOOT.BF.3.1.2.c3-00012-M8909WAAAANAZB-1_20161208_043404/b/boot_images/core/mproc/smem/src/smem_boot_target.c 0x00000000   Number         0  smem_boot_target.o ABSOLUTE
    /local/mnt/workspace/CRMBuilds/BOOT.BF.3.1.2.c3-00012-M8909WAAAANAZB-1_20161208_043404/b/boot_images/core/mproc/smem/src/smem_ext.c 0x00000000   Number         0  smem_ext.o ABSOLUTE
    /local/mnt/workspace/CRMBuilds/BOOT.BF.3.1.2.c3-00012-M8909WAAAANAZB-1_20161208_043404/b/boot_images/core/mproc/smem/src/smem_mapping_rex.c 0x00000000   Number         0  smem_mapping_rex.o ABSOLUTE
    /local/mnt/workspace/CRMBuilds/BOOT.BF.3.1.2.c3-00012-M8909WAAAANAZB-1_20161208_043404/b/boot_images/core/mproc/smem/src/smem_rex.c 0x00000000   Number         0  smem_rex.o ABSOLUTE
    /local/mnt/workspace/CRMBuilds/BOOT.BF.3.1.2.c3-00012-M8909WAAAANAZB-1_20161208_043404/b/boot_images/core/securemsm/cryptodrivers/ce/chipset/msm8909/src/CeCL.c 0x00000000   Number         0  CeCL.o ABSOLUTE
    /local/mnt/workspace/CRMBuilds/BOOT.BF.3.1.2.c3-00012-M8909WAAAANAZB-1_20161208_043404/b/boot_images/core/securemsm/cryptodrivers/ce/chipset/msm8909/src/CeCL_Ce0.c 0x00000000   Number         0  CeCL_Ce0.o ABSOLUTE
    /local/mnt/workspace/CRMBuilds/BOOT.BF.3.1.2.c3-00012-M8909WAAAANAZB-1_20161208_043404/b/boot_images/core/securemsm/cryptodrivers/ce/environment/src/CeEL.c 0x00000000   Number         0  CeEL.o ABSOLUTE
    /local/mnt/workspace/CRMBuilds/BOOT.BF.3.1.2.c3-00012-M8909WAAAANAZB-1_20161208_043404/b/boot_images/core/securemsm/cryptodrivers/ce/environment/src/CeEL_Env.c 0x00000000   Number         0  CeEL_Env.o ABSOLUTE
    /local/mnt/workspace/CRMBuilds/BOOT.BF.3.1.2.c3-00012-M8909WAAAANAZB-1_20161208_043404/b/boot_images/core/securemsm/cryptodrivers/ce/environment/src/CeEL_Reg.c 0x00000000   Number         0  CeEL_Reg.o ABSOLUTE
    /local/mnt/workspace/CRMBuilds/BOOT.BF.3.1.2.c3-00012-M8909WAAAANAZB-1_20161208_043404/b/boot_images/core/securemsm/cryptodrivers/ce/shared/src/CeML.c 0x00000000   Number         0  CeML.o ABSOLUTE
    /local/mnt/workspace/CRMBuilds/BOOT.BF.3.1.2.c3-00012-M8909WAAAANAZB-1_20161208_043404/b/boot_images/core/securemsm/cryptodrivers/prng/chipset/msm8909/src/PrngCL.c 0x00000000   Number         0  PrngCL.o ABSOLUTE
    /local/mnt/workspace/CRMBuilds/BOOT.BF.3.1.2.c3-00012-M8909WAAAANAZB-1_20161208_043404/b/boot_images/core/securemsm/cryptodrivers/prng/environment/src/PrngEL.c 0x00000000   Number         0  PrngEL.o ABSOLUTE
    /local/mnt/workspace/CRMBuilds/BOOT.BF.3.1.2.c3-00012-M8909WAAAANAZB-1_20161208_043404/b/boot_images/core/securemsm/cryptodrivers/prng/shared/src/PrngML.c 0x00000000   Number         0  PrngML.o ABSOLUTE
    /local/mnt/workspace/CRMBuilds/BOOT.BF.3.1.2.c3-00012-M8909WAAAANAZB-1_20161208_043404/b/boot_images/core/securemsm/secboot/hw/secctrl/src/secboot_hw.c 0x00000000   Number         0  secboot_hw.o ABSOLUTE
    /local/mnt/workspace/CRMBuilds/BOOT.BF.3.1.2.c3-00012-M8909WAAAANAZB-1_20161208_043404/b/boot_images/core/securemsm/secboot/hw/secctrl/src/secboot_hw_apps.c 0x00000000   Number         0  secboot_hw_apps.o ABSOLUTE
    /local/mnt/workspace/CRMBuilds/BOOT.BF.3.1.2.c3-00012-M8909WAAAANAZB-1_20161208_043404/b/boot_images/core/securemsm/secboot/oem/secboot_util.c 0x00000000   Number         0  secboot_util.o ABSOLUTE
    /local/mnt/workspace/CRMBuilds/BOOT.BF.3.1.2.c3-00012-M8909WAAAANAZB-1_20161208_043404/b/boot_images/core/securemsm/secboot/src/secboot.c 0x00000000   Number         0  secboot.o ABSOLUTE
    /local/mnt/workspace/CRMBuilds/BOOT.BF.3.1.2.c3-00012-M8909WAAAANAZB-1_20161208_043404/b/boot_images/core/securemsm/secboot/src/secboot_asn1.c 0x00000000   Number         0  secboot_asn1.o ABSOLUTE
    /local/mnt/workspace/CRMBuilds/BOOT.BF.3.1.2.c3-00012-M8909WAAAANAZB-1_20161208_043404/b/boot_images/core/securemsm/secboot/src/secboot_x509.c 0x00000000   Number         0  secboot_x509.o ABSOLUTE
    /local/mnt/workspace/CRMBuilds/BOOT.BF.3.1.2.c3-00012-M8909WAAAANAZB-1_20161208_043404/b/boot_images/core/securemsm/seccfg/build/sbl1/Cortex-A7/WAATANAZ/src/seccfg_memzi.o.i 0x00000000   Number         0  seccfg_memzi.o ABSOLUTE
    /local/mnt/workspace/CRMBuilds/BOOT.BF.3.1.2.c3-00012-M8909WAAAANAZB-1_20161208_043404/b/boot_images/core/securemsm/seccfg/src/seccfg.c 0x00000000   Number         0  seccfg.o ABSOLUTE
    /local/mnt/workspace/CRMBuilds/BOOT.BF.3.1.2.c3-00012-M8909WAAAANAZB-1_20161208_043404/b/boot_images/core/securemsm/seccfg/src/seccfg_memset_pheripheral.c 0x00000000   Number         0  seccfg_memset_pheripheral.o ABSOLUTE
    /local/mnt/workspace/CRMBuilds/BOOT.BF.3.1.2.c3-00012-M8909WAAAANAZB-1_20161208_043404/b/boot_images/core/securemsm/secmath/shared/src/secmath_BIGINT_read_unsigned_bin.c 0x00000000   Number         0  secmath_BIGINT_read_unsigned_bin.o ABSOLUTE
    /local/mnt/workspace/CRMBuilds/BOOT.BF.3.1.2.c3-00012-M8909WAAAANAZB-1_20161208_043404/b/boot_images/core/securemsm/secmath/shared/src/secmath_barrett_reduce.c 0x00000000   Number         0  secmath_barrett_reduce.o ABSOLUTE
    /local/mnt/workspace/CRMBuilds/BOOT.BF.3.1.2.c3-00012-M8909WAAAANAZB-1_20161208_043404/b/boot_images/core/securemsm/secmath/shared/src/secmath_mod_exp.c 0x00000000   Number         0  secmath_mod_exp.o ABSOLUTE
    /local/mnt/workspace/CRMBuilds/BOOT.BF.3.1.2.c3-00012-M8909WAAAANAZB-1_20161208_043404/b/boot_images/core/securemsm/secmath/shared/src/secmath_montmul_ref.c 0x00000000   Number         0  secmath_montmul_ref.o ABSOLUTE
    /local/mnt/workspace/CRMBuilds/BOOT.BF.3.1.2.c3-00012-M8909WAAAANAZB-1_20161208_043404/b/boot_images/core/securemsm/secmath/shared/src/secmath_montmul_utils.c 0x00000000   Number         0  secmath_montmul_utils.o ABSOLUTE
    /local/mnt/workspace/CRMBuilds/BOOT.BF.3.1.2.c3-00012-M8909WAAAANAZB-1_20161208_043404/b/boot_images/core/services/utils/src/crc.c 0x00000000   Number         0  crc.o ABSOLUTE
    /local/mnt/workspace/CRMBuilds/BOOT.BF.3.1.2.c3-00012-M8909WAAAANAZB-1_20161208_043404/b/boot_images/core/storage/flash/src/dal/flash_boot_ops_setup.c 0x00000000   Number         0  flash_boot_ops_setup.o ABSOLUTE
    /local/mnt/workspace/CRMBuilds/BOOT.BF.3.1.2.c3-00012-M8909WAAAANAZB-1_20161208_043404/b/boot_images/core/storage/flash/src/dal/flash_dal.c 0x00000000   Number         0  flash_dal.o ABSOLUTE
    /local/mnt/workspace/CRMBuilds/BOOT.BF.3.1.2.c3-00012-M8909WAAAANAZB-1_20161208_043404/b/boot_images/core/storage/flash/src/dal/flash_dal_fwk.c 0x00000000   Number         0  flash_dal_fwk.o ABSOLUTE
    /local/mnt/workspace/CRMBuilds/BOOT.BF.3.1.2.c3-00012-M8909WAAAANAZB-1_20161208_043404/b/boot_images/core/storage/flash/src/dal/flash_dal_info.c 0x00000000   Number         0  flash_dal_info.o ABSOLUTE
    /local/mnt/workspace/CRMBuilds/BOOT.BF.3.1.2.c3-00012-M8909WAAAANAZB-1_20161208_043404/b/boot_images/core/storage/flash/src/dal/flash_dal_nand_reduced.c 0x00000000   Number         0  flash_dal_nand_reduced.o ABSOLUTE
    /local/mnt/workspace/CRMBuilds/BOOT.BF.3.1.2.c3-00012-M8909WAAAANAZB-1_20161208_043404/b/boot_images/core/storage/flash/src/dal/flash_dal_util.c 0x00000000   Number         0  flash_dal_util.o ABSOLUTE
    /local/mnt/workspace/CRMBuilds/BOOT.BF.3.1.2.c3-00012-M8909WAAAANAZB-1_20161208_043404/b/boot_images/core/storage/flash/src/dal/flash_nand_config.c 0x00000000   Number         0  flash_nand_config.o ABSOLUTE
    /local/mnt/workspace/CRMBuilds/BOOT.BF.3.1.2.c3-00012-M8909WAAAANAZB-1_20161208_043404/b/boot_images/core/storage/flash/src/dal/flash_nand_core.c 0x00000000   Number         0  flash_nand_core.o ABSOLUTE
    /local/mnt/workspace/CRMBuilds/BOOT.BF.3.1.2.c3-00012-M8909WAAAANAZB-1_20161208_043404/b/boot_images/core/storage/flash/src/dal/flash_nand_entry.c 0x00000000   Number         0  flash_nand_entry.o ABSOLUTE
    /local/mnt/workspace/CRMBuilds/BOOT.BF.3.1.2.c3-00012-M8909WAAAANAZB-1_20161208_043404/b/boot_images/core/storage/flash/src/dal/flash_nand_init.c 0x00000000   Number         0  flash_nand_init.o ABSOLUTE
    /local/mnt/workspace/CRMBuilds/BOOT.BF.3.1.2.c3-00012-M8909WAAAANAZB-1_20161208_043404/b/boot_images/core/storage/flash/src/dal/flash_nand_partition.c 0x00000000   Number         0  flash_nand_partition.o ABSOLUTE
    /local/mnt/workspace/CRMBuilds/BOOT.BF.3.1.2.c3-00012-M8909WAAAANAZB-1_20161208_043404/b/boot_images/core/storage/flash/src/dal/flash_nor_entry_reduced.c 0x00000000   Number         0  flash_nor_entry_reduced.o ABSOLUTE
    /local/mnt/workspace/CRMBuilds/BOOT.BF.3.1.2.c3-00012-M8909WAAAANAZB-1_20161208_043404/b/boot_images/core/storage/flash/src/dal/flash_nor_i2c_config.c 0x00000000   Number         0  flash_nor_i2c_config.o ABSOLUTE
    /local/mnt/workspace/CRMBuilds/BOOT.BF.3.1.2.c3-00012-M8909WAAAANAZB-1_20161208_043404/b/boot_images/core/storage/flash/src/dal/flash_nor_i2c_core.c 0x00000000   Number         0  flash_nor_i2c_core.o ABSOLUTE
    /local/mnt/workspace/CRMBuilds/BOOT.BF.3.1.2.c3-00012-M8909WAAAANAZB-1_20161208_043404/b/boot_images/core/storage/flash/src/dal/flash_nor_i2c_init.c 0x00000000   Number         0  flash_nor_i2c_init.o ABSOLUTE
    /local/mnt/workspace/CRMBuilds/BOOT.BF.3.1.2.c3-00012-M8909WAAAANAZB-1_20161208_043404/b/boot_images/core/storage/flash/src/dal/flash_onfi.c 0x00000000   Number         0  flash_onfi.o ABSOLUTE
    /local/mnt/workspace/CRMBuilds/BOOT.BF.3.1.2.c3-00012-M8909WAAAANAZB-1_20161208_043404/b/boot_images/core/storage/flash/src/dal/flash_otp_config.c 0x00000000   Number         0  flash_otp_config.o ABSOLUTE
    /local/mnt/workspace/CRMBuilds/BOOT.BF.3.1.2.c3-00012-M8909WAAAANAZB-1_20161208_043404/b/boot_images/core/storage/flash/src/dal/flash_properties.c 0x00000000   Number         0  flash_properties.o ABSOLUTE
    /local/mnt/workspace/CRMBuilds/BOOT.BF.3.1.2.c3-00012-M8909WAAAANAZB-1_20161208_043404/b/boot_images/core/storage/flash/src/extdrv/config_v2/flash_extdrv_i2c_v2.c 0x00000000   Number         0  flash_extdrv_i2c_v2.o ABSOLUTE
    /local/mnt/workspace/CRMBuilds/BOOT.BF.3.1.2.c3-00012-M8909WAAAANAZB-1_20161208_043404/b/boot_images/core/storage/flash/src/hal/build/sbl1/Cortex-A7/WAATANAZ/flash_hal_util_asm.o.i 0x00000000   Number         0  flash_hal_util_asm.o ABSOLUTE
    /local/mnt/workspace/CRMBuilds/BOOT.BF.3.1.2.c3-00012-M8909WAAAANAZB-1_20161208_043404/b/boot_images/core/storage/flash/src/hal/flash_hal_common.c 0x00000000   Number         0  flash_hal_common.o ABSOLUTE
    /local/mnt/workspace/CRMBuilds/BOOT.BF.3.1.2.c3-00012-M8909WAAAANAZB-1_20161208_043404/b/boot_images/core/storage/flash/src/hal/flash_hal_main.c 0x00000000   Number         0  flash_hal_main.o ABSOLUTE
    /local/mnt/workspace/CRMBuilds/BOOT.BF.3.1.2.c3-00012-M8909WAAAANAZB-1_20161208_043404/b/boot_images/core/storage/flash/src/hal/flash_hal_nand_main.c 0x00000000   Number         0  flash_hal_nand_main.o ABSOLUTE
    /local/mnt/workspace/CRMBuilds/BOOT.BF.3.1.2.c3-00012-M8909WAAAANAZB-1_20161208_043404/b/boot_images/core/storage/flash/src/hal/flash_hal_properties.c 0x00000000   Number         0  flash_hal_properties.o ABSOLUTE
    /local/mnt/workspace/CRMBuilds/BOOT.BF.3.1.2.c3-00012-M8909WAAAANAZB-1_20161208_043404/b/boot_images/core/storage/flash/src/hal/flash_hal_reg_list.c 0x00000000   Number         0  flash_hal_reg_list.o ABSOLUTE
    /local/mnt/workspace/CRMBuilds/BOOT.BF.3.1.2.c3-00012-M8909WAAAANAZB-1_20161208_043404/b/boot_images/core/storage/flash/src/hal/qpic/flash_hal_nandc.c 0x00000000   Number         0  flash_hal_nandc.o ABSOLUTE
    /local/mnt/workspace/CRMBuilds/BOOT.BF.3.1.2.c3-00012-M8909WAAAANAZB-1_20161208_043404/b/boot_images/core/storage/flash/src/hal/qpic/flash_hal_nandc_common.c 0x00000000   Number         0  flash_hal_nandc_common.o ABSOLUTE
    /local/mnt/workspace/CRMBuilds/BOOT.BF.3.1.2.c3-00012-M8909WAAAANAZB-1_20161208_043404/b/boot_images/core/storage/flash/src/hal/qpic/flash_hal_nandc_predef_bam_core.c 0x00000000   Number         0  flash_hal_nandc_predef_bam_core.o ABSOLUTE
    /local/mnt/workspace/CRMBuilds/BOOT.BF.3.1.2.c3-00012-M8909WAAAANAZB-1_20161208_043404/b/boot_images/core/storage/flash/src/hal/qpic/flash_hal_nandc_predef_bam_exec.c 0x00000000   Number         0  flash_hal_nandc_predef_bam_exec.o ABSOLUTE
    /local/mnt/workspace/CRMBuilds/BOOT.BF.3.1.2.c3-00012-M8909WAAAANAZB-1_20161208_043404/b/boot_images/core/storage/flash/src/hal/qpic/flash_hal_nandc_predef_bam_init.c 0x00000000   Number         0  flash_hal_nandc_predef_bam_init.o ABSOLUTE
    /local/mnt/workspace/CRMBuilds/BOOT.BF.3.1.2.c3-00012-M8909WAAAANAZB-1_20161208_043404/b/boot_images/core/storage/flash/src/hal/qpic/flash_hal_nandc_predef_bam_pprocess.c 0x00000000   Number         0  flash_hal_nandc_predef_bam_pprocess.o ABSOLUTE
    /local/mnt/workspace/CRMBuilds/BOOT.BF.3.1.2.c3-00012-M8909WAAAANAZB-1_20161208_043404/b/boot_images/core/storage/flash/src/hal/qpic/flash_hal_nandc_reduced.c 0x00000000   Number         0  flash_hal_nandc_reduced.o ABSOLUTE
    /local/mnt/workspace/CRMBuilds/BOOT.BF.3.1.2.c3-00012-M8909WAAAANAZB-1_20161208_043404/b/boot_images/core/storage/flash/src/iface/flash_bam_wrapper.c 0x00000000   Number         0  flash_bam_wrapper.o ABSOLUTE
    /local/mnt/workspace/CRMBuilds/BOOT.BF.3.1.2.c3-00012-M8909WAAAANAZB-1_20161208_043404/b/boot_images/core/systemdrivers/busywait/src/busywait_hw_qtimer.c 0x00000000   Number         0  busywait_hw_qtimer.o ABSOLUTE
    /local/mnt/workspace/CRMBuilds/BOOT.BF.3.1.2.c3-00012-M8909WAAAANAZB-1_20161208_043404/b/boot_images/core/systemdrivers/chipinfo/src/DalChipInfo.c 0x00000000   Number         0  DalChipInfo.o ABSOLUTE
    /local/mnt/workspace/CRMBuilds/BOOT.BF.3.1.2.c3-00012-M8909WAAAANAZB-1_20161208_043404/b/boot_images/core/systemdrivers/chipinfo/src/DalChipInfoFwk.c 0x00000000   Number         0  DalChipInfoFwk.o ABSOLUTE
    /local/mnt/workspace/CRMBuilds/BOOT.BF.3.1.2.c3-00012-M8909WAAAANAZB-1_20161208_043404/b/boot_images/core/systemdrivers/chipinfo/src/DalChipInfoInfo.c 0x00000000   Number         0  DalChipInfoInfo.o ABSOLUTE
    /local/mnt/workspace/CRMBuilds/BOOT.BF.3.1.2.c3-00012-M8909WAAAANAZB-1_20161208_043404/b/boot_images/core/systemdrivers/chipinfo/src/DalChipInfoLocal.c 0x00000000   Number         0  DalChipInfoLocal.o ABSOLUTE
    /local/mnt/workspace/CRMBuilds/BOOT.BF.3.1.2.c3-00012-M8909WAAAANAZB-1_20161208_043404/b/boot_images/core/systemdrivers/clock/hw/msm8909w/src/ClockSBL.c 0x00000000   Number         0  ClockSBL.o ABSOLUTE
    /local/mnt/workspace/CRMBuilds/BOOT.BF.3.1.2.c3-00012-M8909WAAAANAZB-1_20161208_043404/b/boot_images/core/systemdrivers/clock/hw/msm8909w/src/ClockSBLCPU.c 0x00000000   Number         0  ClockSBLCPU.o ABSOLUTE
    /local/mnt/workspace/CRMBuilds/BOOT.BF.3.1.2.c3-00012-M8909WAAAANAZB-1_20161208_043404/b/boot_images/core/systemdrivers/clock/hw/msm8909w/src/ClockSBLConfig.c 0x00000000   Number         0  ClockSBLConfig.o ABSOLUTE
    /local/mnt/workspace/CRMBuilds/BOOT.BF.3.1.2.c3-00012-M8909WAAAANAZB-1_20161208_043404/b/boot_images/core/systemdrivers/clock/hw/msm8909w/src/ClockTLMMSpare.c 0x00000000   Number         0  ClockTLMMSpare.o ABSOLUTE
    /local/mnt/workspace/CRMBuilds/BOOT.BF.3.1.2.c3-00012-M8909WAAAANAZB-1_20161208_043404/b/boot_images/core/systemdrivers/clock/hw/msm8909w/src/ClockTools.c 0x00000000   Number         0  ClockTools.o ABSOLUTE
    /local/mnt/workspace/CRMBuilds/BOOT.BF.3.1.2.c3-00012-M8909WAAAANAZB-1_20161208_043404/b/boot_images/core/systemdrivers/clock/src/v3/ClockSBLCommon.c 0x00000000   Number         0  ClockSBLCommon.o ABSOLUTE
    /local/mnt/workspace/CRMBuilds/BOOT.BF.3.1.2.c3-00012-M8909WAAAANAZB-1_20161208_043404/b/boot_images/core/systemdrivers/platforminfo/src/PlatformInfo.c 0x00000000   Number         0  PlatformInfo.o ABSOLUTE
    /local/mnt/workspace/CRMBuilds/BOOT.BF.3.1.2.c3-00012-M8909WAAAANAZB-1_20161208_043404/b/boot_images/core/systemdrivers/platforminfo/src/PlatformInfoFwk.c 0x00000000   Number         0  PlatformInfoFwk.o ABSOLUTE
    /local/mnt/workspace/CRMBuilds/BOOT.BF.3.1.2.c3-00012-M8909WAAAANAZB-1_20161208_043404/b/boot_images/core/systemdrivers/pmic/app/chg/src/pm_app_chg_alg.c 0x00000000   Number         0  pm_app_chg_alg.o ABSOLUTE
    /local/mnt/workspace/CRMBuilds/BOOT.BF.3.1.2.c3-00012-M8909WAAAANAZB-1_20161208_043404/b/boot_images/core/systemdrivers/pmic/app/chg/src/pm_app_chg_util.c 0x00000000   Number         0  pm_app_chg_util.o ABSOLUTE
    /local/mnt/workspace/CRMBuilds/BOOT.BF.3.1.2.c3-00012-M8909WAAAANAZB-1_20161208_043404/b/boot_images/core/systemdrivers/pmic/app/led/src/pm_app_led.c 0x00000000   Number         0  pm_app_led.o ABSOLUTE
    /local/mnt/workspace/CRMBuilds/BOOT.BF.3.1.2.c3-00012-M8909WAAAANAZB-1_20161208_043404/b/boot_images/core/systemdrivers/pmic/app/pon/src/pm_app_pon.c 0x00000000   Number         0  pm_app_pon.o ABSOLUTE
    /local/mnt/workspace/CRMBuilds/BOOT.BF.3.1.2.c3-00012-M8909WAAAANAZB-1_20161208_043404/b/boot_images/core/systemdrivers/pmic/app/rgb/src/pm_app_rgb.c 0x00000000   Number         0  pm_app_rgb.o ABSOLUTE
    /local/mnt/workspace/CRMBuilds/BOOT.BF.3.1.2.c3-00012-M8909WAAAANAZB-1_20161208_043404/b/boot_images/core/systemdrivers/pmic/comm/spmi_lite/src/pm_comm_spmi_lite.c 0x00000000   Number         0  pm_comm_spmi_lite.o ABSOLUTE
    /local/mnt/workspace/CRMBuilds/BOOT.BF.3.1.2.c3-00012-M8909WAAAANAZB-1_20161208_043404/b/boot_images/core/systemdrivers/pmic/comm/src/pm_comm.c 0x00000000   Number         0  pm_comm.o ABSOLUTE
    /local/mnt/workspace/CRMBuilds/BOOT.BF.3.1.2.c3-00012-M8909WAAAANAZB-1_20161208_043404/b/boot_images/core/systemdrivers/pmic/config/common/pm_config_common.c 0x00000000   Number         0  pm_config_common.o ABSOLUTE
    /local/mnt/workspace/CRMBuilds/BOOT.BF.3.1.2.c3-00012-M8909WAAAANAZB-1_20161208_043404/b/boot_images/core/systemdrivers/pmic/config/msm8909/pm8909/pm_config_target.c 0x00000000   Number         0  pm_config_target.o ABSOLUTE
    /local/mnt/workspace/CRMBuilds/BOOT.BF.3.1.2.c3-00012-M8909WAAAANAZB-1_20161208_043404/b/boot_images/core/systemdrivers/pmic/config/msm8909/pm8909/pm_config_target_pbs_ram.c 0x00000000   Number         0  pm_config_target_pbs_ram.o ABSOLUTE
    /local/mnt/workspace/CRMBuilds/BOOT.BF.3.1.2.c3-00012-M8909WAAAANAZB-1_20161208_043404/b/boot_images/core/systemdrivers/pmic/config/msm8909/pm8909/pm_config_target_sbl_sequence.c 0x00000000   Number         0  pm_config_target_sbl_sequence.o ABSOLUTE
    /local/mnt/workspace/CRMBuilds/BOOT.BF.3.1.2.c3-00012-M8909WAAAANAZB-1_20161208_043404/b/boot_images/core/systemdrivers/pmic/config/msm8909/pm8916/pm_config_target.c 0x00000000   Number         0  pm_config_target.o ABSOLUTE
    /local/mnt/workspace/CRMBuilds/BOOT.BF.3.1.2.c3-00012-M8909WAAAANAZB-1_20161208_043404/b/boot_images/core/systemdrivers/pmic/config/msm8909/pm8916/pm_config_target_pbs_ram.c 0x00000000   Number         0  pm_config_target_pbs_ram.o ABSOLUTE
    /local/mnt/workspace/CRMBuilds/BOOT.BF.3.1.2.c3-00012-M8909WAAAANAZB-1_20161208_043404/b/boot_images/core/systemdrivers/pmic/config/msm8909/pm8916/pm_config_target_sbl_sequence.c 0x00000000   Number         0  pm_config_target_sbl_sequence.o ABSOLUTE
    /local/mnt/workspace/CRMBuilds/BOOT.BF.3.1.2.c3-00012-M8909WAAAANAZB-1_20161208_043404/b/boot_images/core/systemdrivers/pmic/drivers/chg/src/pm_chg.c 0x00000000   Number         0  pm_chg.o ABSOLUTE
    /local/mnt/workspace/CRMBuilds/BOOT.BF.3.1.2.c3-00012-M8909WAAAANAZB-1_20161208_043404/b/boot_images/core/systemdrivers/pmic/drivers/chg/src/pm_chg_driver.c 0x00000000   Number         0  pm_chg_driver.o ABSOLUTE
    /local/mnt/workspace/CRMBuilds/BOOT.BF.3.1.2.c3-00012-M8909WAAAANAZB-1_20161208_043404/b/boot_images/core/systemdrivers/pmic/drivers/clk/src/pm_clk_driver.c 0x00000000   Number         0  pm_clk_driver.o ABSOLUTE
    /local/mnt/workspace/CRMBuilds/BOOT.BF.3.1.2.c3-00012-M8909WAAAANAZB-1_20161208_043404/b/boot_images/core/systemdrivers/pmic/drivers/coincell/src/pm_coincell_driver.c 0x00000000   Number         0  pm_coincell_driver.o ABSOLUTE
    /local/mnt/workspace/CRMBuilds/BOOT.BF.3.1.2.c3-00012-M8909WAAAANAZB-1_20161208_043404/b/boot_images/core/systemdrivers/pmic/drivers/gpio/src/pm_gpio_driver.c 0x00000000   Number         0  pm_gpio_driver.o ABSOLUTE
    /local/mnt/workspace/CRMBuilds/BOOT.BF.3.1.2.c3-00012-M8909WAAAANAZB-1_20161208_043404/b/boot_images/core/systemdrivers/pmic/drivers/ibb/src/pm_ibb_driver.c 0x00000000   Number         0  pm_ibb_driver.o ABSOLUTE
    /local/mnt/workspace/CRMBuilds/BOOT.BF.3.1.2.c3-00012-M8909WAAAANAZB-1_20161208_043404/b/boot_images/core/systemdrivers/pmic/drivers/lab/src/pm_lab_driver.c 0x00000000   Number         0  pm_lab_driver.o ABSOLUTE
    /local/mnt/workspace/CRMBuilds/BOOT.BF.3.1.2.c3-00012-M8909WAAAANAZB-1_20161208_043404/b/boot_images/core/systemdrivers/pmic/drivers/lbc/src/pm_lbc.c 0x00000000   Number         0  pm_lbc.o ABSOLUTE
    /local/mnt/workspace/CRMBuilds/BOOT.BF.3.1.2.c3-00012-M8909WAAAANAZB-1_20161208_043404/b/boot_images/core/systemdrivers/pmic/drivers/lbc/src/pm_lbc_driver.c 0x00000000   Number         0  pm_lbc_driver.o ABSOLUTE
    /local/mnt/workspace/CRMBuilds/BOOT.BF.3.1.2.c3-00012-M8909WAAAANAZB-1_20161208_043404/b/boot_images/core/systemdrivers/pmic/drivers/ldo/src/pm_ldo_driver.c 0x00000000   Number         0  pm_ldo_driver.o ABSOLUTE
    /local/mnt/workspace/CRMBuilds/BOOT.BF.3.1.2.c3-00012-M8909WAAAANAZB-1_20161208_043404/b/boot_images/core/systemdrivers/pmic/drivers/lpg/src/pm_lpg.c 0x00000000   Number         0  pm_lpg.o ABSOLUTE
    /local/mnt/workspace/CRMBuilds/BOOT.BF.3.1.2.c3-00012-M8909WAAAANAZB-1_20161208_043404/b/boot_images/core/systemdrivers/pmic/drivers/lpg/src/pm_lpg_driver.c 0x00000000   Number         0  pm_lpg_driver.o ABSOLUTE
    /local/mnt/workspace/CRMBuilds/BOOT.BF.3.1.2.c3-00012-M8909WAAAANAZB-1_20161208_043404/b/boot_images/core/systemdrivers/pmic/drivers/mpp/src/pm_mpp.c 0x00000000   Number         0  pm_mpp.o ABSOLUTE
    /local/mnt/workspace/CRMBuilds/BOOT.BF.3.1.2.c3-00012-M8909WAAAANAZB-1_20161208_043404/b/boot_images/core/systemdrivers/pmic/drivers/mpp/src/pm_mpp_driver.c 0x00000000   Number         0  pm_mpp_driver.o ABSOLUTE
    /local/mnt/workspace/CRMBuilds/BOOT.BF.3.1.2.c3-00012-M8909WAAAANAZB-1_20161208_043404/b/boot_images/core/systemdrivers/pmic/drivers/pbs/src/pm_pbs_client_driver.c 0x00000000   Number         0  pm_pbs_client_driver.o ABSOLUTE
    /local/mnt/workspace/CRMBuilds/BOOT.BF.3.1.2.c3-00012-M8909WAAAANAZB-1_20161208_043404/b/boot_images/core/systemdrivers/pmic/drivers/pbs/src/pm_pbs_driver.c 0x00000000   Number         0  pm_pbs_driver.o ABSOLUTE
    /local/mnt/workspace/CRMBuilds/BOOT.BF.3.1.2.c3-00012-M8909WAAAANAZB-1_20161208_043404/b/boot_images/core/systemdrivers/pmic/drivers/pbs/src/pm_pbs_info.c 0x00000000   Number         0  pm_pbs_info.o ABSOLUTE
    /local/mnt/workspace/CRMBuilds/BOOT.BF.3.1.2.c3-00012-M8909WAAAANAZB-1_20161208_043404/b/boot_images/core/systemdrivers/pmic/drivers/pon/src/pm_pon.c 0x00000000   Number         0  pm_pon.o ABSOLUTE
    /local/mnt/workspace/CRMBuilds/BOOT.BF.3.1.2.c3-00012-M8909WAAAANAZB-1_20161208_043404/b/boot_images/core/systemdrivers/pmic/drivers/pwm/src/pm_pwm_driver.c 0x00000000   Number         0  pm_pwm_driver.o ABSOLUTE
    /local/mnt/workspace/CRMBuilds/BOOT.BF.3.1.2.c3-00012-M8909WAAAANAZB-1_20161208_043404/b/boot_images/core/systemdrivers/pmic/drivers/rgb/src/pm_rgb.c 0x00000000   Number         0  pm_rgb.o ABSOLUTE
    /local/mnt/workspace/CRMBuilds/BOOT.BF.3.1.2.c3-00012-M8909WAAAANAZB-1_20161208_043404/b/boot_images/core/systemdrivers/pmic/drivers/rgb/src/pm_rgb_driver.c 0x00000000   Number         0  pm_rgb_driver.o ABSOLUTE
    /local/mnt/workspace/CRMBuilds/BOOT.BF.3.1.2.c3-00012-M8909WAAAANAZB-1_20161208_043404/b/boot_images/core/systemdrivers/pmic/drivers/rtc/src/pm_rtc_driver.c 0x00000000   Number         0  pm_rtc_driver.o ABSOLUTE
    /local/mnt/workspace/CRMBuilds/BOOT.BF.3.1.2.c3-00012-M8909WAAAANAZB-1_20161208_043404/b/boot_images/core/systemdrivers/pmic/drivers/smb/src/pm_smb.c 0x00000000   Number         0  pm_smb.o ABSOLUTE
    /local/mnt/workspace/CRMBuilds/BOOT.BF.3.1.2.c3-00012-M8909WAAAANAZB-1_20161208_043404/b/boot_images/core/systemdrivers/pmic/drivers/smb/src/pm_smb_driver.c 0x00000000   Number         0  pm_smb_driver.o ABSOLUTE
    /local/mnt/workspace/CRMBuilds/BOOT.BF.3.1.2.c3-00012-M8909WAAAANAZB-1_20161208_043404/b/boot_images/core/systemdrivers/pmic/drivers/smbb/src/pm_smbb.c 0x00000000   Number         0  pm_smbb.o ABSOLUTE
    /local/mnt/workspace/CRMBuilds/BOOT.BF.3.1.2.c3-00012-M8909WAAAANAZB-1_20161208_043404/b/boot_images/core/systemdrivers/pmic/drivers/smbb/src/pm_smbb_driver.c 0x00000000   Number         0  pm_smbb_driver.o ABSOLUTE
    /local/mnt/workspace/CRMBuilds/BOOT.BF.3.1.2.c3-00012-M8909WAAAANAZB-1_20161208_043404/b/boot_images/core/systemdrivers/pmic/drivers/smps/src/pm_smps_driver.c 0x00000000   Number         0  pm_smps_driver.o ABSOLUTE
    /local/mnt/workspace/CRMBuilds/BOOT.BF.3.1.2.c3-00012-M8909WAAAANAZB-1_20161208_043404/b/boot_images/core/systemdrivers/pmic/drivers/vib/src/pm_vib_driver.c 0x00000000   Number         0  pm_vib_driver.o ABSOLUTE
    /local/mnt/workspace/CRMBuilds/BOOT.BF.3.1.2.c3-00012-M8909WAAAANAZB-1_20161208_043404/b/boot_images/core/systemdrivers/pmic/drivers/vs/src/pm_vs_driver.c 0x00000000   Number         0  pm_vs_driver.o ABSOLUTE
    /local/mnt/workspace/CRMBuilds/BOOT.BF.3.1.2.c3-00012-M8909WAAAANAZB-1_20161208_043404/b/boot_images/core/systemdrivers/pmic/drivers/wled/src/pm_wled_driver.c 0x00000000   Number         0  pm_wled_driver.o ABSOLUTE
    /local/mnt/workspace/CRMBuilds/BOOT.BF.3.1.2.c3-00012-M8909WAAAANAZB-1_20161208_043404/b/boot_images/core/systemdrivers/pmic/framework/src/pm_config_sbl.c 0x00000000   Number         0  pm_config_sbl.o ABSOLUTE
    /local/mnt/workspace/CRMBuilds/BOOT.BF.3.1.2.c3-00012-M8909WAAAANAZB-1_20161208_043404/b/boot_images/core/systemdrivers/pmic/framework/src/pm_init.c 0x00000000   Number         0  pm_init.o ABSOLUTE
    /local/mnt/workspace/CRMBuilds/BOOT.BF.3.1.2.c3-00012-M8909WAAAANAZB-1_20161208_043404/b/boot_images/core/systemdrivers/pmic/framework/src/pm_resource_manager.c 0x00000000   Number         0  pm_resource_manager.o ABSOLUTE
    /local/mnt/workspace/CRMBuilds/BOOT.BF.3.1.2.c3-00012-M8909WAAAANAZB-1_20161208_043404/b/boot_images/core/systemdrivers/pmic/framework/src/pm_sbl_smem.c 0x00000000   Number         0  pm_sbl_smem.o ABSOLUTE
    /local/mnt/workspace/CRMBuilds/BOOT.BF.3.1.2.c3-00012-M8909WAAAANAZB-1_20161208_043404/b/boot_images/core/systemdrivers/pmic/framework/src/pm_target_information.c 0x00000000   Number         0  pm_target_information.o ABSOLUTE
    /local/mnt/workspace/CRMBuilds/BOOT.BF.3.1.2.c3-00012-M8909WAAAANAZB-1_20161208_043404/b/boot_images/core/systemdrivers/pmic/framework/src/pm_utils.c 0x00000000   Number         0  pm_utils.o ABSOLUTE
    /local/mnt/workspace/CRMBuilds/BOOT.BF.3.1.2.c3-00012-M8909WAAAANAZB-1_20161208_043404/b/boot_images/core/systemdrivers/pmic/framework/src/pm_version.c 0x00000000   Number         0  pm_version.o ABSOLUTE
    /local/mnt/workspace/CRMBuilds/BOOT.BF.3.1.2.c3-00012-M8909WAAAANAZB-1_20161208_043404/b/boot_images/core/systemdrivers/pmic/target/msm8909_pm8909/system/src/pm_sbl_boot.c 0x00000000   Number         0  pm_sbl_boot.o ABSOLUTE
    /local/mnt/workspace/CRMBuilds/BOOT.BF.3.1.2.c3-00012-M8909WAAAANAZB-1_20161208_043404/b/boot_images/core/systemdrivers/tlmm/hw/v2/HALtlmm.c 0x00000000   Number         0  HALtlmm.o ABSOLUTE
    /local/mnt/workspace/CRMBuilds/BOOT.BF.3.1.2.c3-00012-M8909WAAAANAZB-1_20161208_043404/b/boot_images/core/systemdrivers/tlmm/src/DALTLMM.c 0x00000000   Number         0  DALTLMM.o ABSOLUTE
    /local/mnt/workspace/CRMBuilds/BOOT.BF.3.1.2.c3-00012-M8909WAAAANAZB-1_20161208_043404/b/boot_images/core/systemdrivers/tlmm/src/DALTLMMFwk.c 0x00000000   Number         0  DALTLMMFwk.o ABSOLUTE
    /local/mnt/workspace/CRMBuilds/BOOT.BF.3.1.2.c3-00012-M8909WAAAANAZB-1_20161208_043404/b/boot_images/core/systemdrivers/tlmm/src/DALTLMMInfo.c 0x00000000   Number         0  DALTLMMInfo.o ABSOLUTE
    /local/mnt/workspace/CRMBuilds/BOOT.BF.3.1.2.c3-00012-M8909WAAAANAZB-1_20161208_043404/b/boot_images/core/systemdrivers/tlmm/src/DALTLMMState.c 0x00000000   Number         0  DALTLMMState.o ABSOLUTE
    /local/mnt/workspace/CRMBuilds/BOOT.BF.3.1.2.c3-00012-M8909WAAAANAZB-1_20161208_043404/b/boot_images/core/wiredconnectivity/qhsusb/src/al/qhsusb_al_bulk.c 0x00000000   Number         0  qhsusb_al_bulk.o ABSOLUTE
    /local/mnt/workspace/CRMBuilds/BOOT.BF.3.1.2.c3-00012-M8909WAAAANAZB-1_20161208_043404/b/boot_images/core/wiredconnectivity/qhsusb/src/al/qhsusb_al_charger.c 0x00000000   Number         0  qhsusb_al_charger.o ABSOLUTE
    /local/mnt/workspace/CRMBuilds/BOOT.BF.3.1.2.c3-00012-M8909WAAAANAZB-1_20161208_043404/b/boot_images/core/wiredconnectivity/qhsusb/src/common/qhsusb_log.c 0x00000000   Number         0  qhsusb_log.o ABSOLUTE
    /local/mnt/workspace/CRMBuilds/BOOT.BF.3.1.2.c3-00012-M8909WAAAANAZB-1_20161208_043404/b/boot_images/core/wiredconnectivity/qhsusb/src/dcd/qhsusb_dcd_ch9.c 0x00000000   Number         0  qhsusb_dcd_ch9.o ABSOLUTE
    /local/mnt/workspace/CRMBuilds/BOOT.BF.3.1.2.c3-00012-M8909WAAAANAZB-1_20161208_043404/b/boot_images/core/wiredconnectivity/qhsusb/src/dci/qhsusb_dci.c 0x00000000   Number         0  qhsusb_dci.o ABSOLUTE
    /local/mnt/workspace/CRMBuilds/BOOT.BF.3.1.2.c3-00012-M8909WAAAANAZB-1_20161208_043404/b/boot_images/core/wiredconnectivity/qhsusb/src/dci/qhsusb_dci_8909.c 0x00000000   Number         0  qhsusb_dci_8909.o ABSOLUTE
    /local/mnt/workspace/CRMBuilds/BOOT.BF.3.1.2.c3-00012-M8909WAAAANAZB-1_20161208_043404/b/boot_images/core/wiredconnectivity/qhsusb/src/dci/qhsusb_dci_8909_hw_apis_sbl1.c 0x00000000   Number         0  qhsusb_dci_8909_hw_apis_sbl1.o ABSOLUTE
    /local/mnt/workspace/CRMBuilds/BOOT.BF.3.1.2.c3-00012-M8909WAAAANAZB-1_20161208_043404/b/boot_images/core/wiredconnectivity/qhsusb/src/func/qhsusb_boot_dload.c 0x00000000   Number         0  qhsusb_boot_dload.o ABSOLUTE
    /local/mnt/workspace/CRMBuilds/BOOT.BF.3.1.2.c3-00012-M8909WAAAANAZB-1_20161208_043404/b/boot_images/core/wiredconnectivity/qhsusb/src/func/qhsusb_fd_chg.c 0x00000000   Number         0  qhsusb_fd_chg.o ABSOLUTE
    /local/mnt/workspace/CRMBuilds/BOOT.BF.3.1.2.c3-00012-M8909WAAAANAZB-1_20161208_043404/b/boot_images/core/wiredconnectivity/qhsusb/src/func/qhsusb_fd_hdlc.c 0x00000000   Number         0  qhsusb_fd_hdlc.o ABSOLUTE
    dc.s                                     0x00000000   Number         0  dc.o ABSOLUTE
    SYSTEM_DEBUG_ENTRY                       0x00220000   Section      376  sys_debug.o(SYSTEM_DEBUG_ENTRY)
    $v0                                      0x00220000   Number         0  sys_debug.o(SYSTEM_DEBUG_ENTRY)
    i.Boot_ToggleClock                       0x00220178   Section        0  sys_debug_mc.o(i.Boot_ToggleClock)
    i.sys_debug_enable_clocks                0x002201a0   Section        0  sys_debug_mc.o(i.sys_debug_enable_clocks)
    i.sys_debug_main_ctl                     0x0022024c   Section        0  sys_debug_mc.o(i.sys_debug_main_ctl)
    BOOT_A53_ASM                             0x002202b8   Section       72  boot_a53_asm.o(BOOT_A53_ASM)
    $v0                                      0x002202b8   Number         0  boot_a53_asm.o(BOOT_A53_ASM)
    i.boot_hw_powerdown                      0x00220310   Section        0  boot_a53.o(i.boot_hw_powerdown)
    i.boot_hw_reset                          0x00220358   Section        0  boot_a53.o(i.boot_hw_reset)
    i.boot_switch_to_aarch64                 0x00220388   Section        0  boot_a53.o(i.boot_switch_to_aarch64)
    i.DDR_SYNC_INIT                          0x00220428   Section        0  ddr_sync.o(i.DDR_SYNC_INIT)
    i.DDR_SYNC_LOCK                          0x0022042a   Section        0  ddr_sync.o(i.DDR_SYNC_LOCK)
    i.DDR_SYNC_UNLOCK                        0x0022042c   Section        0  ddr_sync.o(i.DDR_SYNC_UNLOCK)
    i.HAL_SDRAM_AHB2PHY_Broadcast_Enable     0x00220430   Section        0  AHB2PHY.o(i.HAL_SDRAM_AHB2PHY_Broadcast_Enable)
    i.HAL_SDRAM_BIMC_Rank_Detection          0x002204ac   Section        0  BIMC_v1.o(i.HAL_SDRAM_BIMC_Rank_Detection)
    i.HAL_SDRAM_BIMC_Update_Clock_Period     0x00220550   Section        0  BIMC_v1.o(i.HAL_SDRAM_BIMC_Update_Clock_Period)
    i.HAL_SDRAM_DDR_Wait                     0x002205bc   Section        0  BIMC_v1.o(i.HAL_SDRAM_DDR_Wait)
    i.HAL_SDRAM_DPE_Disable_Power_Down       0x002205d0   Section        0  BIMC_DPE_v1.o(i.HAL_SDRAM_DPE_Disable_Power_Down)
    i.HAL_SDRAM_DPE_Force_Update_Latency     0x002205ec   Section        0  BIMC_DPE_v1.o(i.HAL_SDRAM_DPE_Force_Update_Latency)
    i.HAL_SDRAM_DPE_Init                     0x002206ac   Section        0  BIMC_DPE_v1.o(i.HAL_SDRAM_DPE_Init)
    i.HAL_SDRAM_DPE_Post_Clock_Switch        0x00220738   Section        0  BIMC_DPE_v1.o(i.HAL_SDRAM_DPE_Post_Clock_Switch)
    i.HAL_SDRAM_DPE_Pre_Clock_Switch         0x00220770   Section        0  BIMC_DPE_v1.o(i.HAL_SDRAM_DPE_Pre_Clock_Switch)
    i.HAL_SDRAM_DPE_Update_AC_Parameters     0x002207d4   Section        0  BIMC_DPE_v1.o(i.HAL_SDRAM_DPE_Update_AC_Parameters)
    i.HAL_SDRAM_DPE_Update_Latency           0x00220928   Section        0  BIMC_DPE_v1.o(i.HAL_SDRAM_DPE_Update_Latency)
    i.HAL_SDRAM_Enter_Deep_Power_Down        0x00220a14   Section        0  BIMC_v1.o(i.HAL_SDRAM_Enter_Deep_Power_Down)
    i.HAL_SDRAM_Enter_Self_Refresh           0x00220a2e   Section        0  BIMC_v1.o(i.HAL_SDRAM_Enter_Self_Refresh)
    i.HAL_SDRAM_Exit_Deep_Power_Down         0x00220a60   Section        0  BIMC_v1.o(i.HAL_SDRAM_Exit_Deep_Power_Down)
    i.HAL_SDRAM_Exit_Self_Refresh            0x00220a80   Section        0  BIMC_v1.o(i.HAL_SDRAM_Exit_Self_Refresh)
    i.HAL_SDRAM_Get_Base_Addr                0x00220aba   Section        0  BIMC_v1.o(i.HAL_SDRAM_Get_Base_Addr)
    i.HAL_SDRAM_Init                         0x00220b2c   Section        0  BIMC_v1.o(i.HAL_SDRAM_Init)
    i.HAL_SDRAM_PHY_Disable_CDC_Cal          0x00220ca8   Section        0  DDR_PHY.o(i.HAL_SDRAM_PHY_Disable_CDC_Cal)
    i.HAL_SDRAM_PHY_Disable_IO_Cal           0x00220d20   Section        0  DDR_PHY.o(i.HAL_SDRAM_PHY_Disable_IO_Cal)
    i.HAL_SDRAM_PHY_Disable_Rapid_CDC_Cal    0x00220d4c   Section        0  DDR_PHY.o(i.HAL_SDRAM_PHY_Disable_Rapid_CDC_Cal)
    i.HAL_SDRAM_PHY_Enable_CDC_Cal           0x00220de8   Section        0  DDR_PHY.o(i.HAL_SDRAM_PHY_Enable_CDC_Cal)
    i.HAL_SDRAM_PHY_Enable_IO_Cal            0x00220e34   Section        0  DDR_PHY.o(i.HAL_SDRAM_PHY_Enable_IO_Cal)
    i.HAL_SDRAM_PHY_Enable_Rapid_CDC_Cal     0x00220e54   Section        0  DDR_PHY.o(i.HAL_SDRAM_PHY_Enable_Rapid_CDC_Cal)
    i.HAL_SDRAM_PHY_Init                     0x00220ee8   Section        0  DDR_PHY.o(i.HAL_SDRAM_PHY_Init)
    i.HAL_SDRAM_PHY_Manual_CDC_Cal           0x00220fb4   Section        0  DDR_PHY.o(i.HAL_SDRAM_PHY_Manual_CDC_Cal)
    i.HAL_SDRAM_PHY_Manual_IO_Cal            0x00221070   Section        0  DDR_PHY.o(i.HAL_SDRAM_PHY_Manual_IO_Cal)
    i.HAL_SDRAM_PHY_Update_CDC_Config        0x002210d8   Section        0  DDR_PHY.o(i.HAL_SDRAM_PHY_Update_CDC_Config)
    i.HAL_SDRAM_PHY_Update_CDC_Delay_Target  0x00221120   Section        0  ddr_target.o(i.HAL_SDRAM_PHY_Update_CDC_Delay_Target)
    i.HAL_SDRAM_PHY_Update_Drive_Strength    0x00221190   Section        0  DDR_PHY.o(i.HAL_SDRAM_PHY_Update_Drive_Strength)
    i.HAL_SDRAM_RL                           0x002211d0   Section        0  BIMC_v1.o(i.HAL_SDRAM_RL)
    i.HAL_SDRAM_Ram_Size_Detection           0x00221260   Section        0  BIMC_v1.o(i.HAL_SDRAM_Ram_Size_Detection)
    i.HAL_SDRAM_Read_MR                      0x002213bc   Section        0  BIMC_SHKE_v1.o(i.HAL_SDRAM_Read_MR)
    i.HAL_SDRAM_SCMO_Init                    0x00221414   Section        0  BIMC_SCMO_v1.o(i.HAL_SDRAM_SCMO_Init)
    i.HAL_SDRAM_SCMO_Rank_Disable            0x00221614   Section        0  BIMC_SCMO_v1.o(i.HAL_SDRAM_SCMO_Rank_Disable)
    i.HAL_SDRAM_SCMO_Rank_Enable             0x0022166c   Section        0  BIMC_SCMO_v1.o(i.HAL_SDRAM_SCMO_Rank_Enable)
    i.HAL_SDRAM_SHKE_DPD_Enter               0x0022169c   Section        0  BIMC_SHKE_v1.o(i.HAL_SDRAM_SHKE_DPD_Enter)
    i.HAL_SDRAM_SHKE_DPD_Exit                0x0022173c   Section        0  BIMC_SHKE_v1.o(i.HAL_SDRAM_SHKE_DPD_Exit)
    i.HAL_SDRAM_SHKE_Device_Init             0x00221784   Section        0  BIMC_SHKE_v1.o(i.HAL_SDRAM_SHKE_Device_Init)
    i.HAL_SDRAM_SHKE_Disable_Auto_Refresh    0x0022199c   Section        0  BIMC_SHKE_v1.o(i.HAL_SDRAM_SHKE_Disable_Auto_Refresh)
    i.HAL_SDRAM_SHKE_Disable_HW_Self_Refresh 0x002219d0   Section        0  BIMC_SHKE_v1.o(i.HAL_SDRAM_SHKE_Disable_HW_Self_Refresh)
    i.HAL_SDRAM_SHKE_Disable_Periodic_SRR    0x00221a04   Section        0  BIMC_SHKE_v1.o(i.HAL_SDRAM_SHKE_Disable_Periodic_SRR)
    i.HAL_SDRAM_SHKE_Disable_ZQCAL           0x00221a20   Section        0  BIMC_SHKE_v1.o(i.HAL_SDRAM_SHKE_Disable_ZQCAL)
    i.HAL_SDRAM_SHKE_Enable_Auto_Refresh     0x00221a3c   Section        0  BIMC_SHKE_v1.o(i.HAL_SDRAM_SHKE_Enable_Auto_Refresh)
    i.HAL_SDRAM_SHKE_Enable_HW_Self_Refresh  0x00221a70   Section        0  BIMC_SHKE_v1.o(i.HAL_SDRAM_SHKE_Enable_HW_Self_Refresh)
    i.HAL_SDRAM_SHKE_Enable_Periodic_SRR     0x00221aa4   Section        0  BIMC_SHKE_v1.o(i.HAL_SDRAM_SHKE_Enable_Periodic_SRR)
    i.HAL_SDRAM_SHKE_Enable_ZQCAL            0x00221ac0   Section        0  BIMC_SHKE_v1.o(i.HAL_SDRAM_SHKE_Enable_ZQCAL)
    i.HAL_SDRAM_SHKE_Enter_Self_Refresh      0x00221adc   Section        0  BIMC_SHKE_v1.o(i.HAL_SDRAM_SHKE_Enter_Self_Refresh)
    i.HAL_SDRAM_SHKE_Exit_Self_Refresh       0x00221b20   Section        0  BIMC_SHKE_v1.o(i.HAL_SDRAM_SHKE_Exit_Self_Refresh)
    i.HAL_SDRAM_SHKE_Init                    0x00221b64   Section        0  BIMC_SHKE_v1.o(i.HAL_SDRAM_SHKE_Init)
    i.HAL_SDRAM_WL                           0x00221bc0   Section        0  BIMC_v1.o(i.HAL_SDRAM_WL)
    i.HAL_SDRAM_Write_MR                     0x00221c18   Section        0  BIMC_SHKE_v1.o(i.HAL_SDRAM_Write_MR)
    i.HAL_bimc_GetSlaveSegment               0x00221c78   Section        0  HALbimc.o(i.HAL_bimc_GetSlaveSegment)
    i.HAL_bimc_Init                          0x00221c92   Section        0  HALbimc.o(i.HAL_bimc_Init)
    i.HAL_bimc_SetSlaveSegment               0x00221c9c   Section        0  HALbimc.o(i.HAL_bimc_SetSlaveSegment)
    i.bimc_GetSlaveSegment                   0x00221cb8   Section        0  HALbimcImpl.o(i.bimc_GetSlaveSegment)
    i.bimc_Init                              0x00221dd0   Section        0  HALbimcImpl.o(i.bimc_Init)
    i.bimc_SetSlaveSegment                   0x00221dfc   Section        0  HALbimcImpl.o(i.bimc_SetSlaveSegment)
    i.boot_ddr_do_ddr_training               0x00221ecc   Section        0  boot_extern_ddr_interface.o(i.boot_ddr_do_ddr_training)
    i.boot_ddr_get_info                      0x00221ed0   Section        0  boot_extern_ddr_interface.o(i.boot_ddr_get_info)
    i.boot_ddr_get_partition                 0x00221ed4   Section        0  boot_extern_ddr_interface.o(i.boot_ddr_get_partition)
    i.boot_ddr_get_size                      0x00221ed8   Section        0  boot_extern_ddr_interface.o(i.boot_ddr_get_size)
    i.boot_ddr_initialize_device             0x00221edc   Section        0  boot_extern_ddr_interface.o(i.boot_ddr_initialize_device)
    i.boot_ddr_params_get_training_data      0x00221ee0   Section        0  boot_extern_ddr_interface.o(i.boot_ddr_params_get_training_data)
    i.boot_ddr_params_is_training_required   0x00221ee4   Section        0  boot_extern_ddr_interface.o(i.boot_ddr_params_is_training_required)
    i.boot_ddr_params_set_training_data      0x00221ee8   Section        0  boot_extern_ddr_interface.o(i.boot_ddr_params_set_training_data)
    i.boot_ddr_post_init                     0x00221eec   Section        0  boot_extern_ddr_interface.o(i.boot_ddr_post_init)
    i.boot_ddr_restore_from_wdog_reset       0x00221ef0   Section        0  boot_extern_ddr_interface.o(i.boot_ddr_restore_from_wdog_reset)
    i.boot_ddr_set_params                    0x00221ef4   Section        0  boot_extern_ddr_interface.o(i.boot_ddr_set_params)
    i.boot_ddr_test                          0x00221ef8   Section        0  boot_extern_ddr_interface.o(i.boot_ddr_test)
    i.ddr_busywait                           0x00221fd8   Section        0  ddr_target.o(i.ddr_busywait)
    i.ddr_busywait_init                      0x00221ff8   Section        0  ddr_target.o(i.ddr_busywait_init)
    i.ddr_divide_func                        0x00222018   Section        0  BIMC_v1.o(i.ddr_divide_func)
    i.ddr_do_phy_training                    0x00222028   Section        0  ddr_target.o(i.ddr_do_phy_training)
    i.ddr_enter_deep_power_down              0x0022202c   Section        0  ddr_drivers.o(i.ddr_enter_deep_power_down)
    i.ddr_enter_self_refresh                 0x00222098   Section        0  ddr_drivers.o(i.ddr_enter_self_refresh)
    i.ddr_exit_deep_power_down               0x00222108   Section        0  ddr_drivers.o(i.ddr_exit_deep_power_down)
    i.ddr_exit_self_refresh                  0x00222178   Section        0  ddr_drivers.o(i.ddr_exit_self_refresh)
    i.ddr_get_info                           0x002221e8   Section        0  ddr_drivers.o(i.ddr_get_info)
    i.ddr_get_params                         0x00222320   Section        0  ddr_params.o(i.ddr_get_params)
    i.ddr_get_partition                      0x0022235c   Section        0  ddr_drivers.o(i.ddr_get_partition)
    i.ddr_get_shared_header                  0x002223dc   Section        0  ddr_params.o(i.ddr_get_shared_header)
    i.ddr_get_size                           0x002223e8   Section        0  ddr_drivers.o(i.ddr_get_size)
    i.ddr_init                               0x00222424   Section        0  ddr_drivers.o(i.ddr_init)
    i.ddr_initialize_device                  0x0022246c   Section        0  ddr_drivers.o(i.ddr_initialize_device)
    i.ddr_param_interleaved                  0x002224ec   Section        0  ddr_params.o(i.ddr_param_interleaved)
    i.ddr_params_detection                   0x002224f8   Section        0  ddr_params.o(i.ddr_params_detection)
    i.ddr_params_get_training_data           0x00222584   Section        0  ddr_params.o(i.ddr_params_get_training_data)
    i.ddr_params_is_training_required        0x00222594   Section        0  ddr_target.o(i.ddr_params_is_training_required)
    i.ddr_params_set_shared_memory           0x00222598   Section        0  ddr_params.o(i.ddr_params_set_shared_memory)
    i.ddr_params_set_training_data           0x002225f0   Section        0  ddr_params.o(i.ddr_params_set_training_data)
    i.ddr_post_init                          0x00222620   Section        0  ddr_target.o(i.ddr_post_init)
    i.ddr_restore_from_wdog_reset            0x00222624   Section        0  ddr_target.o(i.ddr_restore_from_wdog_reset)
    i.ddr_restore_param_wdog_reset           0x002226c0   Section        0  ddr_params.o(i.ddr_restore_param_wdog_reset)
    i.ddr_set_config                         0x002226e8   Section        0  ddr_config.o(i.ddr_set_config)
    i.ddr_set_params                         0x00222720   Section        0  ddr_params.o(i.ddr_set_params)
    i.ddr_target_init                        0x0022277c   Section        0  ddr_target.o(i.ddr_target_init)
    .constdata                               0x00222894   Section       32  boot_extern_ddr_interface.o(.constdata)
    .data                                    0x00223000   Section       24  boot_extern_ddr_interface.o(.data)
    is_dcache_on                             0x00223000   Data           1  boot_extern_ddr_interface.o(.data)
    is_test_all                              0x00223001   Data           1  boot_extern_ddr_interface.o(.data)
    test_suite                               0x00223004   Data           4  boot_extern_ddr_interface.o(.data)
    test_level                               0x00223008   Data           4  boot_extern_ddr_interface.o(.data)
    interface                                0x0022300c   Data           4  boot_extern_ddr_interface.o(.data)
    chip_select                              0x00223010   Data           4  boot_extern_ddr_interface.o(.data)
    test_iterations                          0x00223014   Data           4  boot_extern_ddr_interface.o(.data)
    .data                                    0x00223018   Section       12  ddr_drivers.o(.data)
    ddr_csel_ch0                             0x0022301c   Data           4  ddr_drivers.o(.data)
    ddr_csel_ch1                             0x00223020   Data           4  ddr_drivers.o(.data)
    .data                                    0x00223024   Section       36  ddr_params.o(.data)
    ddr_device_table                         0x00223024   Data           4  ddr_params.o(.data)
    ddr_shared_header                        0x00223028   Data           4  ddr_params.o(.data)
    shared_ddr_device_table                  0x0022302c   Data           4  ddr_params.o(.data)
    ddr_device_table_entry_num               0x00223030   Data           4  ddr_params.o(.data)
    ddr_device_table_entry_size              0x00223034   Data           4  ddr_params.o(.data)
    ddr_device_params_ch0                    0x00223038   Data           4  ddr_params.o(.data)
    ddr_device_params_ch1                    0x0022303c   Data           4  ddr_params.o(.data)
    ddr_interleaved                          0x00223040   Data           4  ddr_params.o(.data)
    ddr_params_training_data                 0x00223044   Data           4  ddr_params.o(.data)
    .data                                    0x00223048   Section       64  ddr_target.o(.data)
    .data                                    0x00223088   Section      784  ddr_config.o(.data)
    .data                                    0x00223398   Section       88  ddr_config.o(.data)
    .data                                    0x002233f0   Section      192  ddr_config.o(.data)
    .data                                    0x002234b0   Section      184  ddr_config.o(.data)
    .data                                    0x00223568   Section      136  ddr_config.o(.data)
    .data                                    0x002235f0   Section        8  ddr_config.o(.data)
    .data                                    0x002235f8   Section       16  ddr_config.o(.data)
    .data                                    0x00223608   Section        8  ddr_config.o(.data)
    .data                                    0x00223610   Section        4  ddr_config.o(.data)
    .data                                    0x00223614   Section        4  ddr_config.o(.data)
    .data                                    0x00223618   Section        4  ddr_config.o(.data)
    .data                                    0x0022361c   Section        4  ddr_config.o(.data)
    .data                                    0x00223620   Section        4  ddr_config.o(.data)
    .data                                    0x00223624   Section        4  ddr_config.o(.data)
    .data                                    0x00223628   Section        4  ddr_config.o(.data)
    .data                                    0x0022362c   Section        4  ddr_config.o(.data)
    SYSTEM_DEBUG_DATA                        0x00223630   Section      788  sys_debug.o(SYSTEM_DEBUG_DATA)
    sys_debug_cpu_ctxt_base                  0x00223630   Data         512  sys_debug.o(SYSTEM_DEBUG_DATA)
    sys_debug_cpu_stack_top                  0x00223940   Data           4  sys_debug.o(SYSTEM_DEBUG_DATA)
    .bss                                     0x00223944   Section       28  ddr_drivers.o(.bss)
    ddr_func_ptr                             0x00223960   Section       56  ddr_target.o(ddr_func_ptr)
    SBL1_VECTORS                             0x08005800   Section       32  sbl1.o(SBL1_VECTORS)
    $v0                                      0x08005800   Number         0  sbl1.o(SBL1_VECTORS)
    .ARM.Collect$$_printf_percent$$00000000  0x08005820   Section        0  _printf_percent.o(.ARM.Collect$$_printf_percent$$00000000)
    .ARM.Collect$$_printf_percent$$00000009  0x08005820   Section        6  _printf_d.o(.ARM.Collect$$_printf_percent$$00000009)
    .ARM.Collect$$_printf_percent$$0000000A  0x08005826   Section        6  _printf_u.o(.ARM.Collect$$_printf_percent$$0000000A)
    .ARM.Collect$$_printf_percent$$0000000C  0x0800582c   Section        6  _printf_x.o(.ARM.Collect$$_printf_percent$$0000000C)
    .ARM.Collect$$_printf_percent$$00000014  0x08005832   Section        6  _printf_s.o(.ARM.Collect$$_printf_percent$$00000014)
    .ARM.Collect$$_printf_percent$$00000017  0x08005838   Section        4  _printf_percent_end.o(.ARM.Collect$$_printf_percent$$00000017)
    .text                                    0x0800583c   Section      816  lludiv5.o(.text)
    .text                                    0x08005b6c   Section       38  llshl.o(.text)
    .text                                    0x08005b94   Section        0  __2snprintf.o(.text)
    .text                                    0x08005bcc   Section        0  _printf_pad.o(.text)
    .text                                    0x08005c1e   Section        0  _printf_str.o(.text)
    .text                                    0x08005c70   Section        0  _printf_dec.o(.text)
    .text                                    0x08005ce4   Section        0  _printf_hex_int.o(.text)
    .text                                    0x08005d40   Section        0  __printf_flags_ss_wp.o(.text)
    .text                                    0x08005ecc   Section        0  abort.o(.text)
    .text                                    0x08005edc   Section        0  strchr.o(.text)
    .text                                    0x08005ef0   Section        0  memcmp.o(.text)
    .text                                    0x08005f48   Section        0  strlen.o(.text)
    .text                                    0x08005f84   Section        0  strncmp.o(.text)
    .text                                    0x08006074   Section       12  memcpy.o(.text)
    .text                                    0x08006080   Section      212  rt_memcpy.o(.text)
    .text                                    0x08006154   Section      212  rt_memmove.o(.text)
    .text                                    0x08006228   Section      100  rt_memcpy_w.o(.text)
    .text                                    0x0800628c   Section      128  rt_memmove_w.o(.text)
    .text                                    0x0800630c   Section       22  memset.o(.text)
    .text                                    0x08006322   Section       16  aeabi_memset.o(.text)
    .text                                    0x08006332   Section       68  rt_memclr.o(.text)
    .text                                    0x08006376   Section       78  rt_memclr_w.o(.text)
    .text                                    0x080063c4   Section      160  strcmp.o(.text)
    .text                                    0x08006464   Section       22  uread4.o(.text)
    .text                                    0x0800647a   Section       22  uwrite4.o(.text)
    .text                                    0x08006490   Section        0  sys_exit.o(.text)
    .text                                    0x0800649c   Section        4  aeabi_ldiv0_sigfpe.o(.text)
    .text                                    0x080064a0   Section        0  _printf_intcommon.o(.text)
    .text                                    0x08006558   Section        0  _printf_char_common.o(.text)
    _printf_input_char                       0x08006559   Thumb Code    10  _printf_char_common.o(.text)
    .text                                    0x08006588   Section        0  _sputc.o(.text)
    .text                                    0x08006592   Section        0  _snputc.o(.text)
    .text                                    0x080065a2   Section        0  _printf_char.o(.text)
    .text                                    0x080065ce   Section        0  defsig_abrt_formal.o(.text)
    .text                                    0x080065d8   Section       44  rtudiv10.o(.text)
    .text                                    0x08006604   Section        2  use_no_semi.o(.text)
    .text                                    0x08006606   Section       10  rt_div0.o(.text)
    .text                                    0x08006606   Section        0  indicate_semi.o(.text)
    .text                                    0x08006610   Section        0  defsig_fpe_formal.o(.text)
    APT_ASM                                  0x08006618   Section       20  boot_apt_test_asm.o(APT_ASM)
    $v0                                      0x08006618   Number         0  boot_apt_test_asm.o(APT_ASM)
    ARM_MMU                                  0x08006630   Section      980  boot_armv7_mmu.o(ARM_MMU)
    $v0                                      0x08006630   Number         0  boot_armv7_mmu.o(ARM_MMU)
    BOOT_UTIL_ASM                            0x08006a08   Section      252  boot_util_asm.o(BOOT_UTIL_ASM)
    $v0                                      0x08006a08   Number         0  boot_util_asm.o(BOOT_UTIL_ASM)
    FLASH_UTIL_ASM                           0x08006b04   Section       84  flash_hal_util_asm.o(FLASH_UTIL_ASM)
    $v0                                      0x08006b04   Number         0  flash_hal_util_asm.o(FLASH_UTIL_ASM)
    SBL1_ENTRY                               0x08006b60   Section      672  sbl1.o(SBL1_ENTRY)
    $v0                                      0x08006b60   Number         0  sbl1.o(SBL1_ENTRY)
    sbl1_undefined_instruction_nested_handler 0x08006d60   ARM Code       0  sbl1.o(SBL1_ENTRY)
    sbl1_prefetch_abort_nested_handler       0x08006d68   ARM Code       0  sbl1.o(SBL1_ENTRY)
    sbl1_data_abort_nested_handler           0x08006d70   ARM Code       0  sbl1.o(SBL1_ENTRY)
    TZBSP_MEMZI                              0x08006e00   Section      128  seccfg_memzi.o(TZBSP_MEMZI)
    $v0                                      0x08006e00   Number         0  seccfg_memzi.o(TZBSP_MEMZI)
    $Ven$AA$L$$                              0x08006e80   ARM Code       8  anon$$obj.o(Veneer$$Code)
    i.AdcBoot_GetChannel                     0x08006f68   Section        0  AdcBoot.o(i.AdcBoot_GetChannel)
    i.AdcBoot_Init                           0x08006fb4   Section        0  AdcBoot.o(i.AdcBoot_Init)
    i.AdcBoot_Read                           0x080070ec   Section        0  AdcBoot.o(i.AdcBoot_Read)
    i.AdcMapLinearInt32toInt32               0x08007178   Section        0  AdcScalingUtil.o(i.AdcMapLinearInt32toInt32)
    i.BootTempCheck                          0x08007204   Section        0  BootTempCheck.o(i.BootTempCheck)
    i.CeCLIOCtlCipherRegXfer                 0x08007294   Section        0  CeCL.o(i.CeCLIOCtlCipherRegXfer)
    i.CeCLIOCtlGetCipherCntx                 0x08007348   Section        0  CeCL.o(i.CeCLIOCtlGetCipherCntx)
    i.CeCLIOCtlGetHashCntx                   0x0800738c   Section        0  CeCL.o(i.CeCLIOCtlGetHashCntx)
    i.CeCLIOCtlHashRegXfer                   0x080073fc   Section        0  CeCL.o(i.CeCLIOCtlHashRegXfer)
    i.CeCLIOCtlSetCipherCntx                 0x080074f8   Section        0  CeCL.o(i.CeCLIOCtlSetCipherCntx)
    i.CeCLIOCtlSetHashCntx                   0x08007630   Section        0  CeCL.o(i.CeCLIOCtlSetHashCntx)
    i.CeClClockDisable                       0x08007724   Section        0  CeCL_Ce0.o(i.CeClClockDisable)
    i.CeClClockEnable                        0x08007728   Section        0  CeCL_Ce0.o(i.CeClClockEnable)
    i.CeClIOCtlCipher                        0x0800772c   Section        0  CeCL.o(i.CeClIOCtlCipher)
    i.CeClIOCtlHash                          0x0800778e   Section        0  CeCL.o(i.CeClIOCtlHash)
    i.CeClInit                               0x080077f0   Section        0  CeCL.o(i.CeClInit)
    i.CeELCipherRegXfer                      0x08007824   Section        0  CeEL_Reg.o(i.CeELCipherRegXfer)
    i.CeELHashRegXfer                        0x0800784c   Section        0  CeEL_Reg.o(i.CeELHashRegXfer)
    i.CeElBamXferFunction                    0x0800786e   Section        0  CeEL.o(i.CeElBamXferFunction)
    i.CeElDisableClock                       0x08007872   Section        0  CeEL.o(i.CeElDisableClock)
    i.CeElEnableClock                        0x08007876   Section        0  CeEL.o(i.CeElEnableClock)
    i.CeElGetXferModeList                    0x0800787a   Section        0  CeEL.o(i.CeElGetXferModeList)
    i.CeElGetXferfunction                    0x08007884   Section        0  CeEL.o(i.CeElGetXferfunction)
    i.CeElInit                               0x080078a4   Section        0  CeEL.o(i.CeElInit)
    i.CeElMemcpy                             0x080078a8   Section        0  CeEL.o(i.CeElMemcpy)
    i.CeElMemoryBarrier                      0x080078b2   Section        0  CeEL.o(i.CeElMemoryBarrier)
    i.CeElMemset                             0x080078bc   Section        0  CeEL.o(i.CeElMemset)
    i.CeElRegXferFunction                    0x080078cc   Section        0  CeEL.o(i.CeElRegXferFunction)
    i.CeElfree                               0x0800794c   Section        0  CeEL.o(i.CeElfree)
    i.CeElfree_Env                           0x08007958   Section        0  CeEL_Env.o(i.CeElfree_Env)
    i.CeElmalloc                             0x0800797c   Section        0  CeEL.o(i.CeElmalloc)
    i.CeElmalloc_Env                         0x08007988   Section        0  CeEL_Env.o(i.CeElmalloc_Env)
    i.CeMLDeInit                             0x080079d8   Section        0  CeML.o(i.CeMLDeInit)
    i.CeMLHashAtomic                         0x080079dc   Section        0  CeML.o(i.CeMLHashAtomic)
    i.CeMLHashDeInit                         0x08007aac   Section        0  CeML.o(i.CeMLHashDeInit)
    i.CeMLHashFinal                          0x08007ad8   Section        0  CeML.o(i.CeMLHashFinal)
    i.CeMLHashInit                           0x08007c28   Section        0  CeML.o(i.CeMLHashInit)
    i.CeMLHashUpdate                         0x08007d9c   Section        0  CeML.o(i.CeMLHashUpdate)
    i.CeMLInit                               0x08008088   Section        0  CeML.o(i.CeMLInit)
    i.CeMlHashUpdate                         0x080080bc   Section        0  CeML.o(i.CeMlHashUpdate)
    i.ChipInfo_Close                         0x080081b4   Section        0  DalChipInfo.o(i.ChipInfo_Close)
    i.ChipInfo_DalChipInfo_Attach            0x080081b8   Section        0  DalChipInfoFwk.o(i.ChipInfo_DalChipInfo_Attach)
    i.ChipInfo_DalChipInfo_Close             0x080081f8   Section        0  DalChipInfoFwk.o(i.ChipInfo_DalChipInfo_Close)
    ChipInfo_DalChipInfo_Close               0x080081f9   Thumb Code     6  DalChipInfoFwk.o(i.ChipInfo_DalChipInfo_Close)
    i.ChipInfo_DalChipInfo_DeInit            0x080081fe   Section        0  DalChipInfoFwk.o(i.ChipInfo_DalChipInfo_DeInit)
    ChipInfo_DalChipInfo_DeInit              0x080081ff   Thumb Code     6  DalChipInfoFwk.o(i.ChipInfo_DalChipInfo_DeInit)
    i.ChipInfo_DalChipInfo_Detach            0x08008204   Section        0  DalChipInfoFwk.o(i.ChipInfo_DalChipInfo_Detach)
    ChipInfo_DalChipInfo_Detach              0x08008205   Thumb Code     6  DalChipInfoFwk.o(i.ChipInfo_DalChipInfo_Detach)
    i.ChipInfo_DalChipInfo_GetChipFamily     0x0800820a   Section        0  DalChipInfoFwk.o(i.ChipInfo_DalChipInfo_GetChipFamily)
    ChipInfo_DalChipInfo_GetChipFamily       0x0800820b   Thumb Code     6  DalChipInfoFwk.o(i.ChipInfo_DalChipInfo_GetChipFamily)
    i.ChipInfo_DalChipInfo_GetChipId         0x08008210   Section        0  DalChipInfoFwk.o(i.ChipInfo_DalChipInfo_GetChipId)
    ChipInfo_DalChipInfo_GetChipId           0x08008211   Thumb Code     6  DalChipInfoFwk.o(i.ChipInfo_DalChipInfo_GetChipId)
    i.ChipInfo_DalChipInfo_GetChipIdString   0x08008216   Section        0  DalChipInfoFwk.o(i.ChipInfo_DalChipInfo_GetChipIdString)
    ChipInfo_DalChipInfo_GetChipIdString     0x08008217   Thumb Code     6  DalChipInfoFwk.o(i.ChipInfo_DalChipInfo_GetChipIdString)
    i.ChipInfo_DalChipInfo_GetChipVersion    0x0800821c   Section        0  DalChipInfoFwk.o(i.ChipInfo_DalChipInfo_GetChipVersion)
    ChipInfo_DalChipInfo_GetChipVersion      0x0800821d   Thumb Code     6  DalChipInfoFwk.o(i.ChipInfo_DalChipInfo_GetChipVersion)
    i.ChipInfo_DalChipInfo_GetFoundryId      0x08008222   Section        0  DalChipInfoFwk.o(i.ChipInfo_DalChipInfo_GetFoundryId)
    ChipInfo_DalChipInfo_GetFoundryId        0x08008223   Thumb Code     6  DalChipInfoFwk.o(i.ChipInfo_DalChipInfo_GetFoundryId)
    i.ChipInfo_DalChipInfo_GetModemSupport   0x08008228   Section        0  DalChipInfoFwk.o(i.ChipInfo_DalChipInfo_GetModemSupport)
    ChipInfo_DalChipInfo_GetModemSupport     0x08008229   Thumb Code     6  DalChipInfoFwk.o(i.ChipInfo_DalChipInfo_GetModemSupport)
    i.ChipInfo_DalChipInfo_GetRawChipId      0x0800822e   Section        0  DalChipInfoFwk.o(i.ChipInfo_DalChipInfo_GetRawChipId)
    ChipInfo_DalChipInfo_GetRawChipId        0x0800822f   Thumb Code     6  DalChipInfoFwk.o(i.ChipInfo_DalChipInfo_GetRawChipId)
    i.ChipInfo_DalChipInfo_GetRawChipVersion 0x08008234   Section        0  DalChipInfoFwk.o(i.ChipInfo_DalChipInfo_GetRawChipVersion)
    ChipInfo_DalChipInfo_GetRawChipVersion   0x08008235   Thumb Code     6  DalChipInfoFwk.o(i.ChipInfo_DalChipInfo_GetRawChipVersion)
    i.ChipInfo_DalChipInfo_GetSerialNumber   0x0800823a   Section        0  DalChipInfoFwk.o(i.ChipInfo_DalChipInfo_GetSerialNumber)
    ChipInfo_DalChipInfo_GetSerialNumber     0x0800823b   Thumb Code     6  DalChipInfoFwk.o(i.ChipInfo_DalChipInfo_GetSerialNumber)
    i.ChipInfo_DalChipInfo_Info              0x08008240   Section        0  DalChipInfoFwk.o(i.ChipInfo_DalChipInfo_Info)
    ChipInfo_DalChipInfo_Info                0x08008241   Thumb Code    12  DalChipInfoFwk.o(i.ChipInfo_DalChipInfo_Info)
    i.ChipInfo_DalChipInfo_Init              0x0800824c   Section        0  DalChipInfoFwk.o(i.ChipInfo_DalChipInfo_Init)
    ChipInfo_DalChipInfo_Init                0x0800824d   Thumb Code    28  DalChipInfoFwk.o(i.ChipInfo_DalChipInfo_Init)
    i.ChipInfo_DalChipInfo_Open              0x08008268   Section        0  DalChipInfoFwk.o(i.ChipInfo_DalChipInfo_Open)
    ChipInfo_DalChipInfo_Open                0x08008269   Thumb Code     6  DalChipInfoFwk.o(i.ChipInfo_DalChipInfo_Open)
    i.ChipInfo_DalChipInfo_PowerEvent        0x0800826e   Section        0  DalChipInfoFwk.o(i.ChipInfo_DalChipInfo_PowerEvent)
    ChipInfo_DalChipInfo_PowerEvent          0x0800826f   Thumb Code     6  DalChipInfoFwk.o(i.ChipInfo_DalChipInfo_PowerEvent)
    i.ChipInfo_DalChipInfo_SysRequest        0x08008274   Section        0  DalChipInfoFwk.o(i.ChipInfo_DalChipInfo_SysRequest)
    ChipInfo_DalChipInfo_SysRequest          0x08008275   Thumb Code     6  DalChipInfoFwk.o(i.ChipInfo_DalChipInfo_SysRequest)
    i.ChipInfo_DeviceDeInit                  0x0800827a   Section        0  DalChipInfo.o(i.ChipInfo_DeviceDeInit)
    i.ChipInfo_DeviceInit                    0x0800827e   Section        0  DalChipInfo.o(i.ChipInfo_DeviceInit)
    i.ChipInfo_DriverDeInit                  0x08008282   Section        0  DalChipInfoLocal.o(i.ChipInfo_DriverDeInit)
    i.ChipInfo_DriverInit                    0x08008298   Section        0  DalChipInfoLocal.o(i.ChipInfo_DriverInit)
    i.ChipInfo_GetChipFamily                 0x080084e0   Section        0  DalChipInfo.o(i.ChipInfo_GetChipFamily)
    i.ChipInfo_GetChipId                     0x080084ec   Section        0  DalChipInfo.o(i.ChipInfo_GetChipId)
    i.ChipInfo_GetChipIdString               0x080084f8   Section        0  DalChipInfo.o(i.ChipInfo_GetChipIdString)
    i.ChipInfo_GetChipVersion                0x0800850c   Section        0  DalChipInfo.o(i.ChipInfo_GetChipVersion)
    i.ChipInfo_GetFamily                     0x08008518   Section        0  DalChipInfoLocal.o(i.ChipInfo_GetFamily)
    i.ChipInfo_GetFamilyByPart               0x08008564   Section        0  DalChipInfoLocal.o(i.ChipInfo_GetFamilyByPart)
    i.ChipInfo_GetFoundry                    0x080085ac   Section        0  DalChipInfoLocal.o(i.ChipInfo_GetFoundry)
    i.ChipInfo_GetFoundryId                  0x08008604   Section        0  DalChipInfo.o(i.ChipInfo_GetFoundryId)
    i.ChipInfo_GetModemSupport               0x08008610   Section        0  DalChipInfo.o(i.ChipInfo_GetModemSupport)
    i.ChipInfo_GetPart                       0x08008620   Section        0  DalChipInfoLocal.o(i.ChipInfo_GetPart)
    i.ChipInfo_GetRawChipId                  0x08008658   Section        0  DalChipInfo.o(i.ChipInfo_GetRawChipId)
    i.ChipInfo_GetRawChipVersion             0x08008666   Section        0  DalChipInfo.o(i.ChipInfo_GetRawChipVersion)
    i.ChipInfo_GetRawPart                    0x08008674   Section        0  DalChipInfoLocal.o(i.ChipInfo_GetRawPart)
    i.ChipInfo_GetRawVersion                 0x080086c0   Section        0  DalChipInfoLocal.o(i.ChipInfo_GetRawVersion)
    i.ChipInfo_GetSerialNumber               0x0800870c   Section        0  DalChipInfo.o(i.ChipInfo_GetSerialNumber)
    i.ChipInfo_GetVersion                    0x0800871c   Section        0  DalChipInfoLocal.o(i.ChipInfo_GetVersion)
    i.ChipInfo_Info                          0x080087c8   Section        0  DalChipInfo.o(i.ChipInfo_Info)
    i.ChipInfo_Open                          0x080087cc   Section        0  DalChipInfo.o(i.ChipInfo_Open)
    i.ChipInfo_PowerEvent                    0x080087d0   Section        0  DalChipInfo.o(i.ChipInfo_PowerEvent)
    i.Clock_BIMCConfigFSM                    0x080087d4   Section        0  ClockSBL.o(i.Clock_BIMCConfigFSM)
    i.Clock_ConfigMux                        0x080087f4   Section        0  ClockSBLCommon.o(i.Clock_ConfigMux)
    i.Clock_ConfigurePLL                     0x08008878   Section        0  ClockSBLCommon.o(i.Clock_ConfigurePLL)
    i.Clock_ConfigureSource                  0x08008964   Section        0  ClockSBLConfig.o(i.Clock_ConfigureSource)
    i.Clock_DDRSpeed                         0x08008a2c   Section        0  ClockSBL.o(i.Clock_DDRSpeed)
    i.Clock_DebugInit                        0x08008a38   Section        0  ClockSBL.o(i.Clock_DebugInit)
    i.Clock_DisableI2CClock                  0x08008a6c   Section        0  ClockSBL.o(i.Clock_DisableI2CClock)
    i.Clock_DisableUARTClock                 0x08008a8c   Section        0  ClockSBL.o(i.Clock_DisableUARTClock)
    i.Clock_DisableUSB                       0x08008ab4   Section        0  ClockTools.o(i.Clock_DisableUSB)
    i.Clock_EnablePLL                        0x08008b04   Section        0  ClockSBLCommon.o(i.Clock_EnablePLL)
    i.Clock_EnableSource                     0x08008bd4   Section        0  ClockSBLConfig.o(i.Clock_EnableSource)
    i.Clock_ExitBoot                         0x08008c78   Section        0  ClockSBL.o(i.Clock_ExitBoot)
    i.Clock_ExtBuckGPIOMisc                  0x08008cc0   Section        0  ClockTLMMSpare.o(i.Clock_ExtBuckGPIOMisc)
    i.Clock_GetChipId                        0x08008d04   Section        0  ClockTLMMSpare.o(i.Clock_GetChipId)
    i.Clock_I2CInit                          0x08008d50   Section        0  ClockSBL.o(i.Clock_I2CInit)
    i.Clock_Init                             0x08008d54   Section        0  ClockSBL.o(i.Clock_Init)
    i.Clock_InitCrypto                       0x08008df0   Section        0  ClockSBL.o(i.Clock_InitCrypto)
    i.Clock_InitForDownloadMode              0x08008e3c   Section        0  ClockSBL.o(i.Clock_InitForDownloadMode)
    i.Clock_InitUSB                          0x08008ea8   Section        0  ClockTools.o(i.Clock_InitUSB)
    i.Clock_InitVotes                        0x08008ef4   Section        0  ClockSBL.o(i.Clock_InitVotes)
    i.Clock_PreDDRInit                       0x08008f38   Section        0  ClockSBL.o(i.Clock_PreDDRInit)
    i.Clock_PreDDRInitEx                     0x08008f3c   Section        0  ClockSBL.o(i.Clock_PreDDRInitEx)
    i.Clock_QPICConfig                       0x0800908c   Section        0  ClockSBL.o(i.Clock_QPICConfig)
    i.Clock_ReplaceUSBBootClockEnable        0x080090a8   Section        0  ClockSBL.o(i.Clock_ReplaceUSBBootClockEnable)
    i.Clock_SBLConfig                        0x080090e4   Section        0  ClockSBLConfig.o(i.Clock_SBLConfig)
    i.Clock_SetCPUPerfLevel                  0x080090ec   Section        0  ClockSBLCPU.o(i.Clock_SetCPUPerfLevel)
    i.Clock_SetI2CClockFrequency             0x08009164   Section        0  ClockSBL.o(i.Clock_SetI2CClockFrequency)
    i.Clock_SetL2PerfLevel                   0x080091e4   Section        0  ClockSBLCPU.o(i.Clock_SetL2PerfLevel)
    i.Clock_SetSysPerfLevel                  0x080091e8   Section        0  ClockSBL.o(i.Clock_SetSysPerfLevel)
    i.Clock_SetUARTClockFrequency            0x08009238   Section        0  ClockSBL.o(i.Clock_SetUARTClockFrequency)
    i.Clock_SourceMapToAPCS                  0x080092d0   Section        0  ClockSBLConfig.o(i.Clock_SourceMapToAPCS)
    i.Clock_SourceMapToGCC                   0x080092ea   Section        0  ClockSBLConfig.o(i.Clock_SourceMapToGCC)
    i.Clock_SourceMapToMux                   0x08009304   Section        0  ClockSBLConfig.o(i.Clock_SourceMapToMux)
    i.Clock_ToggleClock                      0x08009320   Section        0  ClockSBLCommon.o(i.Clock_ToggleClock)
    i.Clock_TriggerUpdate                    0x08009346   Section        0  ClockSBLCommon.o(i.Clock_TriggerUpdate)
    i.DALFW_AddRef                           0x0800937a   Section        0  dalfwkbase.o(i.DALFW_AddRef)
    i.DALFW_AllocPhysForMemDescBufs          0x08009398   Section        0  DALMemDesc.o(i.DALFW_AllocPhysForMemDescBufs)
    i.DALFW_AttachToDevice                   0x0800941c   Section        0  dalfwkbase.o(i.DALFW_AttachToDevice)
    i.DALFW_AttachToStringDevice             0x0800949c   Section        0  dalfwkbase.o(i.DALFW_AttachToStringDevice)
    i.DALFW_InitClientCtxt                   0x08009540   Section        0  dalfwkbase.o(i.DALFW_InitClientCtxt)
    DALFW_InitClientCtxt                     0x08009541   Thumb Code    14  dalfwkbase.o(i.DALFW_InitClientCtxt)
    i.DALFW_InitDevCtxt                      0x0800954e   Section        0  dalfwkbase.o(i.DALFW_InitDevCtxt)
    DALFW_InitDevCtxt                        0x0800954f   Thumb Code    14  dalfwkbase.o(i.DALFW_InitDevCtxt)
    i.DALFW_InitDrvCtxt                      0x0800955c   Section        0  dalfwkbase.o(i.DALFW_InitDrvCtxt)
    DALFW_InitDrvCtxt                        0x0800955d   Thumb Code    52  dalfwkbase.o(i.DALFW_InitDrvCtxt)
    i.DALFW_MemDescBufPtr                    0x08009590   Section        0  DALMemDesc.o(i.DALFW_MemDescBufPtr)
    i.DALFW_MemDescInit                      0x080095a4   Section        0  DALMemDesc.o(i.DALFW_MemDescInit)
    i.DALFW_MemDescListCopyBufs              0x08009608   Section        0  DALMemDesc.o(i.DALFW_MemDescListCopyBufs)
    i.DALFW_Release                          0x080096b8   Section        0  dalfwkbase.o(i.DALFW_Release)
    i.DALGLBCTXT_AllocCtxt                   0x08009704   Section        0  DALGlbCtxt.o(i.DALGLBCTXT_AllocCtxt)
    i.DALGLBCTXT_Init                        0x080097a0   Section        0  DALGlbCtxt.o(i.DALGLBCTXT_Init)
    i.DALPlatformInfo_CDTConfigPostDDR       0x08009884   Section        0  PlatformInfoFwk.o(i.DALPlatformInfo_CDTConfigPostDDR)
    DALPlatformInfo_CDTConfigPostDDR         0x08009885   Thumb Code    12  PlatformInfoFwk.o(i.DALPlatformInfo_CDTConfigPostDDR)
    i.DALPlatformInfo_CDTConfigPreDDR        0x08009890   Section        0  PlatformInfoFwk.o(i.DALPlatformInfo_CDTConfigPreDDR)
    DALPlatformInfo_CDTConfigPreDDR          0x08009891   Thumb Code    12  PlatformInfoFwk.o(i.DALPlatformInfo_CDTConfigPreDDR)
    i.DALPlatformInfo_DriverInit             0x0800989c   Section        0  PlatformInfoFwk.o(i.DALPlatformInfo_DriverInit)
    DALPlatformInfo_DriverInit               0x0800989d   Thumb Code     6  PlatformInfoFwk.o(i.DALPlatformInfo_DriverInit)
    i.DALPlatformInfo_GetKeyValue            0x080098a2   Section        0  PlatformInfoFwk.o(i.DALPlatformInfo_GetKeyValue)
    DALPlatformInfo_GetKeyValue              0x080098a3   Thumb Code    12  PlatformInfoFwk.o(i.DALPlatformInfo_GetKeyValue)
    i.DALPlatformInfo_GetPlatform            0x080098ae   Section        0  PlatformInfoFwk.o(i.DALPlatformInfo_GetPlatform)
    DALPlatformInfo_GetPlatform              0x080098af   Thumb Code    12  PlatformInfoFwk.o(i.DALPlatformInfo_GetPlatform)
    i.DALPlatformInfo_GetPlatformInfo        0x080098ba   Section        0  PlatformInfoFwk.o(i.DALPlatformInfo_GetPlatformInfo)
    DALPlatformInfo_GetPlatformInfo          0x080098bb   Thumb Code    12  PlatformInfoFwk.o(i.DALPlatformInfo_GetPlatformInfo)
    i.DALSYS_BusyWait                        0x080098c6   Section        0  DALModEnv.o(i.DALSYS_BusyWait)
    i.DALSYS_CacheCommand                    0x080098ca   Section        0  DALModEnv.o(i.DALSYS_CacheCommand)
    i.DALSYS_DeInitMod                       0x080098fe   Section        0  DALModEnv.o(i.DALSYS_DeInitMod)
    i.DALSYS_DestroyObject                   0x08009900   Section        0  DALModEnv.o(i.DALSYS_DestroyObject)
    i.DALSYS_EventCreate                     0x08009904   Section        0  DALModEnv.o(i.DALSYS_EventCreate)
    i.DALSYS_EventMultipleWait               0x0800991e   Section        0  DALModEnv.o(i.DALSYS_EventMultipleWait)
    i.DALSYS_Free                            0x08009924   Section        0  DALModEnv.o(i.DALSYS_Free)
    i.DALSYS_GetDALPropertyHandle            0x0800993c   Section        0  DALModEnv.o(i.DALSYS_GetDALPropertyHandle)
    i.DALSYS_GetDALPropertyHandleStr         0x08009940   Section        0  DALProps.o(i.DALSYS_GetDALPropertyHandleStr)
    i.DALSYS_GetPropDir                      0x08009974   Section        0  DALModEnv.o(i.DALSYS_GetPropDir)
    i.DALSYS_GetPropStructPtrArray           0x08009980   Section        0  DALModEnv.o(i.DALSYS_GetPropStructPtrArray)
    i.DALSYS_GetPropertyValue                0x0800998c   Section        0  DALModEnv.o(i.DALSYS_GetPropertyValue)
    i.DALSYS_HeapInit                        0x08009990   Section        0  DALHeap.o(i.DALSYS_HeapInit)
    i.DALSYS_InitMod                         0x080099b4   Section        0  DALModEnv.o(i.DALSYS_InitMod)
    i.DALSYS_LogEvent                        0x080099c4   Section        0  DALModEnv.o(i.DALSYS_LogEvent)
    i.DALSYS_Malloc                          0x080099ce   Section        0  DALModEnv.o(i.DALSYS_Malloc)
    i.DALSYS_MemInfo                         0x080099e4   Section        0  DALModEnv.o(i.DALSYS_MemInfo)
    i.DALSYS_MemRegionAlloc                  0x08009a10   Section        0  DALModEnv.o(i.DALSYS_MemRegionAlloc)
    i.DALSYS_SyncCreate                      0x08009a94   Section        0  DALModEnv.o(i.DALSYS_SyncCreate)
    i.DALSYS_SyncEnter                       0x08009aa8   Section        0  DALModEnv.o(i.DALSYS_SyncEnter)
    i.DALSYS_SyncLeave                       0x08009aaa   Section        0  DALModEnv.o(i.DALSYS_SyncLeave)
    i.DALTLMMState_Init                      0x08009aac   Section        0  DALTLMMState.o(i.DALTLMMState_Init)
    i.DALTLMMState_MacroToStruct             0x08009bcc   Section        0  DALTLMMState.o(i.DALTLMMState_MacroToStruct)
    i.DALTLMMState_StructToMacro             0x08009be6   Section        0  DALTLMMState.o(i.DALTLMMState_StructToMacro)
    i.DAL_DeviceAttach                       0x08009c14   Section        0  DALModEnv.o(i.DAL_DeviceAttach)
    i.DAL_DeviceAttachEx                     0x08009c4a   Section        0  DALModEnv.o(i.DAL_DeviceAttachEx)
    i.DAL_DeviceAttachLocal                  0x08009c90   Section        0  DALModEnv.o(i.DAL_DeviceAttachLocal)
    i.DAL_DeviceDetach                       0x08009cd4   Section        0  DALModEnv.o(i.DAL_DeviceDetach)
    i.DAL_StringDeviceAttachEx               0x08009d04   Section        0  DALModEnv.o(i.DAL_StringDeviceAttachEx)
    i.DAL_StringDeviceAttachLocal            0x08009d48   Section        0  DALModEnv.o(i.DAL_StringDeviceAttachLocal)
    i.DAL_StringDeviceObjectLookup           0x08009da4   Section        0  DALProps.o(i.DAL_StringDeviceObjectLookup)
    i.DalChipInfo_ChipFamily                 0x08009e7c   Section        0  PlatformInfo.o(i.DalChipInfo_ChipFamily)
    DalChipInfo_ChipFamily                   0x08009e7d   Thumb Code    70  PlatformInfo.o(i.DalChipInfo_ChipFamily)
    i.DalChipInfo_ChipFamily                 0x08009ecc   Section        0  DALTLMM.o(i.DalChipInfo_ChipFamily)
    DalChipInfo_ChipFamily                   0x08009ecd   Thumb Code    70  DALTLMM.o(i.DalChipInfo_ChipFamily)
    i.DalChipInfo_GetChipVersion             0x08009f1c   Section        0  PlatformInfo.o(i.DalChipInfo_GetChipVersion)
    DalChipInfo_GetChipVersion               0x08009f1d   Thumb Code    32  PlatformInfo.o(i.DalChipInfo_GetChipVersion)
    i.DalClock_GetClockId                    0x08009f3c   Section        0  SpmiOsImage.o(i.DalClock_GetClockId)
    DalClock_GetClockId                      0x08009f3d   Thumb Code     6  SpmiOsImage.o(i.DalClock_GetClockId)
    i.DalClock_IsClockOn                     0x08009f42   Section        0  SpmiOsImage.o(i.DalClock_IsClockOn)
    DalClock_IsClockOn                       0x08009f43   Thumb Code    22  SpmiOsImage.o(i.DalClock_IsClockOn)
    i.DalDevice_Info                         0x08009f58   Section        0  DALModEnv.o(i.DalDevice_Info)
    DalDevice_Info                           0x08009f59   Thumb Code    10  DALModEnv.o(i.DalDevice_Info)
    i.DalDevice_Init                         0x08009f62   Section        0  DALModEnv.o(i.DalDevice_Init)
    DalDevice_Init                           0x08009f63   Thumb Code    10  DALModEnv.o(i.DalDevice_Init)
    i.DalDevice_Open                         0x08009f6c   Section        0  AdcBoot.o(i.DalDevice_Open)
    DalDevice_Open                           0x08009f6d   Thumb Code    10  AdcBoot.o(i.DalDevice_Open)
    i.DalHWIO_MapRegionByAddress             0x08009f76   Section        0  DalChipInfoLocal.o(i.DalHWIO_MapRegionByAddress)
    DalHWIO_MapRegionByAddress               0x08009f77   Thumb Code     6  DalChipInfoLocal.o(i.DalHWIO_MapRegionByAddress)
    i.DalPlatformInfo_Platform               0x08009f7c   Section        0  pm_sbl_boot.o(i.DalPlatformInfo_Platform)
    DalPlatformInfo_Platform                 0x08009f7d   Thumb Code    36  pm_sbl_boot.o(i.DalPlatformInfo_Platform)
    i.DalPlatformInfo_Platform               0x08009fa8   Section        0  pm_pbs_driver.o(i.DalPlatformInfo_Platform)
    DalPlatformInfo_Platform                 0x08009fa9   Thumb Code    36  pm_pbs_driver.o(i.DalPlatformInfo_Platform)
    i.DalTlmm_ConfigGpio                     0x08009fd4   Section        0  I2cPlatSvc.o(i.DalTlmm_ConfigGpio)
    DalTlmm_ConfigGpio                       0x08009fd5   Thumb Code     6  I2cPlatSvc.o(i.DalTlmm_ConfigGpio)
    i.GlbCtxtLock                            0x08009fdc   Section        0  DALGlbCtxt.o(i.GlbCtxtLock)
    GlbCtxtLock                              0x08009fdd   Thumb Code    28  DALGlbCtxt.o(i.GlbCtxtLock)
    i.GlbCtxtUnLock                          0x08009ffc   Section        0  DALGlbCtxt.o(i.GlbCtxtUnLock)
    GlbCtxtUnLock                            0x08009ffd   Thumb Code    18  DALGlbCtxt.o(i.GlbCtxtUnLock)
    i.HAL_tlmm_ConfigGpio                    0x0800a014   Section        0  HALtlmm.o(i.HAL_tlmm_ConfigGpio)
    i.HAL_tlmm_Init                          0x0800a06c   Section        0  HALtlmm.o(i.HAL_tlmm_Init)
    i.HAL_tlmm_SetPort                       0x0800a080   Section        0  HALtlmm.o(i.HAL_tlmm_SetPort)
    i.HAL_tlmm_WriteConfig                   0x0800a09c   Section        0  HALtlmm.o(i.HAL_tlmm_WriteConfig)
    i.HAL_tlmm_WriteGpio                     0x0800a0b4   Section        0  HALtlmm.o(i.HAL_tlmm_WriteGpio)
    i.HAL_tsens_CalSelect                    0x0800a0ec   Section        0  HALtsens.o(i.HAL_tsens_CalSelect)
    i.HAL_tsens_ConfigSensor                 0x0800a0fc   Section        0  HALtsens.o(i.HAL_tsens_ConfigSensor)
    i.HAL_tsens_DisableInterrupt             0x0800a11c   Section        0  HALtsens.o(i.HAL_tsens_DisableInterrupt)
    i.HAL_tsens_EnableInterrupt              0x0800a170   Section        0  HALtsens.o(i.HAL_tsens_EnableInterrupt)
    i.HAL_tsens_GetBaseX1                    0x0800a1b8   Section        0  HALtsens.o(i.HAL_tsens_GetBaseX1)
    i.HAL_tsens_GetBaseX2                    0x0800a1cc   Section        0  HALtsens.o(i.HAL_tsens_GetBaseX2)
    i.HAL_tsens_GetMaxCode                   0x0800a1e0   Section        0  HALtsens.o(i.HAL_tsens_GetMaxCode)
    i.HAL_tsens_GetPointX1                   0x0800a1e6   Section        0  HALtsens.o(i.HAL_tsens_GetPointX1)
    i.HAL_tsens_GetPointX2                   0x0800a238   Section        0  HALtsens.o(i.HAL_tsens_GetPointX2)
    i.HAL_tsens_GetSensorPrevTemp            0x0800a29c   Section        0  HALtsens.o(i.HAL_tsens_GetSensorPrevTemp)
    i.HAL_tsens_Init                         0x0800a2b4   Section        0  HALtsens.o(i.HAL_tsens_Init)
    i.HAL_tsens_Reset                        0x0800a2c4   Section        0  HALtsens.o(i.HAL_tsens_Reset)
    i.HAL_tsens_SelectADCClkSrc              0x0800a2e4   Section        0  HALtsens.o(i.HAL_tsens_SelectADCClkSrc)
    i.HAL_tsens_SetPeriod                    0x0800a30c   Section        0  HALtsens.o(i.HAL_tsens_SetPeriod)
    i.HAL_tsens_SetSensorsEnabled            0x0800a324   Section        0  HALtsens.o(i.HAL_tsens_SetSensorsEnabled)
    i.HAL_tsens_SetState                     0x0800a344   Section        0  HALtsens.o(i.HAL_tsens_SetState)
    i.HAL_tsens_SetThreshold                 0x0800a36c   Section        0  HALtsens.o(i.HAL_tsens_SetThreshold)
    i.HAL_tsens_TempMeasurementIsComplete    0x0800a3d0   Section        0  HALtsens.o(i.HAL_tsens_TempMeasurementIsComplete)
    i.HAL_tsens_UseRedundant                 0x0800a3e4   Section        0  HALtsens.o(i.HAL_tsens_UseRedundant)
    i.HALuart_DisableInterrupts              0x0800a3e8   Section        0  Uart_hal.o(i.HALuart_DisableInterrupts)
    i.HALuart_GetFifoSize                    0x0800a3fc   Section        0  Uart_hal.o(i.HALuart_GetFifoSize)
    i.HALuart_GetInterruptStatus             0x0800a40a   Section        0  Uart_hal.o(i.HALuart_GetInterruptStatus)
    i.HALuart_GetStatus                      0x0800a414   Section        0  Uart_hal.o(i.HALuart_GetStatus)
    i.HALuart_GetTxFifoSize                  0x0800a41e   Section        0  Uart_hal.o(i.HALuart_GetTxFifoSize)
    i.HALuart_ResetErrorStatus               0x0800a426   Section        0  Uart_hal.o(i.HALuart_ResetErrorStatus)
    i.HALuart_ResetReceiver                  0x0800a42e   Section        0  Uart_hal.o(i.HALuart_ResetReceiver)
    i.HALuart_ResetTransmitter               0x0800a436   Section        0  Uart_hal.o(i.HALuart_ResetTransmitter)
    i.HALuart_SetAutoInboundFlowCtl          0x0800a43e   Section        0  Uart_hal.o(i.HALuart_SetAutoInboundFlowCtl)
    i.HALuart_SetCharFormat                  0x0800a450   Section        0  Uart_hal.o(i.HALuart_SetCharFormat)
    i.HALuart_SetCmdSynchronization          0x0800a466   Section        0  Uart_hal.o(i.HALuart_SetCmdSynchronization)
    i.HALuart_SetDivider                     0x0800a478   Section        0  Uart_hal.o(i.HALuart_SetDivider)
    i.HALuart_SetDmaEnable                   0x0800a47e   Section        0  Uart_hal.o(i.HALuart_SetDmaEnable)
    i.HALuart_SetIrdaEnable                  0x0800a494   Section        0  Uart_hal.o(i.HALuart_SetIrdaEnable)
    i.HALuart_SetLoopback                    0x0800a4ae   Section        0  Uart_hal.o(i.HALuart_SetLoopback)
    i.HALuart_SetOutboundFlowCtl             0x0800a4c4   Section        0  Uart_hal.o(i.HALuart_SetOutboundFlowCtl)
    i.HALuart_SetRxEnable                    0x0800a4d6   Section        0  Uart_hal.o(i.HALuart_SetRxEnable)
    i.HALuart_SetRxSCEnable                  0x0800a4e4   Section        0  Uart_hal.o(i.HALuart_SetRxSCEnable)
    i.HALuart_SetRxWatermark                 0x0800a4fa   Section        0  Uart_hal.o(i.HALuart_SetRxWatermark)
    i.HALuart_SetStaleEvent                  0x0800a514   Section        0  Uart_hal.o(i.HALuart_SetStaleEvent)
    i.HALuart_SetStaleTimeout                0x0800a526   Section        0  Uart_hal.o(i.HALuart_SetStaleTimeout)
    i.HALuart_SetTxEnable                    0x0800a540   Section        0  Uart_hal.o(i.HALuart_SetTxEnable)
    i.HALuart_SetTxFifoSize                  0x0800a54e   Section        0  Uart_hal.o(i.HALuart_SetTxFifoSize)
    i.HALuart_SetTxSCEnable                  0x0800a556   Section        0  Uart_hal.o(i.HALuart_SetTxSCEnable)
    i.HALuart_SetTxWatermark                 0x0800a56c   Section        0  Uart_hal.o(i.HALuart_SetTxWatermark)
    i.HALuart_SetupDmaRx                     0x0800a57c   Section        0  Uart_hal.o(i.HALuart_SetupDmaRx)
    i.HALuart_WriteTxFifo                    0x0800a580   Section        0  Uart_hal.o(i.HALuart_WriteTxFifo)
    i.I2CDEVQUP_CalcTransferInOutSize        0x0800a5c6   Section        0  I2cDeviceQup.o(i.I2CDEVQUP_CalcTransferInOutSize)
    i.I2CDEVQUP_CalcTransferredDataBytes     0x0800a5fa   Section        0  I2cDeviceQup.o(i.I2CDEVQUP_CalcTransferredDataBytes)
    I2CDEVQUP_CalcTransferredDataBytes       0x0800a5fb   Thumb Code   248  I2cDeviceQup.o(i.I2CDEVQUP_CalcTransferredDataBytes)
    i.I2CDEVQUP_ConfigureQupIo               0x0800a6f4   Section        0  I2cDeviceQup.o(i.I2CDEVQUP_ConfigureQupIo)
    i.I2CDEVQUP_ConfigureSequenceTransferIo  0x0800a854   Section        0  I2cDeviceQup.o(i.I2CDEVQUP_ConfigureSequenceTransferIo)
    i.I2CDEVQUP_ISR_HOOK                     0x0800a91a   Section        0  I2cDeviceQup.o(i.I2CDEVQUP_ISR_HOOK)
    I2CDEVQUP_ISR_HOOK                       0x0800a91b   Thumb Code    10  I2cDeviceQup.o(i.I2CDEVQUP_ISR_HOOK)
    i.I2CDEVQUP_IST_HOOK                     0x0800a924   Section        0  I2cDeviceQup.o(i.I2CDEVQUP_IST_HOOK)
    I2CDEVQUP_IST_HOOK                       0x0800a925   Thumb Code    10  I2cDeviceQup.o(i.I2CDEVQUP_IST_HOOK)
    i.I2CDEVQUP_InitInSeqInfo                0x0800a92e   Section        0  I2cDeviceQup.o(i.I2CDEVQUP_InitInSeqInfo)
    i.I2CDEVQUP_InitOutSeqInfo               0x0800a944   Section        0  I2cDeviceQup.o(i.I2CDEVQUP_InitOutSeqInfo)
    i.I2CDEVQUP_InitQupCore                  0x0800a95a   Section        0  I2cDeviceQup.o(i.I2CDEVQUP_InitQupCore)
    I2CDEVQUP_InitQupCore                    0x0800a95b   Thumb Code    36  I2cDeviceQup.o(i.I2CDEVQUP_InitQupCore)
    i.I2CDEVQUP_ProcesQupHwEvts              0x0800a97e   Section        0  I2cDeviceQup.o(i.I2CDEVQUP_ProcesQupHwEvts)
    i.I2CDEVQUP_QupHwEvtQueue_ProcessIsrEvt  0x0800a9be   Section        0  I2cDeviceQup.o(i.I2CDEVQUP_QupHwEvtQueue_ProcessIsrEvt)
    I2CDEVQUP_QupHwEvtQueue_ProcessIsrEvt    0x0800a9bf   Thumb Code   140  I2cDeviceQup.o(i.I2CDEVQUP_QupHwEvtQueue_ProcessIsrEvt)
    i.I2CDEVQUP_SetRunState                  0x0800aa4c   Section        0  I2cDeviceQup.o(i.I2CDEVQUP_SetRunState)
    I2CDEVQUP_SetRunState                    0x0800aa4d   Thumb Code   120  I2cDeviceQup.o(i.I2CDEVQUP_SetRunState)
    i.I2CDEVQUP_SetupHw                      0x0800aac8   Section        0  I2cDeviceQup.o(i.I2CDEVQUP_SetupHw)
    I2CDEVQUP_SetupHw                        0x0800aac9   Thumb Code   146  I2cDeviceQup.o(i.I2CDEVQUP_SetupHw)
    i.I2CDEVQUP_WaitForRunStateValid         0x0800ab64   Section        0  I2cDeviceQup.o(i.I2CDEVQUP_WaitForRunStateValid)
    I2CDEVQUP_WaitForRunStateValid           0x0800ab65   Thumb Code    46  I2cDeviceQup.o(i.I2CDEVQUP_WaitForRunStateValid)
    i.I2CDEV_BatchTransfer                   0x0800ab98   Section        0  I2cDeviceQup.o(i.I2CDEV_BatchTransfer)
    i.I2CDEV_DeInit                          0x0800ac44   Section        0  I2cDeviceQup.o(i.I2CDEV_DeInit)
    i.I2CDEV_Init                            0x0800ace0   Section        0  I2cDeviceQup.o(i.I2CDEV_Init)
    i.I2CDEV_SetPowerState                   0x0800ade8   Section        0  I2cDeviceQup.o(i.I2CDEV_SetPowerState)
    i.I2CDEV_Write                           0x0800ae0c   Section        0  I2cDeviceQup.o(i.I2CDEV_Write)
    i.I2CPLATDEV_DeInitTarget                0x0800ae5c   Section        0  I2cPlatSvc.o(i.I2CPLATDEV_DeInitTarget)
    i.I2CPLATDEV_InitGpios                   0x0800aecc   Section        0  I2cPlatSvc.o(i.I2CPLATDEV_InitGpios)
    I2CPLATDEV_InitGpios                     0x0800aecd   Thumb Code   124  I2cPlatSvc.o(i.I2CPLATDEV_InitGpios)
    i.I2CPLATDEV_InitTarget                  0x0800af50   Section        0  I2cPlatSvc.o(i.I2CPLATDEV_InitTarget)
    i.I2CPLATDEV_ReadPlatConfig              0x0800af98   Section        0  I2cPlatSvc.o(i.I2CPLATDEV_ReadPlatConfig)
    i.I2CPLATDEV_ReadProperties              0x0800b064   Section        0  I2cPlatSvc.o(i.I2CPLATDEV_ReadProperties)
    i.I2CPLATDEV_SetPowerState               0x0800b074   Section        0  I2cPlatSvc.o(i.I2CPLATDEV_SetPowerState)
    i.I2CSYS_BusyWait                        0x0800b0b4   Section        0  I2cSys.o(i.I2CSYS_BusyWait)
    i.I2CSYS_ClearEvent                      0x0800b0b8   Section        0  I2cSys.o(i.I2CSYS_ClearEvent)
    i.I2CSYS_CloseHandle                     0x0800b0bc   Section        0  I2cSys.o(i.I2CSYS_CloseHandle)
    i.I2CSYS_CreateCriticalSection           0x0800b0d4   Section        0  I2cSys.o(i.I2CSYS_CreateCriticalSection)
    i.I2CSYS_CreateEvent                     0x0800b110   Section        0  I2cSys.o(i.I2CSYS_CreateEvent)
    i.I2CSYS_DestroyCriticalSection          0x0800b114   Section        0  I2cSys.o(i.I2CSYS_DestroyCriticalSection)
    i.I2CSYS_EnterCriticalSection            0x0800b13c   Section        0  I2cSys.o(i.I2CSYS_EnterCriticalSection)
    i.I2CSYS_Free                            0x0800b148   Section        0  I2cSys.o(i.I2CSYS_Free)
    i.I2CSYS_LeaveCriticalSection            0x0800b15c   Section        0  I2cSys.o(i.I2CSYS_LeaveCriticalSection)
    i.I2CSYS_Malloc                          0x0800b168   Section        0  I2cSys.o(i.I2CSYS_Malloc)
    i.I2CSYS_Memset                          0x0800b188   Section        0  I2cSys.o(i.I2CSYS_Memset)
    i.I2CSYS_RegisterISTHooks                0x0800b198   Section        0  I2cPlatSvc.o(i.I2CSYS_RegisterISTHooks)
    i.I2CSYS_SetEvent                        0x0800b19c   Section        0  I2cSys.o(i.I2CSYS_SetEvent)
    i.I2CSYS_UnRegisterISTHooks              0x0800b1a0   Section        0  I2cPlatSvc.o(i.I2CSYS_UnRegisterISTHooks)
    i.I2CSYS_Wait                            0x0800b1a4   Section        0  I2cSys.o(i.I2CSYS_Wait)
    i.I2C_DalI2C_Attach                      0x0800b1a8   Section        0  I2cDriverDalInfo.o(i.I2C_DalI2C_Attach)
    i.ICB_Config_Init                        0x0800b1ac   Section        0  icbcfg.o(i.ICB_Config_Init)
    i.ICB_Configure_Settings                 0x0800b27c   Section        0  icbcfg.o(i.ICB_Configure_Settings)
    ICB_Configure_Settings                   0x0800b27d   Thumb Code   186  icbcfg.o(i.ICB_Configure_Settings)
    i.ICB_Get_Memmap                         0x0800b336   Section        0  icbcfg.o(i.ICB_Get_Memmap)
    i.ICB_Segments_Init                      0x0800b368   Section        0  icbcfg.o(i.ICB_Segments_Init)
    i.InterProcSpinLock                      0x0800b3b8   Section        0  DALGlbCtxt.o(i.InterProcSpinLock)
    InterProcSpinLock                        0x0800b3b9   Thumb Code    68  DALGlbCtxt.o(i.InterProcSpinLock)
    i.InterProcSpinUnLock                    0x0800b400   Section        0  DALGlbCtxt.o(i.InterProcSpinUnLock)
    InterProcSpinUnLock                      0x0800b401   Thumb Code    10  DALGlbCtxt.o(i.InterProcSpinUnLock)
    i.IsExternalMemReady                     0x0800b410   Section        0  DALHeap.o(i.IsExternalMemReady)
    i.PlatformInfo_CDTConfigPostDDR          0x0800b420   Section        0  PlatformInfo.o(i.PlatformInfo_CDTConfigPostDDR)
    i.PlatformInfo_CDTConfigPreDDR           0x0800b494   Section        0  PlatformInfo.o(i.PlatformInfo_CDTConfigPreDDR)
    i.PlatformInfo_CDTInit                   0x0800b4b0   Section        0  PlatformInfo.o(i.PlatformInfo_CDTInit)
    PlatformInfo_CDTInit                     0x0800b4b1   Thumb Code   182  PlatformInfo.o(i.PlatformInfo_CDTInit)
    i.PlatformInfo_DeviceAttach              0x0800b56c   Section        0  PlatformInfoFwk.o(i.PlatformInfo_DeviceAttach)
    i.PlatformInfo_DeviceClose               0x0800b5ac   Section        0  PlatformInfoFwk.o(i.PlatformInfo_DeviceClose)
    PlatformInfo_DeviceClose                 0x0800b5ad   Thumb Code     4  PlatformInfoFwk.o(i.PlatformInfo_DeviceClose)
    i.PlatformInfo_DeviceDeInit              0x0800b5b0   Section        0  PlatformInfoFwk.o(i.PlatformInfo_DeviceDeInit)
    PlatformInfo_DeviceDeInit                0x0800b5b1   Thumb Code     4  PlatformInfoFwk.o(i.PlatformInfo_DeviceDeInit)
    i.PlatformInfo_DeviceDetach              0x0800b5b4   Section        0  PlatformInfoFwk.o(i.PlatformInfo_DeviceDetach)
    PlatformInfo_DeviceDetach                0x0800b5b5   Thumb Code     6  PlatformInfoFwk.o(i.PlatformInfo_DeviceDetach)
    i.PlatformInfo_DeviceInfo                0x0800b5ba   Section        0  PlatformInfoFwk.o(i.PlatformInfo_DeviceInfo)
    PlatformInfo_DeviceInfo                  0x0800b5bb   Thumb Code    10  PlatformInfoFwk.o(i.PlatformInfo_DeviceInfo)
    i.PlatformInfo_DeviceInit                0x0800b5c4   Section        0  PlatformInfoFwk.o(i.PlatformInfo_DeviceInit)
    PlatformInfo_DeviceInit                  0x0800b5c5   Thumb Code     4  PlatformInfoFwk.o(i.PlatformInfo_DeviceInit)
    i.PlatformInfo_DeviceOpen                0x0800b5c8   Section        0  PlatformInfoFwk.o(i.PlatformInfo_DeviceOpen)
    PlatformInfo_DeviceOpen                  0x0800b5c9   Thumb Code     4  PlatformInfoFwk.o(i.PlatformInfo_DeviceOpen)
    i.PlatformInfo_DevicePowerEvent          0x0800b5cc   Section        0  PlatformInfoFwk.o(i.PlatformInfo_DevicePowerEvent)
    PlatformInfo_DevicePowerEvent            0x0800b5cd   Thumb Code     4  PlatformInfoFwk.o(i.PlatformInfo_DevicePowerEvent)
    i.PlatformInfo_DeviceSysRequest          0x0800b5d0   Section        0  PlatformInfoFwk.o(i.PlatformInfo_DeviceSysRequest)
    PlatformInfo_DeviceSysRequest            0x0800b5d1   Thumb Code     4  PlatformInfoFwk.o(i.PlatformInfo_DeviceSysRequest)
    i.PlatformInfo_DriverDeInit              0x0800b5d4   Section        0  PlatformInfoFwk.o(i.PlatformInfo_DriverDeInit)
    PlatformInfo_DriverDeInit                0x0800b5d5   Thumb Code     4  PlatformInfoFwk.o(i.PlatformInfo_DriverDeInit)
    i.PlatformInfo_DriverInit                0x0800b5d8   Section        0  PlatformInfo.o(i.PlatformInfo_DriverInit)
    i.PlatformInfo_GetKeyValue               0x0800b5dc   Section        0  PlatformInfo.o(i.PlatformInfo_GetKeyValue)
    i.PlatformInfo_GetPlatform               0x0800b610   Section        0  PlatformInfo.o(i.PlatformInfo_GetPlatform)
    i.PlatformInfo_GetPlatformInfo           0x0800b620   Section        0  PlatformInfo.o(i.PlatformInfo_GetPlatformInfo)
    i.PlatformInfo_InitRPM                   0x0800b63c   Section        0  PlatformInfo.o(i.PlatformInfo_InitRPM)
    PlatformInfo_InitRPM                     0x0800b63d   Thumb Code    84  PlatformInfo.o(i.PlatformInfo_InitRPM)
    i.PlatformInfo_InitSMem                  0x0800b69c   Section        0  PlatformInfo.o(i.PlatformInfo_InitSMem)
    PlatformInfo_InitSMem                    0x0800b69d   Thumb Code   328  PlatformInfo.o(i.PlatformInfo_InitSMem)
    i.PmicArb_AddCacheEntry                  0x0800b7ec   Section        0  PmicArb.o(i.PmicArb_AddCacheEntry)
    i.PmicArb_ConfigHW                       0x0800b900   Section        0  PmicArb.o(i.PmicArb_ConfigHW)
    i.PmicArb_ExecuteCommand                 0x0800b904   Section        0  PmicArb.o(i.PmicArb_ExecuteCommand)
    i.PmicArb_FindChannel                    0x0800baa4   Section        0  PmicArb.o(i.PmicArb_FindChannel)
    i.PmicArb_GetHwStatus                    0x0800bae8   Section        0  PmicArb.o(i.PmicArb_GetHwStatus)
    i.PmicArb_GetMaxChannelSupport           0x0800bb0c   Section        0  PmicArb.o(i.PmicArb_GetMaxChannelSupport)
    i.PmicArb_HasInterruptSupport            0x0800bb10   Section        0  PmicArb.o(i.PmicArb_HasInterruptSupport)
    i.PmicArb_Init                           0x0800bb1c   Section        0  PmicArb.o(i.PmicArb_Init)
    i.PmicArb_InvalidateCache                0x0800bb58   Section        0  PmicArb.o(i.PmicArb_InvalidateCache)
    i.PmicArb_UpdateCache                    0x0800bba0   Section        0  PmicArb.o(i.PmicArb_UpdateCache)
    i.PrngCL_getdata                         0x0800bbd4   Section        0  PrngCL.o(i.PrngCL_getdata)
    i.PrngCL_lite_deinit                     0x0800bc4a   Section        0  PrngCL.o(i.PrngCL_lite_deinit)
    i.PrngCL_lite_init                       0x0800bc50   Section        0  PrngCL.o(i.PrngCL_lite_init)
    i.PrngEL_ClkDisable                      0x0800bc68   Section        0  PrngEL.o(i.PrngEL_ClkDisable)
    i.PrngEL_ClkEnable                       0x0800bc6c   Section        0  PrngEL.o(i.PrngEL_ClkEnable)
    i.PrngML_getdata_lite                    0x0800bc70   Section        0  PrngML.o(i.PrngML_getdata_lite)
    i.QUP_Completion                         0x0800bc98   Section        0  I2cDeviceQup.o(i.QUP_Completion)
    QUP_Completion                           0x0800bc99   Thumb Code   146  I2cDeviceQup.o(i.QUP_Completion)
    i.QUP_GetNextOutSeqSlot                  0x0800bd30   Section        0  I2cDeviceQup.o(i.QUP_GetNextOutSeqSlot)
    QUP_GetNextOutSeqSlot                    0x0800bd31   Thumb Code   436  I2cDeviceQup.o(i.QUP_GetNextOutSeqSlot)
    i.QUP_GetTransferCnt                     0x0800bee4   Section        0  I2cDeviceQup.o(i.QUP_GetTransferCnt)
    QUP_GetTransferCnt                       0x0800bee5   Thumb Code    92  I2cDeviceQup.o(i.QUP_GetTransferCnt)
    i.QUP_InFsm_MoveNextTransfer             0x0800bf40   Section        0  I2cDeviceQup.o(i.QUP_InFsm_MoveNextTransfer)
    QUP_InFsm_MoveNextTransfer               0x0800bf41   Thumb Code    44  I2cDeviceQup.o(i.QUP_InFsm_MoveNextTransfer)
    i.QUP_InSeqInitTransfer                  0x0800bf6c   Section        0  I2cDeviceQup.o(i.QUP_InSeqInitTransfer)
    QUP_InSeqInitTransfer                    0x0800bf6d   Thumb Code    20  I2cDeviceQup.o(i.QUP_InSeqInitTransfer)
    i.QUP_OutFsm_MoveNextTransfer            0x0800bf80   Section        0  I2cDeviceQup.o(i.QUP_OutFsm_MoveNextTransfer)
    QUP_OutFsm_MoveNextTransfer              0x0800bf81   Thumb Code    42  I2cDeviceQup.o(i.QUP_OutFsm_MoveNextTransfer)
    i.QUP_OutSeqInitTransfer                 0x0800bfaa   Section        0  I2cDeviceQup.o(i.QUP_OutSeqInitTransfer)
    QUP_OutSeqInitTransfer                   0x0800bfab   Thumb Code    26  I2cDeviceQup.o(i.QUP_OutSeqInitTransfer)
    i.QUP_PerformInputOutput                 0x0800bfc4   Section        0  I2cDeviceQup.o(i.QUP_PerformInputOutput)
    QUP_PerformInputOutput                   0x0800bfc5   Thumb Code   300  I2cDeviceQup.o(i.QUP_PerformInputOutput)
    i.QUP_ProcessNextInputSlot               0x0800c0f8   Section        0  I2cDeviceQup.o(i.QUP_ProcessNextInputSlot)
    QUP_ProcessNextInputSlot                 0x0800c0f9   Thumb Code   190  I2cDeviceQup.o(i.QUP_ProcessNextInputSlot)
    i.QUP_ServiceQUP                         0x0800c1b8   Section        0  I2cDeviceQup.o(i.QUP_ServiceQUP)
    QUP_ServiceQUP                           0x0800c1b9   Thumb Code   144  I2cDeviceQup.o(i.QUP_ServiceQUP)
    i.QUP_WaitForCompletion                  0x0800c24c   Section        0  I2cDeviceQup.o(i.QUP_WaitForCompletion)
    QUP_WaitForCompletion                    0x0800c24d   Thumb Code   168  I2cDeviceQup.o(i.QUP_WaitForCompletion)
    i.SpmiBus_DeInit                         0x0800c2f8   Section        0  SpmiBus.o(i.SpmiBus_DeInit)
    i.SpmiBus_Init                           0x0800c338   Section        0  SpmiBus.o(i.SpmiBus_Init)
    i.SpmiBus_ReadLong                       0x0800c380   Section        0  SpmiBus.o(i.SpmiBus_ReadLong)
    i.SpmiBus_WriteLong                      0x0800c396   Section        0  SpmiBus.o(i.SpmiBus_WriteLong)
    i.SpmiCfg_ConfigureChannel               0x0800c3b0   Section        0  SpmiCfg.o(i.SpmiCfg_ConfigureChannel)
    i.SpmiCfg_ConfigureChannels              0x0800c410   Section        0  SpmiCfg.o(i.SpmiCfg_ConfigureChannels)
    i.SpmiCfg_InDynamicChannelMode           0x0800c424   Section        0  SpmiCfg.o(i.SpmiCfg_InDynamicChannelMode)
    i.SpmiCfg_Init                           0x0800c430   Section        0  SpmiCfg.o(i.SpmiCfg_Init)
    i.SpmiHal_Init                           0x0800c468   Section        0  SpmiHal.o(i.SpmiHal_Init)
    i.SpmiMaster_ConfigHW                    0x0800c47c   Section        0  SpmiMaster.o(i.SpmiMaster_ConfigHW)
    i.SpmiMaster_CreateMappingImage          0x0800c4f8   Section        0  SpmiRadixTree.o(i.SpmiMaster_CreateMappingImage)
    SpmiMaster_CreateMappingImage            0x0800c4f9   Thumb Code   230  SpmiRadixTree.o(i.SpmiMaster_CreateMappingImage)
    i.SpmiMaster_CreateMappingTableEntry     0x0800c5de   Section        0  SpmiRadixTree.o(i.SpmiMaster_CreateMappingTableEntry)
    SpmiMaster_CreateMappingTableEntry       0x0800c5df   Thumb Code    46  SpmiRadixTree.o(i.SpmiMaster_CreateMappingTableEntry)
    i.SpmiMaster_LoadFirmware                0x0800c60c   Section        0  GeniImage.o(i.SpmiMaster_LoadFirmware)
    i.SpmiMaster_LoadRadixTree               0x0800c6f4   Section        0  SpmiRadixTree.o(i.SpmiMaster_LoadRadixTree)
    i.SpmiMaster_UpdateMappingImageEntry     0x0800c760   Section        0  SpmiRadixTree.o(i.SpmiMaster_UpdateMappingImageEntry)
    SpmiMaster_UpdateMappingImageEntry       0x0800c761   Thumb Code    58  SpmiRadixTree.o(i.SpmiMaster_UpdateMappingImageEntry)
    i.SpmiOsNhlos_GetDalProp                 0x0800c79c   Section        0  SpmiOs.o(i.SpmiOsNhlos_GetDalProp)
    i.SpmiOs_Free                            0x0800c830   Section        0  SpmiOsImage.o(i.SpmiOs_Free)
    i.SpmiOs_GetAhbClkState                  0x0800c834   Section        0  SpmiOsImage.o(i.SpmiOs_GetAhbClkState)
    i.SpmiOs_GetOwnerId                      0x0800c85c   Section        0  SpmiOs.o(i.SpmiOs_GetOwnerId)
    i.SpmiOs_GetPmicArbBaseAddr              0x0800c87c   Section        0  SpmiOs.o(i.SpmiOs_GetPmicArbBaseAddr)
    i.SpmiOs_GetSerialClkState               0x0800c900   Section        0  SpmiOsImage.o(i.SpmiOs_GetSerialClkState)
    i.SpmiOs_GetTimeTick                     0x0800c928   Section        0  SpmiOsImage.o(i.SpmiOs_GetTimeTick)
    i.SpmiOs_HandleTransactionError          0x0800c92e   Section        0  SpmiOsImage.o(i.SpmiOs_HandleTransactionError)
    i.SpmiOs_Malloc                          0x0800c976   Section        0  SpmiOsImage.o(i.SpmiOs_Malloc)
    i.SpmiOs_RegisterISR                     0x0800c97a   Section        0  SpmiOsImage.o(i.SpmiOs_RegisterISR)
    i.SpmiOs_Wait                            0x0800c97e   Section        0  SpmiOs.o(i.SpmiOs_Wait)
    i.System_DalSystem_Attach                0x0800c982   Section        0  DALModEnv.o(i.System_DalSystem_Attach)
    i.TLMM_Close                             0x0800c98a   Section        0  DALTLMM.o(i.TLMM_Close)
    i.TLMM_ConfigGpio                        0x0800c98e   Section        0  DALTLMM.o(i.TLMM_ConfigGpio)
    i.TLMM_ConfigGpioGroup                   0x0800c99c   Section        0  DALTLMM.o(i.TLMM_ConfigGpioGroup)
    i.TLMM_DalTlmm_Attach                    0x0800ca6c   Section        0  DALTLMMFwk.o(i.TLMM_DalTlmm_Attach)
    i.TLMM_DalTlmm_Close                     0x0800cab0   Section        0  DALTLMMFwk.o(i.TLMM_DalTlmm_Close)
    TLMM_DalTlmm_Close                       0x0800cab1   Thumb Code     6  DALTLMMFwk.o(i.TLMM_DalTlmm_Close)
    i.TLMM_DalTlmm_ConfigGpio                0x0800cab6   Section        0  DALTLMMFwk.o(i.TLMM_DalTlmm_ConfigGpio)
    TLMM_DalTlmm_ConfigGpio                  0x0800cab7   Thumb Code     6  DALTLMMFwk.o(i.TLMM_DalTlmm_ConfigGpio)
    i.TLMM_DalTlmm_ConfigGpioGroup           0x0800cabc   Section        0  DALTLMMFwk.o(i.TLMM_DalTlmm_ConfigGpioGroup)
    TLMM_DalTlmm_ConfigGpioGroup             0x0800cabd   Thumb Code     6  DALTLMMFwk.o(i.TLMM_DalTlmm_ConfigGpioGroup)
    i.TLMM_DalTlmm_DeInit                    0x0800cac2   Section        0  DALTLMMFwk.o(i.TLMM_DalTlmm_DeInit)
    TLMM_DalTlmm_DeInit                      0x0800cac3   Thumb Code     6  DALTLMMFwk.o(i.TLMM_DalTlmm_DeInit)
    i.TLMM_DalTlmm_Detach                    0x0800cac8   Section        0  DALTLMMFwk.o(i.TLMM_DalTlmm_Detach)
    TLMM_DalTlmm_Detach                      0x0800cac9   Thumb Code     6  DALTLMMFwk.o(i.TLMM_DalTlmm_Detach)
    i.TLMM_DalTlmm_GpioOut                   0x0800cace   Section        0  DALTLMMFwk.o(i.TLMM_DalTlmm_GpioOut)
    TLMM_DalTlmm_GpioOut                     0x0800cacf   Thumb Code     6  DALTLMMFwk.o(i.TLMM_DalTlmm_GpioOut)
    i.TLMM_DalTlmm_Info                      0x0800cad4   Section        0  DALTLMMFwk.o(i.TLMM_DalTlmm_Info)
    TLMM_DalTlmm_Info                        0x0800cad5   Thumb Code    12  DALTLMMFwk.o(i.TLMM_DalTlmm_Info)
    i.TLMM_DalTlmm_Init                      0x0800cae0   Section        0  DALTLMMFwk.o(i.TLMM_DalTlmm_Init)
    TLMM_DalTlmm_Init                        0x0800cae1   Thumb Code    28  DALTLMMFwk.o(i.TLMM_DalTlmm_Init)
    i.TLMM_DalTlmm_Open                      0x0800cafc   Section        0  DALTLMMFwk.o(i.TLMM_DalTlmm_Open)
    TLMM_DalTlmm_Open                        0x0800cafd   Thumb Code     6  DALTLMMFwk.o(i.TLMM_DalTlmm_Open)
    i.TLMM_DalTlmm_PostInit                  0x0800cb02   Section        0  DALTLMMFwk.o(i.TLMM_DalTlmm_PostInit)
    TLMM_DalTlmm_PostInit                    0x0800cb03   Thumb Code     6  DALTLMMFwk.o(i.TLMM_DalTlmm_PostInit)
    i.TLMM_DalTlmm_PowerEvent                0x0800cb08   Section        0  DALTLMMFwk.o(i.TLMM_DalTlmm_PowerEvent)
    TLMM_DalTlmm_PowerEvent                  0x0800cb09   Thumb Code     6  DALTLMMFwk.o(i.TLMM_DalTlmm_PowerEvent)
    i.TLMM_DalTlmm_SetInactiveConfig         0x0800cb0e   Section        0  DALTLMMFwk.o(i.TLMM_DalTlmm_SetInactiveConfig)
    TLMM_DalTlmm_SetInactiveConfig           0x0800cb0f   Thumb Code     6  DALTLMMFwk.o(i.TLMM_DalTlmm_SetInactiveConfig)
    i.TLMM_DalTlmm_SetPort                   0x0800cb14   Section        0  DALTLMMFwk.o(i.TLMM_DalTlmm_SetPort)
    TLMM_DalTlmm_SetPort                     0x0800cb15   Thumb Code     6  DALTLMMFwk.o(i.TLMM_DalTlmm_SetPort)
    i.TLMM_DalTlmm_SysRequest                0x0800cb1a   Section        0  DALTLMMFwk.o(i.TLMM_DalTlmm_SysRequest)
    TLMM_DalTlmm_SysRequest                  0x0800cb1b   Thumb Code     6  DALTLMMFwk.o(i.TLMM_DalTlmm_SysRequest)
    i.TLMM_DeviceDeInit                      0x0800cb20   Section        0  DALTLMM.o(i.TLMM_DeviceDeInit)
    i.TLMM_DeviceInit                        0x0800cb38   Section        0  DALTLMM.o(i.TLMM_DeviceInit)
    i.TLMM_DriverDeInit                      0x0800ccfc   Section        0  DALTLMM.o(i.TLMM_DriverDeInit)
    i.TLMM_DriverInit                        0x0800cd00   Section        0  DALTLMM.o(i.TLMM_DriverInit)
    i.TLMM_GpioOut                           0x0800cd04   Section        0  DALTLMM.o(i.TLMM_GpioOut)
    i.TLMM_Info                              0x0800cd12   Section        0  DALTLMM.o(i.TLMM_Info)
    i.TLMM_Open                              0x0800cd16   Section        0  DALTLMM.o(i.TLMM_Open)
    i.TLMM_PostInit                          0x0800cd1c   Section        0  DALTLMM.o(i.TLMM_PostInit)
    i.TLMM_PowerEvent                        0x0800cd70   Section        0  DALTLMM.o(i.TLMM_PowerEvent)
    i.TLMM_SetInactiveConfig                 0x0800cd74   Section        0  DALTLMM.o(i.TLMM_SetInactiveConfig)
    i.TLMM_SetPort                           0x0800cdb4   Section        0  DALTLMM.o(i.TLMM_SetPort)
    i.Tlmm_ConfigGpioGroup                   0x0800ce10   Section        0  DALTLMM.o(i.Tlmm_ConfigGpioGroup)
    i.Tlmm_Init                              0x0800cec8   Section        0  DALTLMM.o(i.Tlmm_Init)
    i.Tsens_GetTemp                          0x0800cf50   Section        0  TsensBoot.o(i.Tsens_GetTemp)
    i.Tsens_Init                             0x0800d00c   Section        0  TsensBoot.o(i.Tsens_Init)
    i.Tsensi_Apply_D30_Correction            0x0800d140   Section        0  TsensiConversion.o(i.Tsensi_Apply_D30_Correction)
    i.Tsensi_Apply_D30_D120_Correction       0x0800d160   Section        0  TsensiConversion.o(i.Tsensi_Apply_D30_D120_Correction)
    i.Tsensi_CalibrationInit                 0x0800d194   Section        0  TsensiConversion.o(i.Tsensi_CalibrationInit)
    i.Tsensi_ConvertFromDegC                 0x0800d32c   Section        0  TsensiConversion.o(i.Tsensi_ConvertFromDegC)
    i.Tsensi_ConvertToDegC                   0x0800d388   Section        0  TsensiConversion.o(i.Tsensi_ConvertToDegC)
    i.Tsensi_InterpolateCalcSlope            0x0800d3d4   Section        0  TsensiConversion.o(i.Tsensi_InterpolateCalcSlope)
    Tsensi_InterpolateCalcSlope              0x0800d3d5   Thumb Code    16  TsensiConversion.o(i.Tsensi_InterpolateCalcSlope)
    i.Uart_busy_wait                         0x0800d3e4   Section        0  Uart_sbl_os.o(i.Uart_busy_wait)
    i.Uart_clock_close                       0x0800d3e8   Section        0  Uart_sbl_os.o(i.Uart_clock_close)
    i.Uart_clock_open                        0x0800d424   Section        0  Uart_sbl_os.o(i.Uart_clock_open)
    i.Uart_deinit                            0x0800d490   Section        0  Uart.o(i.Uart_deinit)
    i.Uart_get_driver_properties             0x0800d56c   Section        0  Uart_sbl_os.o(i.Uart_get_driver_properties)
    i.Uart_get_properties                    0x0800d5d8   Section        0  Uart_sbl_os.o(i.Uart_get_properties)
    i.Uart_init                              0x0800d6d4   Section        0  Uart.o(i.Uart_init)
    i.Uart_tlmm_close                        0x0800d7a4   Section        0  Uart_sbl_os.o(i.Uart_tlmm_close)
    i.Uart_tlmm_open                         0x0800d7f8   Section        0  Uart_sbl_os.o(i.Uart_tlmm_open)
    i.Uart_transmit                          0x0800d862   Section        0  Uart.o(i.Uart_transmit)
    i.VAdcHalGetConversionCode               0x0800d8ac   Section        0  VAdcHal.o(i.VAdcHalGetConversionCode)
    i.VAdcHalGetRevisionInfo                 0x0800d8f4   Section        0  VAdcHal.o(i.VAdcHalGetRevisionInfo)
    i.VAdcHalGetStatus                       0x0800d95c   Section        0  VAdcHal.o(i.VAdcHalGetStatus)
    i.VAdcHalRequestConversion               0x0800d9ec   Section        0  VAdcHal.o(i.VAdcHalRequestConversion)
    i.VAdcHalSetConversionParameters         0x0800da1c   Section        0  VAdcHal.o(i.VAdcHalSetConversionParameters)
    i.VAdcHalSetEnable                       0x0800dab8   Section        0  VAdcHal.o(i.VAdcHalSetEnable)
    i.VAdcHalSetOpMode                       0x0800daec   Section        0  VAdcHal.o(i.VAdcHalSetOpMode)
    i.VAdcHalSetSequencerParameters          0x0800db20   Section        0  VAdcHal.o(i.VAdcHalSetSequencerParameters)
    i.VAdcHalStoreFabID                      0x0800db80   Section        0  VAdcHal.o(i.VAdcHalStoreFabID)
    i.VAdcScalePmicTherm                     0x0800dbd8   Section        0  AdcScalingUtil.o(i.VAdcScalePmicTherm)
    i.VAdcScaleTdkNTCGTherm                  0x0800dbec   Section        0  AdcScalingUtil.o(i.VAdcScaleTdkNTCGTherm)
    i.VAdc_Calibrate                         0x0800dc20   Section        0  DalVAdc.o(i.VAdc_Calibrate)
    i.VAdc_CalibrateInternal                 0x0800dc26   Section        0  DalVAdc.o(i.VAdc_CalibrateInternal)
    VAdc_CalibrateInternal                   0x0800dc27   Thumb Code   220  DalVAdc.o(i.VAdc_CalibrateInternal)
    i.VAdc_Close                             0x0800dd02   Section        0  DalVAdc.o(i.VAdc_Close)
    i.VAdc_DalAdcDevice_Attach               0x0800dd20   Section        0  DalVAdcFwk.o(i.VAdc_DalAdcDevice_Attach)
    i.VAdc_DalAdcDevice_Calibrate            0x0800ddb4   Section        0  DalVAdcFwk.o(i.VAdc_DalAdcDevice_Calibrate)
    VAdc_DalAdcDevice_Calibrate              0x0800ddb5   Thumb Code     6  DalVAdcFwk.o(i.VAdc_DalAdcDevice_Calibrate)
    i.VAdc_DalAdcDevice_Close                0x0800ddba   Section        0  DalVAdcFwk.o(i.VAdc_DalAdcDevice_Close)
    VAdc_DalAdcDevice_Close                  0x0800ddbb   Thumb Code     6  DalVAdcFwk.o(i.VAdc_DalAdcDevice_Close)
    i.VAdc_DalAdcDevice_DeInit               0x0800ddc0   Section        0  DalVAdcFwk.o(i.VAdc_DalAdcDevice_DeInit)
    VAdc_DalAdcDevice_DeInit                 0x0800ddc1   Thumb Code     6  DalVAdcFwk.o(i.VAdc_DalAdcDevice_DeInit)
    i.VAdc_DalAdcDevice_Detach               0x0800ddc6   Section        0  DalVAdcFwk.o(i.VAdc_DalAdcDevice_Detach)
    VAdc_DalAdcDevice_Detach                 0x0800ddc7   Thumb Code     6  DalVAdcFwk.o(i.VAdc_DalAdcDevice_Detach)
    i.VAdc_DalAdcDevice_GetChannelStatus     0x0800ddcc   Section        0  DalVAdcFwk.o(i.VAdc_DalAdcDevice_GetChannelStatus)
    VAdc_DalAdcDevice_GetChannelStatus       0x0800ddcd   Thumb Code     6  DalVAdcFwk.o(i.VAdc_DalAdcDevice_GetChannelStatus)
    i.VAdc_DalAdcDevice_GetDeviceProperties  0x0800ddd2   Section        0  DalVAdcFwk.o(i.VAdc_DalAdcDevice_GetDeviceProperties)
    VAdc_DalAdcDevice_GetDeviceProperties    0x0800ddd3   Thumb Code     6  DalVAdcFwk.o(i.VAdc_DalAdcDevice_GetDeviceProperties)
    i.VAdc_DalAdcDevice_GetInputProperties   0x0800ddd8   Section        0  DalVAdcFwk.o(i.VAdc_DalAdcDevice_GetInputProperties)
    VAdc_DalAdcDevice_GetInputProperties     0x0800ddd9   Thumb Code     6  DalVAdcFwk.o(i.VAdc_DalAdcDevice_GetInputProperties)
    i.VAdc_DalAdcDevice_Info                 0x0800ddde   Section        0  DalVAdcFwk.o(i.VAdc_DalAdcDevice_Info)
    VAdc_DalAdcDevice_Info                   0x0800dddf   Thumb Code    12  DalVAdcFwk.o(i.VAdc_DalAdcDevice_Info)
    i.VAdc_DalAdcDevice_Init                 0x0800ddea   Section        0  DalVAdcFwk.o(i.VAdc_DalAdcDevice_Init)
    VAdc_DalAdcDevice_Init                   0x0800ddeb   Thumb Code     6  DalVAdcFwk.o(i.VAdc_DalAdcDevice_Init)
    i.VAdc_DalAdcDevice_Open                 0x0800ddf0   Section        0  DalVAdcFwk.o(i.VAdc_DalAdcDevice_Open)
    VAdc_DalAdcDevice_Open                   0x0800ddf1   Thumb Code     6  DalVAdcFwk.o(i.VAdc_DalAdcDevice_Open)
    i.VAdc_DalAdcDevice_PowerEvent           0x0800ddf6   Section        0  DalVAdcFwk.o(i.VAdc_DalAdcDevice_PowerEvent)
    VAdc_DalAdcDevice_PowerEvent             0x0800ddf7   Thumb Code     6  DalVAdcFwk.o(i.VAdc_DalAdcDevice_PowerEvent)
    i.VAdc_DalAdcDevice_ReadChannelSync      0x0800ddfc   Section        0  DalVAdcFwk.o(i.VAdc_DalAdcDevice_ReadChannelSync)
    VAdc_DalAdcDevice_ReadChannelSync        0x0800ddfd   Thumb Code     6  DalVAdcFwk.o(i.VAdc_DalAdcDevice_ReadChannelSync)
    i.VAdc_DalAdcDevice_RecalibrateChannel   0x0800de02   Section        0  DalVAdcFwk.o(i.VAdc_DalAdcDevice_RecalibrateChannel)
    VAdc_DalAdcDevice_RecalibrateChannel     0x0800de03   Thumb Code     6  DalVAdcFwk.o(i.VAdc_DalAdcDevice_RecalibrateChannel)
    i.VAdc_DalAdcDevice_RecalibrateChannelSync 0x0800de08   Section        0  DalVAdcFwk.o(i.VAdc_DalAdcDevice_RecalibrateChannelSync)
    VAdc_DalAdcDevice_RecalibrateChannelSync 0x0800de09   Thumb Code     6  DalVAdcFwk.o(i.VAdc_DalAdcDevice_RecalibrateChannelSync)
    i.VAdc_DalAdcDevice_StartConversion      0x0800de0e   Section        0  DalVAdcFwk.o(i.VAdc_DalAdcDevice_StartConversion)
    VAdc_DalAdcDevice_StartConversion        0x0800de0f   Thumb Code     6  DalVAdcFwk.o(i.VAdc_DalAdcDevice_StartConversion)
    i.VAdc_DalAdcDevice_SysRequest           0x0800de14   Section        0  DalVAdcFwk.o(i.VAdc_DalAdcDevice_SysRequest)
    VAdc_DalAdcDevice_SysRequest             0x0800de15   Thumb Code     6  DalVAdcFwk.o(i.VAdc_DalAdcDevice_SysRequest)
    i.VAdc_DeviceDeInit                      0x0800de1a   Section        0  DalVAdc.o(i.VAdc_DeviceDeInit)
    i.VAdc_DeviceInit                        0x0800de3c   Section        0  DalVAdc.o(i.VAdc_DeviceInit)
    i.VAdc_DriverDeInit                      0x0800df7c   Section        0  DalVAdc.o(i.VAdc_DriverDeInit)
    i.VAdc_DriverInit                        0x0800df80   Section        0  DalVAdc.o(i.VAdc_DriverInit)
    i.VAdc_GetChannel                        0x0800df84   Section        0  DalVAdc.o(i.VAdc_GetChannel)
    i.VAdc_GetChannelStatus                  0x0800dfc8   Section        0  DalVAdc.o(i.VAdc_GetChannelStatus)
    i.VAdc_GetDeviceProperties               0x0800dfce   Section        0  DalVAdc.o(i.VAdc_GetDeviceProperties)
    i.VAdc_Info                              0x0800dfda   Section        0  DalVAdc.o(i.VAdc_Info)
    i.VAdc_Open                              0x0800dfde   Section        0  DalVAdc.o(i.VAdc_Open)
    i.VAdc_PowerEvent                        0x0800dffc   Section        0  DalVAdc.o(i.VAdc_PowerEvent)
    i.VAdc_ProcessConversionResult           0x0800e000   Section        0  DalVAdc.o(i.VAdc_ProcessConversionResult)
    VAdc_ProcessConversionResult             0x0800e001   Thumb Code   200  DalVAdc.o(i.VAdc_ProcessConversionResult)
    i.VAdc_ReadAdc                           0x0800e0cc   Section        0  DalVAdc.o(i.VAdc_ReadAdc)
    VAdc_ReadAdc                             0x0800e0cd   Thumb Code   126  DalVAdc.o(i.VAdc_ReadAdc)
    i.VAdc_ReadAdcChannel                    0x0800e14a   Section        0  DalVAdc.o(i.VAdc_ReadAdcChannel)
    VAdc_ReadAdcChannel                      0x0800e14b   Thumb Code   140  DalVAdc.o(i.VAdc_ReadAdcChannel)
    i.VAdc_ReadBytes                         0x0800e1d6   Section        0  DalVAdc.o(i.VAdc_ReadBytes)
    VAdc_ReadBytes                           0x0800e1d7   Thumb Code    48  DalVAdc.o(i.VAdc_ReadBytes)
    i.VAdc_ReadChannelSync                   0x0800e206   Section        0  DalVAdc.o(i.VAdc_ReadChannelSync)
    i.VAdc_RecalibrateChannel                0x0800e246   Section        0  DalVAdc.o(i.VAdc_RecalibrateChannel)
    i.VAdc_RecalibrateChannelSync            0x0800e24c   Section        0  DalVAdc.o(i.VAdc_RecalibrateChannelSync)
    i.VAdc_ScaleResult                       0x0800e2ee   Section        0  DalVAdc.o(i.VAdc_ScaleResult)
    i.VAdc_ScaleResultAbsolute               0x0800e348   Section        0  DalVAdc.o(i.VAdc_ScaleResultAbsolute)
    i.VAdc_StartConversion                   0x0800e388   Section        0  DalVAdc.o(i.VAdc_StartConversion)
    i.VAdc_StartConversionInternal           0x0800e38e   Section        0  DalVAdc.o(i.VAdc_StartConversionInternal)
    VAdc_StartConversionInternal             0x0800e38f   Thumb Code   122  DalVAdc.o(i.VAdc_StartConversionInternal)
    i.VAdc_WriteBytes                        0x0800e408   Section        0  DalVAdc.o(i.VAdc_WriteBytes)
    VAdc_WriteBytes                          0x0800e409   Thumb Code    44  DalVAdc.o(i.VAdc_WriteBytes)
    i._AllocAndInitMemObj                    0x0800e434   Section        0  DALModEnv.o(i._AllocAndInitMemObj)
    _AllocAndInitMemObj                      0x0800e435   Thumb Code   106  DALModEnv.o(i._AllocAndInitMemObj)
    i._DALSYSCMN_GetDeviceObject             0x0800e4ac   Section        0  DALModEnv.o(i._DALSYSCMN_GetDeviceObject)
    _DALSYSCMN_GetDeviceObject               0x0800e4ad   Thumb Code    76  DALModEnv.o(i._DALSYSCMN_GetDeviceObject)
    i._DALSYS_GetDALPropertyHandle           0x0800e4fc   Section        0  DALProps.o(i._DALSYS_GetDALPropertyHandle)
    i._DALSYS_GetPropertyValue               0x0800e53e   Section        0  DALProps.o(i._DALSYS_GetPropertyValue)
    i._DALSYS_memscpy                        0x0800e620   Section        0  DALModEnv.o(i._DALSYS_memscpy)
    i._FindOrAllocHeader                     0x0800e624   Section        0  DALGlbCtxt.o(i._FindOrAllocHeader)
    _FindOrAllocHeader                       0x0800e625   Thumb Code    84  DALGlbCtxt.o(i._FindOrAllocHeader)
    i._Init                                  0x0800e67c   Section        0  DALMemDesc.o(i._Init)
    _Init                                    0x0800e67d   Thumb Code    72  DALMemDesc.o(i._Init)
    i._MemDescCache                          0x0800e6dc   Section        0  DALMemDesc.o(i._MemDescCache)
    _MemDescCache                            0x0800e6dd   Thumb Code    60  DALMemDesc.o(i._MemDescCache)
    i._PopulateLockHdr                       0x0800e71c   Section        0  DALGlbCtxt.o(i._PopulateLockHdr)
    _PopulateLockHdr                         0x0800e71d   Thumb Code    32  DALGlbCtxt.o(i._PopulateLockHdr)
    i._PopulateOutDescList                   0x0800e73c   Section        0  DALMemDesc.o(i._PopulateOutDescList)
    _PopulateOutDescList                     0x0800e73d   Thumb Code   390  DALMemDesc.o(i._PopulateOutDescList)
    i._PopulateProp                          0x0800e8d4   Section        0  DALProps.o(i._PopulateProp)
    _PopulateProp                            0x0800e8d5   Thumb Code   246  DALProps.o(i._PopulateProp)
    i.__rt_raise                             0x0800e9cc   Section        0  boot_error_handler.o(i.__rt_raise)
    i.__stack_chk_fail                       0x0800e9fc   Section        0  boot_error_handler.o(i.__stack_chk_fail)
    i._is_digit                              0x0800e9fe   Section        0  __printf_wp.o(i._is_digit)
    i.add                                    0x0800ea0c   Section        0  secmath_montmul_utils.o(i.add)
    i.add_ram_partitions                     0x0800ea3c   Section        0  boot_ram_partition.o(i.add_ram_partitions)
    add_ram_partitions                       0x0800ea3d   Thumb Code   106  boot_ram_partition.o(i.add_ram_partitions)
    i.add_single_ram_partition               0x0800eaac   Section        0  boot_ram_partition.o(i.add_single_ram_partition)
    add_single_ram_partition                 0x0800eaad   Thumb Code    48  boot_ram_partition.o(i.add_single_ram_partition)
    i.add_system_ram_partitions              0x0800eadc   Section        0  boot_ram_partition.o(i.add_system_ram_partitions)
    add_system_ram_partitions                0x0800eadd   Thumb Code   148  boot_ram_partition.o(i.add_system_ram_partitions)
    i.apt_canary_overwrite                   0x0800eb8c   Section        0  boot_apt_test.o(i.apt_canary_overwrite)
    apt_canary_overwrite                     0x0800eb8d   Thumb Code    82  boot_apt_test.o(i.apt_canary_overwrite)
    i.apt_single_test                        0x0800ec08   Section        0  boot_apt_test.o(i.apt_single_test)
    apt_single_test                          0x0800ec09   Thumb Code   162  boot_apt_test.o(i.apt_single_test)
    i.apt_test                               0x0800ed60   Section        0  boot_apt_test.o(i.apt_test)
    i.assignChannel                          0x0800ed74   Section        0  SpmiCfg.o(i.assignChannel)
    assignChannel                            0x0800ed75   Thumb Code    38  SpmiCfg.o(i.assignChannel)
    i.bByteCompare                           0x0800eda0   Section        0  boot_util.o(i.bByteCompare)
    i.bLoad8                                 0x0800edce   Section        0  boot_util.o(i.bLoad8)
    i.bStor8                                 0x0800edde   Section        0  boot_util.o(i.bStor8)
    i.bam_deinit                             0x0800edf8   Section        0  bams.o(i.bam_deinit)
    i.bam_drv_init                           0x0800eecc   Section        0  bams.o(i.bam_drv_init)
    i.bam_init                               0x0800eef0   Section        0  bams.o(i.bam_init)
    i.bam_isr                                0x0800f21c   Section        0  bams.o(i.bam_isr)
    i.bam_needs_init                         0x0800f21e   Section        0  bams.o(i.bam_needs_init)
    bam_needs_init                           0x0800f21f   Thumb Code    28  bams.o(i.bam_needs_init)
    i.bam_needs_secure_init                  0x0800f23a   Section        0  bams.o(i.bam_needs_secure_init)
    bam_needs_secure_init                    0x0800f23b   Thumb Code    26  bams.o(i.bam_needs_secure_init)
    i.bam_osal_cachecmd                      0x0800f254   Section        0  bamosal.o(i.bam_osal_cachecmd)
    i.bam_osal_free                          0x0800f26c   Section        0  bamosal.o(i.bam_osal_free)
    i.bam_osal_freememregion                 0x0800f270   Section        0  bamosal.o(i.bam_osal_freememregion)
    i.bam_osal_init                          0x0800f280   Section        0  bamosal.o(i.bam_osal_init)
    i.bam_osal_isrinstall                    0x0800f282   Section        0  bamosal.o(i.bam_osal_isrinstall)
    i.bam_osal_isruninstall                  0x0800f286   Section        0  bamosal.o(i.bam_osal_isruninstall)
    i.bam_osal_malloc                        0x0800f288   Section        0  bamosal.o(i.bam_osal_malloc)
    i.bam_osal_mallocmemregion               0x0800f29c   Section        0  bamosal.o(i.bam_osal_mallocmemregion)
    i.bam_osal_memorybarrier                 0x0800f2ec   Section        0  bamosal.o(i.bam_osal_memorybarrier)
    i.bam_osal_syncdestroy                   0x0800f2f0   Section        0  bamosal.o(i.bam_osal_syncdestroy)
    i.bam_osal_syncenter                     0x0800f2f4   Section        0  bamosal.o(i.bam_osal_syncenter)
    i.bam_osal_syncinit                      0x0800f2f6   Section        0  bamosal.o(i.bam_osal_syncinit)
    i.bam_osal_syncleave                     0x0800f2fa   Section        0  bamosal.o(i.bam_osal_syncleave)
    i.bam_pipe_deinit                        0x0800f2fc   Section        0  bams.o(i.bam_pipe_deinit)
    i.bam_pipe_disable                       0x0800f382   Section        0  bams.o(i.bam_pipe_disable)
    i.bam_pipe_enable                        0x0800f3d6   Section        0  bams.o(i.bam_pipe_enable)
    i.bam_pipe_eot_handler                   0x0800f452   Section        0  bams.o(i.bam_pipe_eot_handler)
    i.bam_pipe_init                          0x0800f5e0   Section        0  bams.o(i.bam_pipe_init)
    i.bam_pipe_poll                          0x0800f72e   Section        0  bams.o(i.bam_pipe_poll)
    i.bam_pipe_setirqmode                    0x0800f792   Section        0  bams.o(i.bam_pipe_setirqmode)
    i.bam_pipe_transfer                      0x0800f7ee   Section        0  bams.o(i.bam_pipe_transfer)
    i.bam_secure_init                        0x0800f834   Section        0  bams.o(i.bam_secure_init)
    i.bam_tgt_getcfg                         0x0800f86c   Section        0  bamtgtcfg.o(i.bam_tgt_getcfg)
    i.bam_tgt_getnumdevs                     0x0800f8a4   Section        0  bamtgtcfg.o(i.bam_tgt_getnumdevs)
    i.bamcore_bam_enabled                    0x0800f8dc   Section        0  bamcore.o(i.bamcore_bam_enabled)
    i.bamcore_check                          0x0800f936   Section        0  bamcore.o(i.bamcore_check)
    i.bamcore_deinit                         0x0800fa58   Section        0  bamcore.o(i.bamcore_deinit)
    i.bamcore_getirqmode                     0x0800fa6a   Section        0  bamcore.o(i.bamcore_getirqmode)
    i.bamcore_init                           0x0800fa6e   Section        0  bamcore.o(i.bamcore_init)
    i.bamcore_lpae_supported                 0x0800fae8   Section        0  bamcore.o(i.bamcore_lpae_supported)
    i.bamcore_pipe_deinit                    0x0800faec   Section        0  bamcore.o(i.bamcore_pipe_deinit)
    i.bamcore_pipe_get_toggle                0x0800fb34   Section        0  bamcore.o(i.bamcore_pipe_get_toggle)
    i.bamcore_pipe_getandclearirqstatus      0x0800fb50   Section        0  bamcore.o(i.bamcore_pipe_getandclearirqstatus)
    i.bamcore_pipe_getdescreadoffset         0x0800fb6c   Section        0  bamcore.o(i.bamcore_pipe_getdescreadoffset)
    i.bamcore_pipe_init                      0x0800fb80   Section        0  bamcore.o(i.bamcore_pipe_init)
    i.bamcore_pipe_nwd_done                  0x0800fc60   Section        0  bamcore.o(i.bamcore_pipe_nwd_done)
    i.bamcore_pipe_secure_init               0x0800fc80   Section        0  bamcore.o(i.bamcore_pipe_secure_init)
    i.bamcore_pipe_setdescwriteoffset        0x0800fd34   Section        0  bamcore.o(i.bamcore_pipe_setdescwriteoffset)
    i.bamcore_pipe_setirqmode                0x0800fd48   Section        0  bamcore.o(i.bamcore_pipe_setirqmode)
    i.bamcore_pipe_setlockgroup              0x0800fdbc   Section        0  bamcore.o(i.bamcore_pipe_setlockgroup)
    i.bamcore_secure_init                    0x0800fdd8   Section        0  bamcore.o(i.bamcore_secure_init)
    i.bamcore_secure_set_sg                  0x0800fe48   Section        0  bamcore.o(i.bamcore_secure_set_sg)
    i.bamcore_setirqmode                     0x0800fea8   Section        0  bamcore.o(i.bamcore_setirqmode)
    i.bamdev_read_reg_field                  0x0800fee0   Section        0  bamcore.o(i.bamdev_read_reg_field)
    bamdev_read_reg_field                    0x0800fee1   Thumb Code     8  bamcore.o(i.bamdev_read_reg_field)
    i.bamdev_write_reg_field                 0x0800fee8   Section        0  bamcore.o(i.bamdev_write_reg_field)
    i.bami_pipe_transfer_no_lock             0x0800ff00   Section        0  bams.o(i.bami_pipe_transfer_no_lock)
    i.boot_BootTempCheck                     0x0800ffc4   Section        0  boot_extern_tsensor_interface.o(i.boot_BootTempCheck)
    i.boot_CeMLDeInit                        0x0800ffc8   Section        0  boot_extern_crypto_interface.o(i.boot_CeMLDeInit)
    i.boot_CeMLHashDeInit                    0x0800ffcc   Section        0  boot_extern_crypto_interface.o(i.boot_CeMLHashDeInit)
    i.boot_CeMLHashFinal                     0x0800ffd0   Section        0  boot_extern_crypto_interface.o(i.boot_CeMLHashFinal)
    i.boot_CeMLHashInit                      0x0800ffd4   Section        0  boot_extern_crypto_interface.o(i.boot_CeMLHashInit)
    i.boot_CeMLHashUpdate                    0x0800ffd8   Section        0  boot_extern_crypto_interface.o(i.boot_CeMLHashUpdate)
    i.boot_CeMLInit                          0x0800ffdc   Section        0  boot_extern_crypto_interface.o(i.boot_CeMLInit)
    i.boot_DALFW_MemDescBufPtr               0x0800ffe0   Section        0  boot_extern_dal_interface.o(i.boot_DALFW_MemDescBufPtr)
    i.boot_DALFW_MemDescInit                 0x0800ffe4   Section        0  boot_extern_dal_interface.o(i.boot_DALFW_MemDescInit)
    i.boot_DALSYS_HeapInit                   0x0800ffe8   Section        0  boot_extern_dal_interface.o(i.boot_DALSYS_HeapInit)
    i.boot_DALSYS_InitMod                    0x0800ffec   Section        0  boot_extern_dal_interface.o(i.boot_DALSYS_InitMod)
    i.boot_DALSYS_MemInfo                    0x0800fff0   Section        0  boot_extern_dal_interface.o(i.boot_DALSYS_MemInfo)
    i.boot_DALSYS_MemRegionAlloc             0x0800fff4   Section        0  boot_extern_dal_interface.o(i.boot_DALSYS_MemRegionAlloc)
    i.boot_DAL_DeviceAttach                  0x08010004   Section        0  boot_extern_dal_interface.o(i.boot_DAL_DeviceAttach)
    i.boot_DAL_DeviceAttachEx                0x08010008   Section        0  boot_extern_dal_interface.o(i.boot_DAL_DeviceAttachEx)
    i.boot_DAL_DeviceDetach                  0x0801000c   Section        0  boot_extern_dal_interface.o(i.boot_DAL_DeviceDetach)
    i.boot_DalDevice_Close                   0x08010010   Section        0  boot_extern_dal_interface.o(i.boot_DalDevice_Close)
    i.boot_DalPlatformInfo_CDTConfigPostDDR  0x0801001a   Section        0  boot_extern_platforminfo_interface.o(i.boot_DalPlatformInfo_CDTConfigPostDDR)
    i.boot_DalPlatformInfo_CDTConfigPreDDR   0x08010020   Section        0  boot_extern_platforminfo_interface.o(i.boot_DalPlatformInfo_CDTConfigPreDDR)
    i.boot_ICB_Config_Init                   0x08010026   Section        0  boot_extern_bus_interface.o(i.boot_ICB_Config_Init)
    i.boot_ICB_Segments_Init                 0x0801002a   Section        0  boot_extern_bus_interface.o(i.boot_ICB_Segments_Init)
    i.boot_PrngML_getdata_lite               0x0801002e   Section        0  boot_extern_crypto_interface.o(i.boot_PrngML_getdata_lite)
    i.boot_Tsens_Init                        0x08010032   Section        0  boot_extern_tsensor_interface.o(i.boot_Tsens_Init)
    i.boot_apt_test                          0x08010036   Section        0  boot_extern_apt_interface.o(i.boot_apt_test)
    i.boot_auth_image                        0x0801003c   Section        0  boot_authenticator.o(i.boot_auth_image)
    i.boot_auth_load_header                  0x080100e8   Section        0  boot_authenticator.o(i.boot_auth_load_header)
    i.boot_bam_drv_init                      0x080101c8   Section        0  boot_extern_bam_interface.o(i.boot_bam_drv_init)
    i.boot_busywait                          0x080101cc   Section        0  boot_extern_busywait_interface.o(i.boot_busywait)
    i.boot_busywait_init                     0x080101d0   Section        0  boot_extern_busywait_interface.o(i.boot_busywait_init)
    i.boot_cache_set_memory_barrier          0x080101d4   Section        0  boot_smem.o(i.boot_cache_set_memory_barrier)
    i.boot_check_device_temp                 0x08010208   Section        0  boot_thermal_management.o(i.boot_check_device_temp)
    i.boot_clobber_add_global_protection_region 0x0801023c   Section        0  boot_clobber_prot.o(i.boot_clobber_add_global_protection_region)
    i.boot_clobber_add_local_hole            0x080102c4   Section        0  boot_clobber_prot_local.o(i.boot_clobber_add_local_hole)
    i.boot_clobber_check_global_address_range 0x08010328   Section        0  boot_clobber_prot.o(i.boot_clobber_check_global_address_range)
    i.boot_clobber_check_global_whitelist_range 0x080103a0   Section        0  boot_clobber_prot.o(i.boot_clobber_check_global_whitelist_range)
    i.boot_clobber_check_local_address_range 0x0801041c   Section        0  boot_clobber_prot_local.o(i.boot_clobber_check_local_address_range)
    i.boot_clobber_clear_whitelist_table     0x080104a4   Section        0  boot_clobber_prot.o(i.boot_clobber_clear_whitelist_table)
    i.boot_clobber_import_whitelist_table    0x080104e8   Section        0  boot_clobber_prot.o(i.boot_clobber_import_whitelist_table)
    i.boot_clobber_local_init                0x080104f4   Section        0  boot_clobber_prot_local.o(i.boot_clobber_local_init)
    i.boot_clobber_remove_global_whitelist_region 0x08010500   Section        0  boot_clobber_prot.o(i.boot_clobber_remove_global_whitelist_region)
    i.boot_clobber_remove_local_hole         0x0801055c   Section        0  boot_clobber_prot_local.o(i.boot_clobber_remove_local_hole)
    i.boot_clock_SetUARTClockFrequency       0x080105b4   Section        0  boot_extern_clk_interface.o(i.boot_clock_SetUARTClockFrequency)
    i.boot_clock_debug_init                  0x080105b8   Section        0  boot_extern_clk_interface.o(i.boot_clock_debug_init)
    i.boot_clock_disable_UARTClock           0x080105bc   Section        0  boot_extern_clk_interface.o(i.boot_clock_disable_UARTClock)
    i.boot_clock_exit_boot                   0x080105c0   Section        0  boot_extern_clk_interface.o(i.boot_clock_exit_boot)
    i.boot_clock_get_ddr_speed               0x080105c4   Section        0  boot_extern_clk_interface.o(i.boot_clock_get_ddr_speed)
    i.boot_clock_init                        0x080105c8   Section        0  boot_extern_clk_interface.o(i.boot_clock_init)
    i.boot_clock_set_L2_perf_level           0x080105d0   Section        0  boot_extern_clk_interface.o(i.boot_clock_set_L2_perf_level)
    i.boot_clock_set_cpu_perf_level          0x080105d4   Section        0  boot_extern_clk_interface.o(i.boot_clock_set_cpu_perf_level)
    i.boot_config_data_table_init            0x080105d8   Section        0  boot_config_data.o(i.boot_config_data_table_init)
    i.boot_config_process_bl                 0x08010698   Section        0  boot_config.o(i.boot_config_process_bl)
    i.boot_config_process_entry              0x080106e4   Section        0  boot_config.o(i.boot_config_process_entry)
    boot_config_process_entry                0x080106e5   Thumb Code   716  boot_config.o(i.boot_config_process_entry)
    i.boot_copy_config_data_block            0x080109e8   Section        0  boot_config_data.o(i.boot_copy_config_data_block)
    i.boot_copy_data                         0x08010a10   Section        0  boot_flash_trans_nand.o(i.boot_copy_data)
    boot_copy_data                           0x08010a11   Thumb Code    18  boot_flash_trans_nand.o(i.boot_copy_data)
    i.boot_count_set_bits                    0x08010a22   Section        0  boot_util.o(i.boot_count_set_bits)
    i.boot_data_abort_c_handler              0x08010a34   Section        0  boot_error_handler.o(i.boot_data_abort_c_handler)
    i.boot_dload_check                       0x08010a5c   Section        0  boot_dload.o(i.boot_dload_check)
    i.boot_dload_clock_init                  0x08010aec   Section        0  boot_extern_clk_interface.o(i.boot_dload_clock_init)
    i.boot_dload_dump_security_regions       0x08010af0   Section        0  boot_dload_debug.o(i.boot_dload_dump_security_regions)
    i.boot_dload_entry                       0x08010b48   Section        0  boot_dload.o(i.boot_dload_entry)
    i.boot_dload_is_dload_mode_set           0x08010b68   Section        0  boot_dload.o(i.boot_dload_is_dload_mode_set)
    i.boot_dload_set_cookie                  0x08010b7c   Section        0  boot_dload.o(i.boot_dload_set_cookie)
    i.boot_dload_transition_enter_sahara     0x08010b8c   Section        0  sbl1_target.o(i.boot_dload_transition_enter_sahara)
    i.boot_dload_transition_pbl_forced_dload 0x08010c6c   Section        0  boot_dload.o(i.boot_dload_transition_pbl_forced_dload)
    i.boot_do_procedures                     0x08010c88   Section        0  boot_mc.o(i.boot_do_procedures)
    i.boot_eeprom_dev_deinit                 0x08010cc4   Section        0  boot_config_eeprom.o(i.boot_eeprom_dev_deinit)
    boot_eeprom_dev_deinit                   0x08010cc5   Thumb Code    28  boot_config_eeprom.o(i.boot_eeprom_dev_deinit)
    i.boot_eeprom_dev_init                   0x08010ce4   Section        0  boot_config_eeprom.o(i.boot_eeprom_dev_init)
    boot_eeprom_dev_init                     0x08010ce5   Thumb Code    96  boot_config_eeprom.o(i.boot_eeprom_dev_init)
    i.boot_eeprom_read                       0x08010d54   Section        0  boot_config_eeprom.o(i.boot_eeprom_read)
    boot_eeprom_read                         0x08010d55   Thumb Code    82  boot_config_eeprom.o(i.boot_eeprom_read)
    i.boot_elf_enable_hash_checking          0x08010db0   Section        0  boot_elf_loader.o(i.boot_elf_enable_hash_checking)
    boot_elf_enable_hash_checking            0x08010db1   Thumb Code    50  boot_elf_loader.o(i.boot_elf_enable_hash_checking)
    i.boot_elf_load_and_verify_image         0x08010e00   Section        0  boot_elf_loader.o(i.boot_elf_load_and_verify_image)
    boot_elf_load_and_verify_image           0x08010e01   Thumb Code   100  boot_elf_loader.o(i.boot_elf_load_and_verify_image)
    i.boot_elf_load_and_verify_image_in_chunks 0x08010e88   Section        0  boot_elf_loader.o(i.boot_elf_load_and_verify_image_in_chunks)
    boot_elf_load_and_verify_image_in_chunks 0x08010e89   Thumb Code   102  boot_elf_loader.o(i.boot_elf_load_and_verify_image_in_chunks)
    i.boot_elf_load_init_hash_segment        0x08010f14   Section        0  boot_elf_loader.o(i.boot_elf_load_init_hash_segment)
    i.boot_elf_load_seg_generic              0x080110d8   Section        0  boot_elf_loader.o(i.boot_elf_load_seg_generic)
    boot_elf_load_seg_generic                0x080110d9   Thumb Code   184  boot_elf_loader.o(i.boot_elf_load_seg_generic)
    i.boot_elf_load_seg_in_chunks            0x080111ac   Section        0  boot_elf_loader.o(i.boot_elf_load_seg_in_chunks)
    boot_elf_load_seg_in_chunks              0x080111ad   Thumb Code   348  boot_elf_loader.o(i.boot_elf_load_seg_in_chunks)
    i.boot_elf_open_and_parse_elf_header     0x08011324   Section        0  boot_elf_loader.o(i.boot_elf_open_and_parse_elf_header)
    boot_elf_open_and_parse_elf_header       0x08011325   Thumb Code   186  boot_elf_loader.o(i.boot_elf_open_and_parse_elf_header)
    i.boot_elf_phdr_is_loadable              0x08011408   Section        0  boot_elf_loader.o(i.boot_elf_phdr_is_loadable)
    boot_elf_phdr_is_loadable                0x08011409   Thumb Code    74  boot_elf_loader.o(i.boot_elf_phdr_is_loadable)
    i.boot_elf_populate_meta_info            0x08011470   Section        0  boot_elf_loader.o(i.boot_elf_populate_meta_info)
    boot_elf_populate_meta_info              0x08011471   Thumb Code    30  boot_elf_loader.o(i.boot_elf_populate_meta_info)
    i.boot_elf_set_auth_and_ssa_enable       0x080114ac   Section        0  boot_elf_loader.o(i.boot_elf_set_auth_and_ssa_enable)
    i.boot_elf_verify_elf_hdr                0x080114b8   Section        0  boot_elf_loader.o(i.boot_elf_verify_elf_hdr)
    i.boot_elf_verify_header                 0x0801161c   Section        0  boot_elf_loader.o(i.boot_elf_verify_header)
    boot_elf_verify_header                   0x0801161d   Thumb Code   138  boot_elf_loader.o(i.boot_elf_verify_header)
    i.boot_elf_verify_segment                0x080116b0   Section        0  boot_elf_loader.o(i.boot_elf_verify_segment)
    boot_elf_verify_segment                  0x080116b1   Thumb Code   202  boot_elf_loader.o(i.boot_elf_verify_segment)
    i.boot_elf_verify_start_addr             0x080117a4   Section        0  boot_elf_loader.o(i.boot_elf_verify_start_addr)
    boot_elf_verify_start_addr               0x080117a5   Thumb Code   152  boot_elf_loader.o(i.boot_elf_verify_start_addr)
    i.boot_elf_verify_start_addr_32          0x08011844   Section        0  boot_elf_loader.o(i.boot_elf_verify_start_addr_32)
    boot_elf_verify_start_addr_32            0x08011845   Thumb Code    92  boot_elf_loader.o(i.boot_elf_verify_start_addr_32)
    i.boot_elf_ziinit_structures             0x080118a8   Section        0  boot_elf_loader.o(i.boot_elf_ziinit_structures)
    i.boot_err_fatal                         0x08011914   Section        0  boot_error_handler.o(i.boot_err_fatal)
    i.boot_error_handler                     0x08011944   Section        0  boot_error_handler.o(i.boot_error_handler)
    i.boot_fiq_c_handler                     0x08011a28   Section        0  boot_error_handler.o(i.boot_fiq_c_handler)
    i.boot_flash_block_get_state             0x08011a58   Section        0  boot_extern_flash_interface.o(i.boot_flash_block_get_state)
    i.boot_flash_boot_ops_get_parti_tbl      0x08011a5e   Section        0  boot_extern_flash_interface.o(i.boot_flash_boot_ops_get_parti_tbl)
    i.boot_flash_configure_target_image      0x08011a62   Section        0  sbl1_mc.o(i.boot_flash_configure_target_image)
    i.boot_flash_copy_pages                  0x08011a76   Section        0  boot_extern_flash_interface.o(i.boot_flash_copy_pages)
    i.boot_flash_dev_close_image             0x08011a7c   Section        0  sbl1_mc.o(i.boot_flash_dev_close_image)
    i.boot_flash_dev_default_stub            0x08011a90   Section        0  boot_flash_dev_nand.o(i.boot_flash_dev_default_stub)
    i.boot_flash_dev_if_get_singleton        0x08011a94   Section        0  boot_flash_dev_if.o(i.boot_flash_dev_if_get_singleton)
    i.boot_flash_dev_if_lock_singleton       0x08011acc   Section        0  boot_flash_dev_if.o(i.boot_flash_dev_if_lock_singleton)
    i.boot_flash_dev_if_register_singleton   0x08011b08   Section        0  boot_flash_dev_if.o(i.boot_flash_dev_if_register_singleton)
    i.boot_flash_dev_nand_if_get_singleton   0x08011b44   Section        0  boot_flash_dev_nand_if.o(i.boot_flash_dev_nand_if_get_singleton)
    i.boot_flash_dev_nand_if_register_singleton 0x08011b84   Section        0  boot_flash_dev_nand_if.o(i.boot_flash_dev_nand_if_register_singleton)
    i.boot_flash_dev_nand_init_and_register  0x08011bc8   Section        0  boot_flash_dev_nand.o(i.boot_flash_dev_nand_init_and_register)
    i.boot_flash_dev_nand_store_partition_table 0x08011c7c   Section        0  boot_flash_dev_nand.o(i.boot_flash_dev_nand_store_partition_table)
    i.boot_flash_dev_open_image              0x08011cd4   Section        0  sbl1_mc.o(i.boot_flash_dev_open_image)
    i.boot_flash_erase_blocks                0x08011ce8   Section        0  boot_extern_flash_interface.o(i.boot_flash_erase_blocks)
    i.boot_flash_find_partition_entry        0x08011cf0   Section        0  boot_flash_partition.o(i.boot_flash_find_partition_entry)
    i.boot_flash_get_info                    0x08011d78   Section        0  boot_extern_flash_interface.o(i.boot_flash_get_info)
    i.boot_flash_init                        0x08011d80   Section        0  boot_flash.o(i.boot_flash_init)
    i.boot_flash_open_partition              0x08011dd0   Section        0  boot_extern_flash_interface.o(i.boot_flash_open_partition)
    i.boot_flash_read_pages                  0x08011dd6   Section        0  boot_extern_flash_interface.o(i.boot_flash_read_pages)
    i.boot_flash_target_init                 0x08011de4   Section        0  boot_flash_target.o(i.boot_flash_target_init)
    i.boot_flash_trans_factory_open          0x08011e3c   Section        0  boot_flash_dev_nand.o(i.boot_flash_trans_factory_open)
    i.boot_flash_trans_nand_factory_close    0x08011e48   Section        0  boot_flash_trans_nand.o(i.boot_flash_trans_nand_factory_close)
    boot_flash_trans_nand_factory_close      0x08011e49   Thumb Code    92  boot_flash_trans_nand.o(i.boot_flash_trans_nand_factory_close)
    i.boot_flash_trans_nand_factory_init     0x08011ec4   Section        0  boot_flash_trans_nand.o(i.boot_flash_trans_nand_factory_init)
    i.boot_flash_trans_nand_factory_open     0x08011ef0   Section        0  boot_flash_trans_nand.o(i.boot_flash_trans_nand_factory_open)
    boot_flash_trans_nand_factory_open       0x08011ef1   Thumb Code    78  boot_flash_trans_nand.o(i.boot_flash_trans_nand_factory_open)
    i.boot_flash_trans_nand_init             0x08011f60   Section        0  boot_flash_trans_nand.o(i.boot_flash_trans_nand_init)
    boot_flash_trans_nand_init               0x08011f61   Thumb Code   140  boot_flash_trans_nand.o(i.boot_flash_trans_nand_init)
    i.boot_flash_trans_nand_read             0x08012018   Section        0  boot_flash_trans_nand.o(i.boot_flash_trans_nand_read)
    boot_flash_trans_nand_read               0x08012019   Thumb Code   444  boot_flash_trans_nand.o(i.boot_flash_trans_nand_read)
    i.boot_flash_trans_nand_set_copy_callback 0x080121f4   Section        0  boot_flash_trans_nand.o(i.boot_flash_trans_nand_set_copy_callback)
    boot_flash_trans_nand_set_copy_callback  0x080121f5   Thumb Code    30  boot_flash_trans_nand.o(i.boot_flash_trans_nand_set_copy_callback)
    i.boot_flash_trans_read                  0x08012230   Section        0  sbl1_mc.o(i.boot_flash_trans_read)
    i.boot_flash_write_pages                 0x08012260   Section        0  boot_extern_flash_interface.o(i.boot_flash_write_pages)
    i.boot_get_bit_set_position              0x0801226c   Section        0  boot_flash_dev_nand.o(i.boot_get_bit_set_position)
    i.boot_get_config_data_block             0x08012278   Section        0  boot_config_data.o(i.boot_get_config_data_block)
    i.boot_get_ddr_info                      0x08012328   Section        0  boot_ddr_info.o(i.boot_get_ddr_info)
    i.boot_get_delta_time                    0x08012364   Section        0  boot_logger_timer.o(i.boot_get_delta_time)
    i.boot_get_elf_eident_class              0x08012384   Section        0  boot_elf_loader.o(i.boot_get_elf_eident_class)
    i.boot_get_elf_entry_address             0x08012390   Section        0  boot_elf_loader.o(i.boot_get_elf_entry_address)
    i.boot_get_hash_buffer_size              0x080123b4   Section        0  boot_hash_buffer.o(i.boot_get_hash_buffer_size)
    i.boot_get_hash_segment_buffer           0x080123bc   Section        0  boot_hash_buffer.o(i.boot_get_hash_segment_buffer)
    i.boot_get_hash_table_auth_result        0x080123c4   Section        0  boot_hash_buffer.o(i.boot_get_hash_table_auth_result)
    i.boot_get_sbl_auth_verified_info        0x080123d0   Section        0  boot_authenticator.o(i.boot_get_sbl_auth_verified_info)
    i.boot_get_time                          0x080123d8   Section        0  boot_logger_timer.o(i.boot_get_time)
    i.boot_get_time_count                    0x08012408   Section        0  boot_logger_timer.o(i.boot_get_time_count)
    boot_get_time_count                      0x08012409   Thumb Code    12  boot_logger_timer.o(i.boot_get_time_count)
    i.boot_gpio_init                         0x08012418   Section        0  boot_extern_tlmm_interface.o(i.boot_gpio_init)
    i.boot_hand_control_to_deviceprogrammer_ddr_main 0x08012448   Section        0  sbl1_config.o(i.boot_hand_control_to_deviceprogrammer_ddr_main)
    boot_hand_control_to_deviceprogrammer_ddr_main 0x08012449   Thumb Code     2  sbl1_config.o(i.boot_hand_control_to_deviceprogrammer_ddr_main)
    i.boot_hash                              0x0801244a   Section        0  boot_hash.o(i.boot_hash)
    i.boot_hashFinal                         0x08012480   Section        0  boot_hash.o(i.boot_hashFinal)
    i.boot_hashInit                          0x08012530   Section        0  boot_hash.o(i.boot_hashInit)
    i.boot_hashUpdate                        0x0801258c   Section        0  boot_hash.o(i.boot_hashUpdate)
    i.boot_image_populate_uuid               0x080125ca   Section        0  boot_extern_smem_interface.o(i.boot_image_populate_uuid)
    i.boot_image_version_initialize_version_table 0x080125ce   Section        0  boot_extern_smem_interface.o(i.boot_image_version_initialize_version_table)
    i.boot_image_version_populate_version    0x080125d2   Section        0  boot_extern_smem_interface.o(i.boot_image_version_populate_version)
    i.boot_init_for_dload                    0x080125d6   Section        0  boot_dload.o(i.boot_init_for_dload)
    i.boot_init_stack_chk_canary             0x080125d8   Section        0  boot_error_handler.o(i.boot_init_stack_chk_canary)
    i.boot_init_timer                        0x08012618   Section        0  boot_logger_timer.o(i.boot_init_timer)
    i.boot_install_error_callback            0x08012638   Section        0  boot_error_handler.o(i.boot_install_error_callback)
    boot_install_error_callback              0x08012639   Thumb Code    40  boot_error_handler.o(i.boot_install_error_callback)
    i.boot_irq_c_handler                     0x08012684   Section        0  boot_error_handler.o(i.boot_irq_c_handler)
    i.boot_is_auth_enabled                   0x080126b4   Section        0  boot_authenticator.o(i.boot_is_auth_enabled)
    i.boot_l2_page_table_init                0x080126d4   Section        0  boot_page_table.o(i.boot_l2_page_table_init)
    i.boot_load_elf_image                    0x080127a4   Section        0  boot_elf_loader.o(i.boot_load_elf_image)
    i.boot_load_header_and_image             0x08012808   Section        0  boot_loader.o(i.boot_load_header_and_image)
    i.boot_log_boot_config_register          0x08012938   Section        0  boot_logger.o(i.boot_log_boot_config_register)
    i.boot_log_copy_ram                      0x08012990   Section        0  boot_logger_ram.o(i.boot_log_copy_ram)
    i.boot_log_ddr_frequency                 0x08012a0c   Section        0  boot_logger.o(i.boot_log_ddr_frequency)
    i.boot_log_deinit_uart                   0x08012a68   Section        0  boot_logger_uart.o(i.boot_log_deinit_uart)
    i.boot_log_delta_time                    0x08012a74   Section        0  boot_logger.o(i.boot_log_delta_time)
    i.boot_log_delta_time_optional_data      0x08012a7a   Section        0  boot_logger.o(i.boot_log_delta_time_optional_data)
    i.boot_log_dump                          0x08012aa2   Section        0  boot_logger.o(i.boot_log_dump)
    i.boot_log_forever_loop_check            0x08012aa4   Section        0  boot_logger.o(i.boot_log_forever_loop_check)
    i.boot_log_get_meta_info                 0x08012abc   Section        0  boot_logger.o(i.boot_log_get_meta_info)
    i.boot_log_get_time                      0x08012ac8   Section        0  boot_logger.o(i.boot_log_get_time)
    i.boot_log_image_version                 0x08012acc   Section        0  boot_logger.o(i.boot_log_image_version)
    i.boot_log_init                          0x08012b48   Section        0  boot_logger.o(i.boot_log_init)
    i.boot_log_init_ram                      0x08012b74   Section        0  boot_logger_ram.o(i.boot_log_init_ram)
    i.boot_log_init_uart                     0x08012bd4   Section        0  boot_logger_uart.o(i.boot_log_init_uart)
    i.boot_log_message                       0x08012be0   Section        0  boot_logger.o(i.boot_log_message)
    i.boot_log_message_optional_data         0x08012be6   Section        0  boot_logger.o(i.boot_log_message_optional_data)
    i.boot_log_message_ram                   0x08012c10   Section        0  boot_logger_ram.o(i.boot_log_message_ram)
    i.boot_log_message_raw                   0x08012d0c   Section        0  boot_logger.o(i.boot_log_message_raw)
    i.boot_log_message_uart                  0x08012d2c   Section        0  boot_logger_uart.o(i.boot_log_message_uart)
    i.boot_log_ram_put_string                0x08012e68   Section        0  boot_logger_ram.o(i.boot_log_ram_put_string)
    boot_log_ram_put_string                  0x08012e69   Thumb Code    30  boot_logger_ram.o(i.boot_log_ram_put_string)
    i.boot_log_relocate                      0x08012e88   Section        0  boot_logger.o(i.boot_log_relocate)
    i.boot_log_set_meta_info                 0x08012ea4   Section        0  boot_logger.o(i.boot_log_set_meta_info)
    i.boot_log_set_ref_time                  0x08012eb0   Section        0  boot_logger.o(i.boot_log_set_ref_time)
    i.boot_log_start_timer                   0x08012ec0   Section        0  boot_logger.o(i.boot_log_start_timer)
    i.boot_log_stop_timer                    0x08012ec4   Section        0  boot_logger.o(i.boot_log_stop_timer)
    i.boot_log_stop_timer_optional_data      0x08012eca   Section        0  boot_logger.o(i.boot_log_stop_timer_optional_data)
    i.boot_log_uart_put_string               0x08012ef4   Section        0  boot_logger_uart.o(i.boot_log_uart_put_string)
    boot_log_uart_put_string                 0x08012ef5   Thumb Code    24  boot_logger_uart.o(i.boot_log_uart_put_string)
    i.boot_mmu_copy_page_table               0x08012f10   Section        0  boot_page_table.o(i.boot_mmu_copy_page_table)
    i.boot_mmu_page_table_map_mem_block_list 0x08012f98   Section        0  boot_page_table.o(i.boot_mmu_page_table_map_mem_block_list)
    i.boot_mmu_page_table_map_single_mem_block 0x08013004   Section        0  boot_page_table.o(i.boot_mmu_page_table_map_single_mem_block)
    i.boot_nested_exception_c_handler        0x0801304c   Section        0  boot_error_handler.o(i.boot_nested_exception_c_handler)
    i.boot_pbl_get_flash_type                0x08013050   Section        0  boot_pbl_v1.o(i.boot_pbl_get_flash_type)
    i.boot_pbl_interface_init                0x08013084   Section        0  boot_pbl_v1.o(i.boot_pbl_interface_init)
    i.boot_pbl_is_auth_enabled               0x0801309c   Section        0  boot_pbl_v1.o(i.boot_pbl_is_auth_enabled)
    i.boot_pbl_log_milestones                0x080130b8   Section        0  boot_pbl_v1.o(i.boot_pbl_log_milestones)
    i.boot_pm_dev_get_power_on_reason        0x08013114   Section        0  boot_extern_pmic_interface.o(i.boot_pm_dev_get_power_on_reason)
    i.boot_pm_device_init                    0x0801311a   Section        0  boot_extern_pmic_interface.o(i.boot_pm_device_init)
    i.boot_pm_driver_init                    0x0801311e   Section        0  boot_extern_pmic_interface.o(i.boot_pm_driver_init)
    i.boot_pm_init_smem                      0x08013122   Section        0  boot_extern_pmic_interface.o(i.boot_pm_init_smem)
    i.boot_pm_oem_init                       0x08013126   Section        0  boot_extern_pmic_interface.o(i.boot_pm_oem_init)
    i.boot_pm_pon_ps_hold_cfg                0x0801312a   Section        0  boot_extern_pmic_interface.o(i.boot_pm_pon_ps_hold_cfg)
    i.boot_pm_pon_warm_reset_status          0x0801312e   Section        0  boot_extern_pmic_interface.o(i.boot_pm_pon_warm_reset_status)
    i.boot_pm_pon_warm_reset_status_clear    0x08013134   Section        0  boot_extern_pmic_interface.o(i.boot_pm_pon_warm_reset_status_clear)
    i.boot_populate_ram_partition_table      0x0801313c   Section        0  boot_ram_partition.o(i.boot_populate_ram_partition_table)
    i.boot_pre_ddr_clock_init                0x080131d0   Section        0  boot_extern_clk_interface.o(i.boot_pre_ddr_clock_init)
    i.boot_pre_i2c_clock_init                0x080131d4   Section        0  boot_extern_clk_interface.o(i.boot_pre_i2c_clock_init)
    i.boot_prefetch_abort_c_handler          0x080131d8   Section        0  boot_error_handler.o(i.boot_prefetch_abort_c_handler)
    i.boot_qhsusb_al_bulk_init               0x08013200   Section        0  boot_extern_hsusb_interface.o(i.boot_qhsusb_al_bulk_init)
    i.boot_qsee_cond_zero_peripheral_memory  0x08013204   Section        0  boot_extern_seccfg_interface.o(i.boot_qsee_cond_zero_peripheral_memory)
    i.boot_qsee_is_memory_dump_allowed       0x08013218   Section        0  boot_extern_seccfg_interface.o(i.boot_qsee_is_memory_dump_allowed)
    i.boot_qsee_is_retail_unlocked           0x0801321c   Section        0  boot_extern_seccfg_interface.o(i.boot_qsee_is_retail_unlocked)
    i.boot_qsee_zero_peripheral_memory       0x08013220   Section        0  boot_extern_seccfg_interface.o(i.boot_qsee_zero_peripheral_memory)
    i.boot_ram_init                          0x08013224   Section        0  boot_ram_init.o(i.boot_ram_init)
    i.boot_reserved_c_handler                0x0801324c   Section        0  boot_error_handler.o(i.boot_reserved_c_handler)
    i.boot_rollback_calculate_fuse_version   0x0801327c   Section        0  boot_rollback_version.o(i.boot_rollback_calculate_fuse_version)
    boot_rollback_calculate_fuse_version     0x0801327d   Thumb Code   102  boot_rollback_version.o(i.boot_rollback_calculate_fuse_version)
    i.boot_rollback_get_fuse_version         0x08013300   Section        0  boot_rollback_version.o(i.boot_rollback_get_fuse_version)
    i.boot_rollback_get_set_by_img_type      0x08013338   Section        0  boot_rollback_version.o(i.boot_rollback_get_set_by_img_type)
    boot_rollback_get_set_by_img_type        0x08013339   Thumb Code    60  boot_rollback_version.o(i.boot_rollback_get_set_by_img_type)
    i.boot_rollback_init_img_set_table       0x08013378   Section        0  boot_rollback_version.o(i.boot_rollback_init_img_set_table)
    i.boot_rollback_is_feature_enabled_on_set 0x080133c0   Section        0  boot_rollback_version.o(i.boot_rollback_is_feature_enabled_on_set)
    boot_rollback_is_feature_enabled_on_set  0x080133c1   Thumb Code    22  boot_rollback_version.o(i.boot_rollback_is_feature_enabled_on_set)
    i.boot_rollback_update_img_version       0x080133d8   Section        0  boot_rollback_version.o(i.boot_rollback_update_img_version)
    i.boot_sahara_elf_segment_is_loadable    0x0801340c   Section        0  boot_sahara.o(i.boot_sahara_elf_segment_is_loadable)
    i.boot_sahara_elf_verify_start_addr      0x08013430   Section        0  boot_sahara.o(i.boot_sahara_elf_verify_start_addr)
    boot_sahara_elf_verify_start_addr        0x08013431   Thumb Code    96  boot_sahara.o(i.boot_sahara_elf_verify_start_addr)
    i.boot_sahara_entry                      0x08013490   Section        0  boot_sahara.o(i.boot_sahara_entry)
    i.boot_sahara_exit                       0x080134b8   Section        0  boot_sahara.o(i.boot_sahara_exit)
    boot_sahara_exit                         0x080134b9   Thumb Code    40  boot_sahara.o(i.boot_sahara_exit)
    i.boot_sahara_get_adjusted_size          0x080134e4   Section        0  boot_sahara.o(i.boot_sahara_get_adjusted_size)
    boot_sahara_get_adjusted_size            0x080134e5   Thumb Code    30  boot_sahara.o(i.boot_sahara_get_adjusted_size)
    i.boot_sahara_get_elf_eident_class       0x08013502   Section        0  boot_sahara.o(i.boot_sahara_get_elf_eident_class)
    i.boot_sahara_get_elf_entry_address      0x08013508   Section        0  boot_sahara.o(i.boot_sahara_get_elf_entry_address)
    i.boot_sahara_handle_cmd_exec_data       0x08013514   Section        0  boot_sahara.o(i.boot_sahara_handle_cmd_exec_data)
    boot_sahara_handle_cmd_exec_data         0x08013515   Thumb Code    90  boot_sahara.o(i.boot_sahara_handle_cmd_exec_data)
    i.boot_sahara_handle_cmd_exec_resp       0x08013574   Section        0  boot_sahara.o(i.boot_sahara_handle_cmd_exec_resp)
    boot_sahara_handle_cmd_exec_resp         0x08013575   Thumb Code    88  boot_sahara.o(i.boot_sahara_handle_cmd_exec_resp)
    i.boot_sahara_handle_done_resp           0x080135d4   Section        0  boot_sahara.o(i.boot_sahara_handle_done_resp)
    boot_sahara_handle_done_resp             0x080135d5   Thumb Code    94  boot_sahara.o(i.boot_sahara_handle_done_resp)
    i.boot_sahara_handle_end_image_tx        0x0801363c   Section        0  boot_sahara.o(i.boot_sahara_handle_end_image_tx)
    boot_sahara_handle_end_image_tx          0x0801363d   Thumb Code   102  boot_sahara.o(i.boot_sahara_handle_end_image_tx)
    i.boot_sahara_handle_hello               0x080136ac   Section        0  boot_sahara.o(i.boot_sahara_handle_hello)
    boot_sahara_handle_hello                 0x080136ad   Thumb Code   106  boot_sahara.o(i.boot_sahara_handle_hello)
    i.boot_sahara_handle_hello_resp          0x08013738   Section        0  boot_sahara.o(i.boot_sahara_handle_hello_resp)
    boot_sahara_handle_hello_resp            0x08013739   Thumb Code   198  boot_sahara.o(i.boot_sahara_handle_hello_resp)
    i.boot_sahara_handle_memory_64bits_read  0x08013808   Section        0  boot_sahara.o(i.boot_sahara_handle_memory_64bits_read)
    boot_sahara_handle_memory_64bits_read    0x08013809   Thumb Code   106  boot_sahara.o(i.boot_sahara_handle_memory_64bits_read)
    i.boot_sahara_handle_memory_debug        0x08013878   Section        0  boot_sahara.o(i.boot_sahara_handle_memory_debug)
    boot_sahara_handle_memory_debug          0x08013879   Thumb Code    98  boot_sahara.o(i.boot_sahara_handle_memory_debug)
    i.boot_sahara_handle_memory_read         0x080138e4   Section        0  boot_sahara.o(i.boot_sahara_handle_memory_read)
    boot_sahara_handle_memory_read           0x080138e5   Thumb Code   202  boot_sahara.o(i.boot_sahara_handle_memory_read)
    i.boot_sahara_handle_read_data           0x080139b4   Section        0  boot_sahara.o(i.boot_sahara_handle_read_data)
    boot_sahara_handle_read_data             0x080139b5   Thumb Code    74  boot_sahara.o(i.boot_sahara_handle_read_data)
    i.boot_sahara_handle_rx                  0x08013a04   Section        0  boot_sahara.o(i.boot_sahara_handle_rx)
    boot_sahara_handle_rx                    0x08013a05   Thumb Code   192  boot_sahara.o(i.boot_sahara_handle_rx)
    i.boot_sahara_handle_tx                  0x08013ad0   Section        0  boot_sahara.o(i.boot_sahara_handle_tx)
    boot_sahara_handle_tx                    0x08013ad1   Thumb Code    48  boot_sahara.o(i.boot_sahara_handle_tx)
    i.boot_sahara_init                       0x08013b08   Section        0  boot_sahara.o(i.boot_sahara_init)
    boot_sahara_init                         0x08013b09   Thumb Code   386  boot_sahara.o(i.boot_sahara_init)
    i.boot_sahara_is_valid_elf_header        0x08013c90   Section        0  boot_sahara.o(i.boot_sahara_is_valid_elf_header)
    boot_sahara_is_valid_elf_header          0x08013c91   Thumb Code    82  boot_sahara.o(i.boot_sahara_is_valid_elf_header)
    i.boot_sahara_log_packet_buffer          0x08013ce4   Section        0  boot_sahara.o(i.boot_sahara_log_packet_buffer)
    boot_sahara_log_packet_buffer            0x08013ce5   Thumb Code    52  boot_sahara.o(i.boot_sahara_log_packet_buffer)
    i.boot_sahara_log_raw_data               0x08013d20   Section        0  boot_sahara.o(i.boot_sahara_log_raw_data)
    boot_sahara_log_raw_data                 0x08013d21   Thumb Code    52  boot_sahara.o(i.boot_sahara_log_raw_data)
    i.boot_sahara_populate_elf_meta_info     0x08013d5c   Section        0  boot_sahara.o(i.boot_sahara_populate_elf_meta_info)
    boot_sahara_populate_elf_meta_info       0x08013d5d   Thumb Code    14  boot_sahara.o(i.boot_sahara_populate_elf_meta_info)
    i.boot_sahara_process_packets            0x08013d70   Section        0  boot_sahara.o(i.boot_sahara_process_packets)
    boot_sahara_process_packets              0x08013d71   Thumb Code   376  boot_sahara.o(i.boot_sahara_process_packets)
    i.boot_sahara_receive_data               0x08013ef0   Section        0  boot_sahara.o(i.boot_sahara_receive_data)
    boot_sahara_receive_data                 0x08013ef1   Thumb Code   250  boot_sahara.o(i.boot_sahara_receive_data)
    i.boot_sahara_receive_image              0x08013ff0   Section        0  boot_sahara.o(i.boot_sahara_receive_image)
    boot_sahara_receive_image                0x08013ff1   Thumb Code    64  boot_sahara.o(i.boot_sahara_receive_image)
    i.boot_sahara_receive_image_binary       0x08014034   Section        0  boot_sahara.o(i.boot_sahara_receive_image_binary)
    boot_sahara_receive_image_binary         0x08014035   Thumb Code   234  boot_sahara.o(i.boot_sahara_receive_image_binary)
    i.boot_sahara_receive_image_elf          0x08014128   Section        0  boot_sahara.o(i.boot_sahara_receive_image_elf)
    boot_sahara_receive_image_elf            0x08014129   Thumb Code   918  boot_sahara.o(i.boot_sahara_receive_image_elf)
    i.boot_sahara_reset                      0x080144d4   Section        0  boot_sahara.o(i.boot_sahara_reset)
    boot_sahara_reset                        0x080144d5   Thumb Code    14  boot_sahara.o(i.boot_sahara_reset)
    i.boot_sahara_rx_cb                      0x080144e8   Section        0  boot_sahara.o(i.boot_sahara_rx_cb)
    boot_sahara_rx_cb                        0x080144e9   Thumb Code    28  boot_sahara.o(i.boot_sahara_rx_cb)
    i.boot_sahara_set_is_ssa_enabled         0x08014508   Section        0  boot_sahara.o(i.boot_sahara_set_is_ssa_enabled)
    i.boot_sahara_skip_data_in_optmize_load  0x08014514   Section        0  boot_sahara.o(i.boot_sahara_skip_data_in_optmize_load)
    boot_sahara_skip_data_in_optmize_load    0x08014515   Thumb Code   104  boot_sahara.o(i.boot_sahara_skip_data_in_optmize_load)
    i.boot_sahara_ssa_update_rmb_length      0x08014584   Section        0  boot_sahara.o(i.boot_sahara_ssa_update_rmb_length)
    boot_sahara_ssa_update_rmb_length        0x08014585   Thumb Code    48  boot_sahara.o(i.boot_sahara_ssa_update_rmb_length)
    i.boot_sahara_tx_cb                      0x080145b8   Section        0  boot_sahara.o(i.boot_sahara_tx_cb)
    boot_sahara_tx_cb                        0x080145b9   Thumb Code    28  boot_sahara.o(i.boot_sahara_tx_cb)
    i.boot_sahara_verify_elf_hdr             0x080145d8   Section        0  boot_sahara.o(i.boot_sahara_verify_elf_hdr)
    boot_sahara_verify_elf_hdr               0x080145d9   Thumb Code   122  boot_sahara.o(i.boot_sahara_verify_elf_hdr)
    i.boot_save_reset_register_log           0x08014658   Section        0  boot_mc.o(i.boot_save_reset_register_log)
    i.boot_sbl_qsee_interface_get_eident     0x0801465a   Section        0  boot_sbl_qsee_interface.o(i.boot_sbl_qsee_interface_get_eident)
    i.boot_sbl_qsee_interface_get_entry_point 0x08014684   Section        0  boot_sbl_qsee_interface.o(i.boot_sbl_qsee_interface_get_entry_point)
    i.boot_sbl_qsee_interface_get_secboot_info 0x080146ae   Section        0  boot_sbl_qsee_interface.o(i.boot_sbl_qsee_interface_get_secboot_info)
    i.boot_secboot_ftbl_init                 0x080146d8   Section        0  boot_authenticator.o(i.boot_secboot_ftbl_init)
    i.boot_secboot_get_ftbl                  0x080146fc   Section        0  boot_extern_secboot_interface.o(i.boot_secboot_get_ftbl)
    i.boot_secboot_hw_get_ftbl               0x08014700   Section        0  boot_extern_secboot_interface.o(i.boot_secboot_hw_get_ftbl)
    i.boot_secure_watchdog_init              0x08014704   Section        0  boot_secure_watchdog.o(i.boot_secure_watchdog_init)
    i.boot_seg_verification                  0x08014768   Section        0  boot_elf_loader.o(i.boot_seg_verification)
    boot_seg_verification                    0x08014769   Thumb Code   136  boot_elf_loader.o(i.boot_seg_verification)
    i.boot_set_ddr_info                      0x08014818   Section        0  boot_ddr_info.o(i.boot_set_ddr_info)
    i.boot_set_hash_algo                     0x08014868   Section        0  boot_hash.o(i.boot_set_hash_algo)
    i.boot_set_hash_table_auth_result        0x08014890   Section        0  boot_hash_buffer.o(i.boot_set_hash_table_auth_result)
    i.boot_share_extended_ddr_info           0x0801489c   Section        0  boot_ddr_info.o(i.boot_share_extended_ddr_info)
    i.boot_share_flash_data                  0x08014a04   Section        0  boot_flash.o(i.boot_share_flash_data)
    i.boot_shared_imem_init                  0x08014a08   Section        0  boot_ram_init.o(i.boot_shared_imem_init)
    i.boot_smem_alloc                        0x08014a34   Section        0  boot_extern_smem_interface.o(i.boot_smem_alloc)
    i.boot_smem_boot_debug_init              0x08014a38   Section        0  boot_extern_smem_interface.o(i.boot_smem_boot_debug_init)
    i.boot_smem_boot_init                    0x08014a3c   Section        0  boot_extern_smem_interface.o(i.boot_smem_boot_init)
    i.boot_smem_debug_init                   0x08014a40   Section        0  boot_smem.o(i.boot_smem_debug_init)
    i.boot_smem_init                         0x08014a44   Section        0  boot_smem.o(i.boot_smem_init)
    i.boot_smem_store_pon_status             0x08014a90   Section        0  boot_smem.o(i.boot_smem_store_pon_status)
    i.boot_start_timer                       0x08014abc   Section        0  boot_logger_timer.o(i.boot_start_timer)
    i.boot_statistics_flash_read_start       0x08014ad4   Section        0  boot_statistics.o(i.boot_statistics_flash_read_start)
    i.boot_statistics_flash_read_stop        0x08014ae4   Section        0  boot_statistics.o(i.boot_statistics_flash_read_stop)
    i.boot_statistics_get_flash_byte_counter 0x08014b18   Section        0  boot_statistics.o(i.boot_statistics_get_flash_byte_counter)
    i.boot_statistics_get_time_count         0x08014b24   Section        0  boot_statistics.o(i.boot_statistics_get_time_count)
    boot_statistics_get_time_count           0x08014b25   Thumb Code    12  boot_statistics.o(i.boot_statistics_get_time_count)
    i.boot_statistics_log_flash              0x08014b34   Section        0  boot_statistics.o(i.boot_statistics_log_flash)
    i.boot_statistics_reset_flash_byte_counter 0x08014bbc   Section        0  boot_statistics.o(i.boot_statistics_reset_flash_byte_counter)
    i.boot_stop_timer                        0x08014bc8   Section        0  boot_logger_timer.o(i.boot_stop_timer)
    i.boot_store_tpm_hash_block              0x08014c0c   Section        0  boot_authenticator.o(i.boot_store_tpm_hash_block)
    i.boot_strlen                            0x08014ce0   Section        0  boot_util.o(i.boot_strlen)
    i.boot_swi_c_handler                     0x08014cf8   Section        0  boot_error_handler.o(i.boot_swi_c_handler)
    i.boot_uart_deinit                       0x08014d28   Section        0  boot_uart.o(i.boot_uart_deinit)
    i.boot_uart_init                         0x08014d2c   Section        0  boot_uart.o(i.boot_uart_init)
    i.boot_uart_tx                           0x08014d30   Section        0  boot_uart.o(i.boot_uart_tx)
    i.boot_undefined_instruction_c_handler   0x08014d34   Section        0  boot_error_handler.o(i.boot_undefined_instruction_c_handler)
    i.boot_update_auth_image_info            0x08014d64   Section        0  boot_authenticator.o(i.boot_update_auth_image_info)
    i.boot_update_config_data_table          0x08014de8   Section        0  boot_config_eeprom.o(i.boot_update_config_data_table)
    i.boot_usb_al_bulk_get_max_packet_size   0x08014fe8   Section        0  boot_extern_hsusb_interface.o(i.boot_usb_al_bulk_get_max_packet_size)
    i.boot_usb_al_bulk_get_max_raw_data_size 0x08014fec   Section        0  boot_extern_hsusb_interface.o(i.boot_usb_al_bulk_get_max_raw_data_size)
    i.boot_usb_al_bulk_poll                  0x08014ff0   Section        0  boot_extern_hsusb_interface.o(i.boot_usb_al_bulk_poll)
    i.boot_usb_al_bulk_receive               0x08014ff4   Section        0  boot_extern_hsusb_interface.o(i.boot_usb_al_bulk_receive)
    i.boot_usb_al_bulk_shutdown              0x08014ff8   Section        0  boot_extern_hsusb_interface.o(i.boot_usb_al_bulk_shutdown)
    i.boot_usb_al_bulk_transmit              0x08014ffc   Section        0  boot_extern_hsusb_interface.o(i.boot_usb_al_bulk_transmit)
    i.boot_usb_al_check_for_pbl_dload        0x08015000   Section        0  boot_extern_hsusb_interface.o(i.boot_usb_al_check_for_pbl_dload)
    i.booting_from_storage_media             0x08015004   Section        0  boot_util.o(i.booting_from_storage_media)
    i.bric_lock                              0x08015024   Section        0  icbcfg.o(i.bric_lock)
    i.busywait                               0x08015060   Section        0  busywait_hw_qtimer.o(i.busywait)
    i.busywait_init                          0x08015090   Section        0  busywait_hw_qtimer.o(i.busywait_init)
    i.check_fec_error                        0x0801511c   Section        0  secboot_hw.o(i.check_fec_error)
    i.chg_notify_cb                          0x0801513c   Section        0  qhsusb_fd_chg.o(i.chg_notify_cb)
    chg_notify_cb                            0x0801513d   Thumb Code    10  qhsusb_fd_chg.o(i.chg_notify_cb)
    i.clearSpmiMemory                        0x08015148   Section        0  SpmiMaster.o(i.clearSpmiMemory)
    clearSpmiMemory                          0x08015149   Thumb Code    96  SpmiMaster.o(i.clearSpmiMemory)
    i.clock_enable                           0x080151ac   Section        0  Uart.o(i.clock_enable)
    clock_enable                             0x080151ad   Thumb Code    88  Uart.o(i.clock_enable)
    i.compare                                0x08015208   Section        0  secmath_montmul_utils.o(i.compare)
    i.compress_regions                       0x0801522e   Section        0  icbcfg.o(i.compress_regions)
    i.configChannels                         0x08015460   Section        0  SpmiCfg.o(i.configChannels)
    configChannels                           0x08015461   Thumb Code   630  SpmiCfg.o(i.configChannels)
    i.convert_ddr_regions                    0x080156ec   Section        0  icbcfg.o(i.convert_ddr_regions)
    i.count_leading_zeroes                   0x0801578e   Section        0  icbcfg.o(i.count_leading_zeroes)
    i.count_set_bits                         0x080157a0   Section        0  icbcfg.o(i.count_set_bits)
    i.count_trailing_zeroes                  0x08015800   Section        0  icbcfg.o(i.count_trailing_zeroes)
    i.crc_32_calc                            0x08015820   Section        0  crc.o(i.crc_32_calc)
    i.dcd_callback_disconnect                0x08015894   Section        0  qhsusb_dcd_ch9.o(i.dcd_callback_disconnect)
    dcd_callback_disconnect                  0x08015895   Thumb Code    12  qhsusb_dcd_ch9.o(i.dcd_callback_disconnect)
    i.dcd_callback_reset                     0x080158a4   Section        0  qhsusb_dcd_ch9.o(i.dcd_callback_reset)
    dcd_callback_reset                       0x080158a5   Thumb Code    42  qhsusb_dcd_ch9.o(i.dcd_callback_reset)
    i.dcd_callback_setup                     0x080158d4   Section        0  qhsusb_dcd_ch9.o(i.dcd_callback_setup)
    dcd_callback_setup                       0x080158d5   Thumb Code   128  qhsusb_dcd_ch9.o(i.dcd_callback_setup)
    i.dcd_control_reply                      0x08015954   Section        0  qhsusb_dcd_ch9.o(i.dcd_control_reply)
    dcd_control_reply                        0x08015955   Thumb Code    10  qhsusb_dcd_ch9.o(i.dcd_control_reply)
    i.dcd_notify                             0x0801595e   Section        0  qhsusb_dcd_ch9.o(i.dcd_notify)
    dcd_notify                               0x0801595f   Thumb Code    10  qhsusb_dcd_ch9.o(i.dcd_notify)
    i.dcd_set_interface                      0x08015968   Section        0  qhsusb_dcd_ch9.o(i.dcd_set_interface)
    dcd_set_interface                        0x08015969   Thumb Code    82  qhsusb_dcd_ch9.o(i.dcd_set_interface)
    i.dcd_set_max_current                    0x080159ba   Section        0  qhsusb_dcd_ch9.o(i.dcd_set_max_current)
    dcd_set_max_current                      0x080159bb   Thumb Code     8  qhsusb_dcd_ch9.o(i.dcd_set_max_current)
    i.dci_clk_regime_msm_reset_assert        0x080159c4   Section        0  qhsusb_dci_8909.o(i.dci_clk_regime_msm_reset_assert)
    i.dci_clk_regime_msm_reset_deassert      0x080159e8   Section        0  qhsusb_dci_8909.o(i.dci_clk_regime_msm_reset_deassert)
    i.dci_dcache_flush                       0x08015a0c   Section        0  qhsusb_dci_8909.o(i.dci_dcache_flush)
    i.dci_dcache_inval                       0x08015a10   Section        0  qhsusb_dci_8909.o(i.dci_dcache_inval)
    i.dci_detect_charger_type                0x08015a14   Section        0  qhsusb_dci_8909.o(i.dci_detect_charger_type)
    i.dci_disable_primary_charger_detection  0x08015c30   Section        0  qhsusb_dci_8909.o(i.dci_disable_primary_charger_detection)
    dci_disable_primary_charger_detection    0x08015c31   Thumb Code    48  qhsusb_dci_8909.o(i.dci_disable_primary_charger_detection)
    i.dci_enable_external_vbus_config        0x08015c60   Section        0  qhsusb_dci_8909.o(i.dci_enable_external_vbus_config)
    dci_enable_external_vbus_config          0x08015c61   Thumb Code    34  qhsusb_dci_8909.o(i.dci_enable_external_vbus_config)
    i.dci_enable_primary_charger_detection   0x08015c88   Section        0  qhsusb_dci_8909.o(i.dci_enable_primary_charger_detection)
    dci_enable_primary_charger_detection     0x08015c89   Thumb Code    48  qhsusb_dci_8909.o(i.dci_enable_primary_charger_detection)
    i.dci_handle_port_status_changed         0x08015cb8   Section        0  qhsusb_dci.o(i.dci_handle_port_status_changed)
    dci_handle_port_status_changed           0x08015cb9   Thumb Code    20  qhsusb_dci.o(i.dci_handle_port_status_changed)
    i.dci_handle_reset_during_transfer       0x08015cd4   Section        0  qhsusb_dci.o(i.dci_handle_reset_during_transfer)
    dci_handle_reset_during_transfer         0x08015cd5   Thumb Code   124  qhsusb_dci.o(i.dci_handle_reset_during_transfer)
    i.dci_handle_setup                       0x08015d5c   Section        0  qhsusb_dci.o(i.dci_handle_setup)
    dci_handle_setup                         0x08015d5d   Thumb Code   106  qhsusb_dci.o(i.dci_handle_setup)
    i.dci_handle_transfer_complete           0x08015dd8   Section        0  qhsusb_dci.o(i.dci_handle_transfer_complete)
    dci_handle_transfer_complete             0x08015dd9   Thumb Code   206  qhsusb_dci.o(i.dci_handle_transfer_complete)
    i.dci_init_dqh_list                      0x08015eb8   Section        0  qhsusb_dci.o(i.dci_init_dqh_list)
    dci_init_dqh_list                        0x08015eb9   Thumb Code   128  qhsusb_dci.o(i.dci_init_dqh_list)
    i.dci_init_phy                           0x08015f40   Section        0  qhsusb_dci_8909.o(i.dci_init_phy)
    i.dci_is_streaming_mode_disable_required 0x08015f5c   Section        0  qhsusb_dci_8909.o(i.dci_is_streaming_mode_disable_required)
    i.dci_read_chgdet_output                 0x08015f60   Section        0  qhsusb_dci_8909.o(i.dci_read_chgdet_output)
    dci_read_chgdet_output                   0x08015f61   Thumb Code    14  qhsusb_dci_8909.o(i.dci_read_chgdet_output)
    i.dci_reset_alternate_interrupt_block    0x08015f6e   Section        0  qhsusb_dci_8909.o(i.dci_reset_alternate_interrupt_block)
    dci_reset_alternate_interrupt_block      0x08015f6f   Thumb Code    36  qhsusb_dci_8909.o(i.dci_reset_alternate_interrupt_block)
    i.dci_reset_charger_detection_block      0x08015f92   Section        0  qhsusb_dci_8909.o(i.dci_reset_charger_detection_block)
    dci_reset_charger_detection_block        0x08015f93   Thumb Code    36  qhsusb_dci_8909.o(i.dci_reset_charger_detection_block)
    i.dci_set_bulk_progress                  0x08015fb8   Section        0  qhsusb_dci.o(i.dci_set_bulk_progress)
    i.dci_set_phy_mode                       0x08015fc4   Section        0  qhsusb_dci_8909.o(i.dci_set_phy_mode)
    dci_set_phy_mode                         0x08015fc5   Thumb Code    58  qhsusb_dci_8909.o(i.dci_set_phy_mode)
    i.dci_skip_enumeration                   0x08016000   Section        0  qhsusb_dci.o(i.dci_skip_enumeration)
    i.ddr_test                               0x08016084   Section        0  ddr_test.o(i.ddr_test)
    i.ddr_test_addr_lines                    0x08016224   Section        0  ddr_test.o(i.ddr_test_addr_lines)
    ddr_test_addr_lines                      0x08016225   Thumb Code   124  ddr_test.o(i.ddr_test_addr_lines)
    i.ddr_test_all                           0x08016304   Section        0  ddr_test.o(i.ddr_test_all)
    i.ddr_test_data_lines                    0x08016350   Section        0  ddr_test.o(i.ddr_test_data_lines)
    ddr_test_data_lines                      0x08016351   Thumb Code    58  ddr_test.o(i.ddr_test_data_lines)
    i.ddr_test_deep_power_down               0x080163ec   Section        0  ddr_test.o(i.ddr_test_deep_power_down)
    ddr_test_deep_power_down                 0x080163ed   Thumb Code   102  ddr_test.o(i.ddr_test_deep_power_down)
    i.ddr_test_exit                          0x08016520   Section        0  ddr_test.o(i.ddr_test_exit)
    i.ddr_test_own_addr                      0x08016524   Section        0  ddr_test.o(i.ddr_test_own_addr)
    ddr_test_own_addr                        0x08016525   Thumb Code   110  ddr_test.o(i.ddr_test_own_addr)
    i.ddr_test_self_refresh                  0x08016608   Section        0  ddr_test.o(i.ddr_test_self_refresh)
    ddr_test_self_refresh                    0x08016609   Thumb Code   148  ddr_test.o(i.ddr_test_self_refresh)
    i.ddr_test_walking_ones                  0x080167a0   Section        0  ddr_test.o(i.ddr_test_walking_ones)
    ddr_test_walking_ones                    0x080167a1   Thumb Code    92  ddr_test.o(i.ddr_test_walking_ones)
    i.debugExecute                           0x080168f0   Section        0  SpmiBus.o(i.debugExecute)
    debugExecute                             0x080168f1   Thumb Code   174  SpmiBus.o(i.debugExecute)
    i.debugTransEnd                          0x080169fc   Section        0  SpmiBus.o(i.debugTransEnd)
    debugTransEnd                            0x080169fd   Thumb Code   206  SpmiBus.o(i.debugTransEnd)
    i.debugTransStart                        0x08016ad4   Section        0  SpmiBus.o(i.debugTransStart)
    debugTransStart                          0x08016ad5   Thumb Code   122  SpmiBus.o(i.debugTransStart)
    i.delay1ms                               0x08016b54   Section        0  flash_extdrv_i2c_v2.o(i.delay1ms)
    delay1ms                                 0x08016b55   Thumb Code    10  flash_extdrv_i2c_v2.o(i.delay1ms)
    i.dev_nand_close_file_by_by_handle       0x08016b5e   Section        0  boot_flash_dev_nand.o(i.dev_nand_close_file_by_by_handle)
    dev_nand_close_file_by_by_handle         0x08016b5f   Thumb Code     2  boot_flash_dev_nand.o(i.dev_nand_close_file_by_by_handle)
    i.dev_nand_close_file_by_image_type      0x08016b60   Section        0  boot_flash_dev_nand.o(i.dev_nand_close_file_by_image_type)
    dev_nand_close_file_by_image_type        0x08016b61   Thumb Code     2  boot_flash_dev_nand.o(i.dev_nand_close_file_by_image_type)
    i.dev_nand_close_image                   0x08016b64   Section        0  boot_flash_dev_nand.o(i.dev_nand_close_image)
    dev_nand_close_image                     0x08016b65   Thumb Code    42  boot_flash_dev_nand.o(i.dev_nand_close_image)
    i.dev_nand_configure_target_image        0x08016bb0   Section        0  boot_flash_dev_nand.o(i.dev_nand_configure_target_image)
    dev_nand_configure_target_image          0x08016bb1   Thumb Code    28  boot_flash_dev_nand.o(i.dev_nand_configure_target_image)
    i.dev_nand_get_nand_if                   0x08016bec   Section        0  boot_flash_dev_nand.o(i.dev_nand_get_nand_if)
    dev_nand_get_nand_if                     0x08016bed   Thumb Code     6  boot_flash_dev_nand.o(i.dev_nand_get_nand_if)
    i.dev_nand_load_mibib_header             0x08016bf8   Section        0  boot_flash_dev_nand.o(i.dev_nand_load_mibib_header)
    dev_nand_load_mibib_header               0x08016bf9   Thumb Code     4  boot_flash_dev_nand.o(i.dev_nand_load_mibib_header)
    i.dev_nand_load_mibib_header_with_cookie 0x08016bfc   Section        0  boot_flash_dev_nand.o(i.dev_nand_load_mibib_header_with_cookie)
    dev_nand_load_mibib_header_with_cookie   0x08016bfd   Thumb Code     4  boot_flash_dev_nand.o(i.dev_nand_load_mibib_header_with_cookie)
    i.dev_nand_open_image                    0x08016c00   Section        0  boot_flash_dev_nand.o(i.dev_nand_open_image)
    dev_nand_open_image                      0x08016c01   Thumb Code    54  boot_flash_dev_nand.o(i.dev_nand_open_image)
    i.dev_nand_open_partition                0x08016c5c   Section        0  boot_flash_dev_nand.o(i.dev_nand_open_partition)
    dev_nand_open_partition                  0x08016c5d   Thumb Code    74  boot_flash_dev_nand.o(i.dev_nand_open_partition)
    i.div32                                  0x08016cc8   Section        0  secmath_barrett_reduce.o(i.div32)
    div32                                    0x08016cc9   Thumb Code   280  secmath_barrett_reduce.o(i.div32)
    i.dload_debug_add_region                 0x08016de0   Section        0  boot_dload_debug.o(i.dload_debug_add_region)
    i.dload_debug_add_restricted_region      0x08016e58   Section        0  boot_dload_debug.o(i.dload_debug_add_restricted_region)
    i.dload_mem_debug_init                   0x08016e88   Section        0  boot_dload_debug.o(i.dload_mem_debug_init)
    i.dload_mem_debug_is_device_retail_unlocked 0x08016fdc   Section        0  boot_dload_debug.o(i.dload_mem_debug_is_device_retail_unlocked)
    i.dload_mem_debug_is_restricted_addr     0x08016fec   Section        0  boot_dload_debug.o(i.dload_mem_debug_is_restricted_addr)
    i.dload_mem_debug_len                    0x08017054   Section        0  boot_dload_debug.o(i.dload_mem_debug_len)
    i.dload_mem_debug_len_init               0x080170b0   Section        0  boot_dload_debug.o(i.dload_mem_debug_len_init)
    i.dload_mem_debug_supported              0x080170bc   Section        0  boot_dload_debug.o(i.dload_mem_debug_supported)
    i.dload_mem_debug_table_addr             0x08017118   Section        0  boot_dload_debug.o(i.dload_mem_debug_table_addr)
    i.dload_mem_debug_target_init            0x08017120   Section        0  boot_dload_debug_target.o(i.dload_mem_debug_target_init)
    i.dload_mem_debug_verify_addr            0x080172dc   Section        0  boot_dload_debug.o(i.dload_mem_debug_verify_addr)
    i.dload_mem_debug_zero_peripheral_memory 0x0801734c   Section        0  boot_dload_debug.o(i.dload_mem_debug_zero_peripheral_memory)
    i.find_bn_MSB1                           0x08017350   Section        0  secmath_montmul_utils.o(i.find_bn_MSB1)
    i.flash_allocate_device_structure        0x080173b0   Section        0  boot_flash_dev_dal.o(i.flash_allocate_device_structure)
    i.flash_bam_deinit                       0x080173f4   Section        0  flash_bam_wrapper.o(i.flash_bam_deinit)
    i.flash_bam_exec_op                      0x08017444   Section        0  flash_hal_nandc_predef_bam_exec.o(i.flash_bam_exec_op)
    i.flash_bam_init                         0x080174b4   Section        0  flash_bam_wrapper.o(i.flash_bam_init)
    i.flash_bam_pipe_deinit                  0x080175e0   Section        0  flash_bam_wrapper.o(i.flash_bam_pipe_deinit)
    i.flash_bam_pipe_init                    0x08017600   Section        0  flash_bam_wrapper.o(i.flash_bam_pipe_init)
    i.flash_bam_poll_pipe                    0x08017634   Section        0  flash_bam_wrapper.o(i.flash_bam_poll_pipe)
    i.flash_bam_queue_desc                   0x080176c8   Section        0  flash_bam_wrapper.o(i.flash_bam_queue_desc)
    i.flash_bam_transfer                     0x08017700   Section        0  flash_bam_wrapper.o(i.flash_bam_transfer)
    i.flash_bam_wait_for_xfer_completion     0x0801775c   Section        0  flash_bam_wrapper.o(i.flash_bam_wait_for_xfer_completion)
    i.flash_boot_ops_get_parti_tbl           0x08017798   Section        0  flash_boot_ops_setup.o(i.flash_boot_ops_get_parti_tbl)
    i.flash_busy_wait                        0x080177ec   Section        0  flash_dal_util.o(i.flash_busy_wait)
    i.flash_close                            0x080177f0   Section        0  boot_flash_dev_dal.o(i.flash_close)
    i.flash_copy_dma_buffers                 0x0801780c   Section        0  flash_nand_entry.o(i.flash_copy_dma_buffers)
    flash_copy_dma_buffers                   0x0801780d   Thumb Code    28  flash_nand_entry.o(i.flash_copy_dma_buffers)
    i.flash_dal_device_deinit                0x0801782c   Section        0  flash_dal.o(i.flash_dal_device_deinit)
    i.flash_dal_device_init                  0x0801784c   Section        0  flash_dal.o(i.flash_dal_device_init)
    i.flash_dal_driver_deinit                0x080178b4   Section        0  flash_dal.o(i.flash_dal_driver_deinit)
    i.flash_dal_driver_init                  0x080178b8   Section        0  flash_dal.o(i.flash_dal_driver_init)
    i.flash_dcache_clean                     0x080178bc   Section        0  flash_dal_util.o(i.flash_dcache_clean)
    i.flash_dcache_inval                     0x080178c6   Section        0  flash_dal_util.o(i.flash_dcache_inval)
    i.flash_fwk_addref                       0x080178d0   Section        0  flash_dal_fwk.o(i.flash_fwk_addref)
    flash_fwk_addref                         0x080178d1   Thumb Code     6  flash_dal_fwk.o(i.flash_fwk_addref)
    i.flash_fwk_attach                       0x080178d8   Section        0  flash_dal_fwk.o(i.flash_fwk_attach)
    i.flash_fwk_begin_erase_block            0x08017954   Section        0  flash_dal_fwk.o(i.flash_fwk_begin_erase_block)
    flash_fwk_begin_erase_block              0x08017955   Thumb Code    26  flash_dal_fwk.o(i.flash_fwk_begin_erase_block)
    i.flash_fwk_block_get_state              0x0801796e   Section        0  flash_dal_fwk.o(i.flash_fwk_block_get_state)
    flash_fwk_block_get_state                0x0801796f   Thumb Code    26  flash_dal_fwk.o(i.flash_fwk_block_get_state)
    i.flash_fwk_block_set_state              0x08017988   Section        0  flash_dal_fwk.o(i.flash_fwk_block_set_state)
    flash_fwk_block_set_state                0x08017989   Thumb Code    26  flash_dal_fwk.o(i.flash_fwk_block_set_state)
    i.flash_fwk_close                        0x080179a2   Section        0  flash_dal_fwk.o(i.flash_fwk_close)
    flash_fwk_close                          0x080179a3   Thumb Code    26  flash_dal_fwk.o(i.flash_fwk_close)
    i.flash_fwk_copy_pages                   0x080179bc   Section        0  flash_dal_fwk.o(i.flash_fwk_copy_pages)
    flash_fwk_copy_pages                     0x080179bd   Thumb Code    26  flash_dal_fwk.o(i.flash_fwk_copy_pages)
    i.flash_fwk_deinit                       0x080179d6   Section        0  flash_dal_fwk.o(i.flash_fwk_deinit)
    flash_fwk_deinit                         0x080179d7   Thumb Code     6  flash_dal_fwk.o(i.flash_fwk_deinit)
    i.flash_fwk_detach                       0x080179dc   Section        0  flash_dal_fwk.o(i.flash_fwk_detach)
    flash_fwk_detach                         0x080179dd   Thumb Code    62  flash_dal_fwk.o(i.flash_fwk_detach)
    i.flash_fwk_erase_blocks                 0x08017a20   Section        0  flash_dal_fwk.o(i.flash_fwk_erase_blocks)
    flash_fwk_erase_blocks                   0x08017a21   Thumb Code    26  flash_dal_fwk.o(i.flash_fwk_erase_blocks)
    i.flash_fwk_erase_blocks_by_size         0x08017a3a   Section        0  flash_dal_fwk.o(i.flash_fwk_erase_blocks_by_size)
    flash_fwk_erase_blocks_by_size           0x08017a3b   Thumb Code    26  flash_dal_fwk.o(i.flash_fwk_erase_blocks_by_size)
    i.flash_fwk_erase_resume                 0x08017a54   Section        0  flash_dal_fwk.o(i.flash_fwk_erase_resume)
    flash_fwk_erase_resume                   0x08017a55   Thumb Code    26  flash_dal_fwk.o(i.flash_fwk_erase_resume)
    i.flash_fwk_erase_suspend                0x08017a6e   Section        0  flash_dal_fwk.o(i.flash_fwk_erase_suspend)
    flash_fwk_erase_suspend                  0x08017a6f   Thumb Code    26  flash_dal_fwk.o(i.flash_fwk_erase_suspend)
    i.flash_fwk_get_daldevice_info           0x08017a88   Section        0  flash_dal_fwk.o(i.flash_fwk_get_daldevice_info)
    flash_fwk_get_daldevice_info             0x08017a89   Thumb Code    10  flash_dal_fwk.o(i.flash_fwk_get_daldevice_info)
    i.flash_fwk_get_info                     0x08017a92   Section        0  flash_dal_fwk.o(i.flash_fwk_get_info)
    flash_fwk_get_info                       0x08017a93   Thumb Code    26  flash_dal_fwk.o(i.flash_fwk_get_info)
    i.flash_fwk_get_status                   0x08017aac   Section        0  flash_dal_fwk.o(i.flash_fwk_get_status)
    flash_fwk_get_status                     0x08017aad   Thumb Code    26  flash_dal_fwk.o(i.flash_fwk_get_status)
    i.flash_fwk_get_uuid                     0x08017ac6   Section        0  flash_dal_fwk.o(i.flash_fwk_get_uuid)
    flash_fwk_get_uuid                       0x08017ac7   Thumb Code    26  flash_dal_fwk.o(i.flash_fwk_get_uuid)
    i.flash_fwk_handle_power_event           0x08017ae0   Section        0  flash_dal_fwk.o(i.flash_fwk_handle_power_event)
    flash_fwk_handle_power_event             0x08017ae1   Thumb Code    26  flash_dal_fwk.o(i.flash_fwk_handle_power_event)
    i.flash_fwk_handle_sys_request           0x08017afa   Section        0  flash_dal_fwk.o(i.flash_fwk_handle_sys_request)
    flash_fwk_handle_sys_request             0x08017afb   Thumb Code     6  flash_dal_fwk.o(i.flash_fwk_handle_sys_request)
    i.flash_fwk_init                         0x08017b00   Section        0  flash_dal_fwk.o(i.flash_fwk_init)
    flash_fwk_init                           0x08017b01   Thumb Code    26  flash_dal_fwk.o(i.flash_fwk_init)
    i.flash_fwk_open                         0x08017b1a   Section        0  flash_dal_fwk.o(i.flash_fwk_open)
    flash_fwk_open                           0x08017b1b   Thumb Code     4  flash_dal_fwk.o(i.flash_fwk_open)
    i.flash_fwk_open_partition               0x08017b1e   Section        0  flash_dal_fwk.o(i.flash_fwk_open_partition)
    flash_fwk_open_partition                 0x08017b1f   Thumb Code    26  flash_dal_fwk.o(i.flash_fwk_open_partition)
    i.flash_fwk_read_pages                   0x08017b38   Section        0  flash_dal_fwk.o(i.flash_fwk_read_pages)
    flash_fwk_read_pages                     0x08017b39   Thumb Code    26  flash_dal_fwk.o(i.flash_fwk_read_pages)
    i.flash_fwk_read_pointer                 0x08017b52   Section        0  flash_dal_fwk.o(i.flash_fwk_read_pointer)
    flash_fwk_read_pointer                   0x08017b53   Thumb Code    26  flash_dal_fwk.o(i.flash_fwk_read_pointer)
    i.flash_fwk_set_power_mode               0x08017b6c   Section        0  flash_dal_fwk.o(i.flash_fwk_set_power_mode)
    flash_fwk_set_power_mode                 0x08017b6d   Thumb Code    26  flash_dal_fwk.o(i.flash_fwk_set_power_mode)
    i.flash_fwk_write_2x_pages               0x08017b86   Section        0  flash_dal_fwk.o(i.flash_fwk_write_2x_pages)
    flash_fwk_write_2x_pages                 0x08017b87   Thumb Code     6  flash_dal_fwk.o(i.flash_fwk_write_2x_pages)
    i.flash_fwk_write_pages                  0x08017b8c   Section        0  flash_dal_fwk.o(i.flash_fwk_write_pages)
    flash_fwk_write_pages                    0x08017b8d   Thumb Code    26  flash_dal_fwk.o(i.flash_fwk_write_pages)
    i.flash_fwk_write_partial_page           0x08017ba6   Section        0  flash_dal_fwk.o(i.flash_fwk_write_partial_page)
    flash_fwk_write_partial_page             0x08017ba7   Thumb Code    26  flash_dal_fwk.o(i.flash_fwk_write_partial_page)
    i.flash_get_dma_buffers                  0x08017bc0   Section        0  flash_nand_entry.o(i.flash_get_dma_buffers)
    flash_get_dma_buffers                    0x08017bc1   Thumb Code    44  flash_nand_entry.o(i.flash_get_dma_buffers)
    i.flash_get_property                     0x08017bf0   Section        0  flash_properties.o(i.flash_get_property)
    i.flash_hal_cache_clean                  0x08017c58   Section        0  flash_hal_properties.o(i.flash_hal_cache_clean)
    i.flash_hal_cache_inval                  0x08017c68   Section        0  flash_hal_properties.o(i.flash_hal_cache_inval)
    i.flash_hal_dev_deinit                   0x08017c78   Section        0  flash_hal_main.o(i.flash_hal_dev_deinit)
    i.flash_hal_dev_init                     0x08017c98   Section        0  flash_hal_main.o(i.flash_hal_dev_init)
    i.flash_hal_get_page_layout              0x08017cac   Section        0  flash_hal_main.o(i.flash_hal_get_page_layout)
    i.flash_hal_get_predef_mem_usage         0x08017cc8   Section        0  flash_hal_main.o(i.flash_hal_get_predef_mem_usage)
    i.flash_hal_handle_opti_memcpy           0x08017ce4   Section        0  flash_hal_properties.o(i.flash_hal_handle_opti_memcpy)
    i.flash_hal_handle_unc_memcpy            0x08017cf0   Section        0  flash_hal_properties.o(i.flash_hal_handle_unc_memcpy)
    i.flash_hal_handle_unc_memset            0x08017d34   Section        0  flash_hal_properties.o(i.flash_hal_handle_unc_memset)
    i.flash_hal_predef_init                  0x08017d48   Section        0  flash_hal_main.o(i.flash_hal_predef_init)
    i.flash_hal_read_bb_marker               0x08017d64   Section        0  flash_hal_main.o(i.flash_hal_read_bb_marker)
    i.flash_hal_read_id                      0x08017d8c   Section        0  flash_hal_main.o(i.flash_hal_read_id)
    i.flash_hal_read_onfi_id                 0x08017db4   Section        0  flash_hal_main.o(i.flash_hal_read_onfi_id)
    i.flash_hal_read_page                    0x08017ddc   Section        0  flash_hal_main.o(i.flash_hal_read_page)
    i.flash_hal_read_param_page              0x08017e04   Section        0  flash_hal_main.o(i.flash_hal_read_param_page)
    i.flash_hal_set_address_cycles           0x08017e2c   Section        0  flash_hal_main.o(i.flash_hal_set_address_cycles)
    i.flash_hal_set_clk_cycle_gap            0x08017e44   Section        0  flash_hal_main.o(i.flash_hal_set_clk_cycle_gap)
    i.flash_hal_set_dev_width                0x08017e9c   Section        0  flash_hal_main.o(i.flash_hal_set_dev_width)
    i.flash_hal_set_ecc_length               0x08017eb8   Section        0  flash_hal_main.o(i.flash_hal_set_ecc_length)
    i.flash_hal_set_ecc_state                0x08017ed4   Section        0  flash_hal_main.o(i.flash_hal_set_ecc_state)
    i.flash_hal_set_page_size                0x08017ef0   Section        0  flash_hal_main.o(i.flash_hal_set_page_size)
    i.flash_hal_set_property                 0x08017f0c   Section        0  flash_hal_properties.o(i.flash_hal_set_property)
    i.flash_hal_set_spare_size               0x08017f5c   Section        0  flash_hal_main.o(i.flash_hal_set_spare_size)
    i.flash_hal_set_xfer_cfg                 0x08017f78   Section        0  flash_hal_main.o(i.flash_hal_set_xfer_cfg)
    i.flash_i2c_configure                    0x08017fa8   Section        0  flash_extdrv_i2c_v2.o(i.flash_i2c_configure)
    i.flash_i2c_init                         0x08017fc8   Section        0  flash_extdrv_i2c_v2.o(i.flash_i2c_init)
    i.flash_i2c_read                         0x08017fec   Section        0  flash_extdrv_i2c_v2.o(i.flash_i2c_read)
    i.flash_i2c_write                        0x080180e8   Section        0  flash_extdrv_i2c_v2.o(i.flash_i2c_write)
    i.flash_init_buffer_descriptor           0x080181f8   Section        0  boot_flash_dev_dal.o(i.flash_init_buffer_descriptor)
    flash_init_buffer_descriptor             0x080181f9   Thumb Code   282  boot_flash_dev_dal.o(i.flash_init_buffer_descriptor)
    i.flash_initialize_device_structure      0x08018334   Section        0  boot_flash_dev_dal.o(i.flash_initialize_device_structure)
    i.flash_nand_bad_block_check             0x08018364   Section        0  boot_flash_dev_dal.o(i.flash_nand_bad_block_check)
    flash_nand_bad_block_check               0x08018365   Thumb Code    44  boot_flash_dev_dal.o(i.flash_nand_bad_block_check)
    i.flash_nand_block_count                 0x080183ac   Section        0  boot_flash_dev_dal.o(i.flash_nand_block_count)
    i.flash_nand_block_size                  0x080183b0   Section        0  boot_flash_dev_dal.o(i.flash_nand_block_size)
    i.flash_nand_check_buff_desc             0x080183b4   Section        0  flash_nand_entry.o(i.flash_nand_check_buff_desc)
    flash_nand_check_buff_desc               0x080183b5   Thumb Code    22  flash_nand_entry.o(i.flash_nand_check_buff_desc)
    i.flash_nand_check_page_in_partition     0x080183ca   Section        0  flash_nand_entry.o(i.flash_nand_check_page_in_partition)
    flash_nand_check_page_in_partition       0x080183cb   Thumb Code    58  flash_nand_entry.o(i.flash_nand_check_page_in_partition)
    i.flash_nand_copy_page                   0x08018404   Section        0  boot_flash_dev_dal.o(i.flash_nand_copy_page)
    i.flash_nand_device_id                   0x08018434   Section        0  boot_flash_dev_dal.o(i.flash_nand_device_id)
    i.flash_nand_device_name                 0x08018438   Section        0  boot_flash_dev_dal.o(i.flash_nand_device_name)
    i.flash_nand_device_type                 0x0801843c   Section        0  boot_flash_dev_dal.o(i.flash_nand_device_type)
    i.flash_nand_device_width                0x08018440   Section        0  boot_flash_dev_dal.o(i.flash_nand_device_width)
    i.flash_nand_erase_block                 0x08018444   Section        0  boot_flash_dev_dal.o(i.flash_nand_erase_block)
    i.flash_nand_get_configs                 0x08018460   Section        0  flash_nand_config.o(i.flash_nand_get_configs)
    i.flash_nand_get_partition_attribs       0x0801846c   Section        0  boot_flash_dev_dal.o(i.flash_nand_get_partition_attribs)
    i.flash_nand_get_partition_phy_limits    0x08018480   Section        0  boot_flash_dev_dal.o(i.flash_nand_get_partition_phy_limits)
    i.flash_nand_get_spare_corrected_bcount  0x080184a2   Section        0  boot_flash_dev_dal.o(i.flash_nand_get_spare_corrected_bcount)
    i.flash_nand_is_block_erased             0x080184a6   Section        0  boot_flash_dev_dal.o(i.flash_nand_is_block_erased)
    i.flash_nand_is_page_erased              0x080184e8   Section        0  boot_flash_dev_dal.o(i.flash_nand_is_page_erased)
    i.flash_nand_lock_ops                    0x08018568   Section        0  boot_flash_dev_dal.o(i.flash_nand_lock_ops)
    i.flash_nand_maker_id                    0x0801856c   Section        0  boot_flash_dev_dal.o(i.flash_nand_maker_id)
    i.flash_nand_page_size                   0x08018570   Section        0  boot_flash_dev_dal.o(i.flash_nand_page_size)
    i.flash_nand_read_mpages                 0x08018574   Section        0  boot_flash_dev_dal.o(i.flash_nand_read_mpages)
    i.flash_nand_read_page                   0x080185cc   Section        0  boot_flash_dev_dal.o(i.flash_nand_read_page)
    i.flash_nand_read_page_and_udata         0x08018624   Section        0  boot_flash_dev_dal.o(i.flash_nand_read_page_and_udata)
    i.flash_nand_read_spare_bytes            0x08018674   Section        0  boot_flash_dev_dal.o(i.flash_nand_read_spare_bytes)
    i.flash_nand_read_spare_udata            0x080186bc   Section        0  boot_flash_dev_dal.o(i.flash_nand_read_spare_udata)
    i.flash_nand_total_page_size             0x08018740   Section        0  boot_flash_dev_dal.o(i.flash_nand_total_page_size)
    i.flash_nand_write_page                  0x08018744   Section        0  boot_flash_dev_dal.o(i.flash_nand_write_page)
    i.flash_nand_write_page_and_udata        0x0801877c   Section        0  boot_flash_dev_dal.o(i.flash_nand_write_page_and_udata)
    i.flash_nor_i2c_get_configs              0x080187c0   Section        0  flash_nor_i2c_config.o(i.flash_nor_i2c_get_configs)
    i.flash_nor_i2c_get_probe_table          0x080187cc   Section        0  flash_nor_i2c_config.o(i.flash_nor_i2c_get_probe_table)
    i.flash_open                             0x080187d8   Section        0  boot_flash_dev_dal.o(i.flash_open)
    i.flash_parti_read_pages                 0x08018958   Section        0  flash_nand_partition.o(i.flash_parti_read_pages)
    flash_parti_read_pages                   0x08018959   Thumb Code   108  flash_nand_partition.o(i.flash_parti_read_pages)
    i.flash_release_device_structure         0x080189c8   Section        0  boot_flash_dev_dal.o(i.flash_release_device_structure)
    i.flash_smem_alloc                       0x08018a14   Section        0  flash_boot_ops_setup.o(i.flash_smem_alloc)
    i.flash_strcpy                           0x08018a18   Section        0  flash_dal_util.o(i.flash_strcpy)
    i.flash_vtop_add_item                    0x08018a34   Section        0  flash_dal_util.o(i.flash_vtop_add_item)
    i.flash_vtop_get_physical                0x08018a58   Section        0  flash_dal_util.o(i.flash_vtop_get_physical)
    i.flash_vtop_init_list                   0x08018a98   Section        0  flash_dal_util.o(i.flash_vtop_init_list)
    i.free                                   0x08018aa4   Section        0  DALHeap.o(i.free)
    i.gen_crc                                0x08018aa6   Section        0  flash_onfi.o(i.gen_crc)
    i.get_device_configuration               0x08018aec   Section        0  icbcfg.o(i.get_device_configuration)
    i.get_dword_property                     0x08018c14   Section        0  Uart_sbl_os.o(i.get_dword_property)
    get_dword_property                       0x08018c15   Thumb Code    26  Uart_sbl_os.o(i.get_dword_property)
    i.get_index_from_ascent_list             0x08018c2e   Section        0  pm_smb.o(i.get_index_from_ascent_list)
    get_index_from_ascent_list               0x08018c2f   Thumb Code    40  pm_smb.o(i.get_index_from_ascent_list)
    i.get_largest_valid_size                 0x08018c56   Section        0  icbcfg.o(i.get_largest_valid_size)
    i.get_next_good_flash_area               0x08018c86   Section        0  boot_flash_trans_nand.o(i.get_next_good_flash_area)
    get_next_good_flash_area                 0x08018c87   Thumb Code    78  boot_flash_trans_nand.o(i.get_next_good_flash_area)
    i.get_partition_category                 0x08018cd4   Section        0  boot_ram_partition.o(i.get_partition_category)
    i.get_physical_flash_addr                0x08018d20   Section        0  boot_flash_trans_nand.o(i.get_physical_flash_addr)
    get_physical_flash_addr                  0x08018d21   Thumb Code    82  boot_flash_trans_nand.o(i.get_physical_flash_addr)
    i.get_qi                                 0x08018d90   Section        0  secmath_barrett_reduce.o(i.get_qi)
    get_qi                                   0x08018d91   Thumb Code    80  secmath_barrett_reduce.o(i.get_qi)
    i.get_system_memory_map                  0x08018de0   Section        0  icbcfg.o(i.get_system_memory_map)
    i.hal_nand_bam_reg_read_buff_alloc       0x08019028   Section        0  flash_hal_nandc_predef_bam_init.o(i.hal_nand_bam_reg_read_buff_alloc)
    i.hal_nandc_bam_00_30_bb_marker_exec     0x08019098   Section        0  flash_hal_nandc_predef_bam_exec.o(i.hal_nandc_bam_00_30_bb_marker_exec)
    i.hal_nandc_bam_00_30_bb_marker_init     0x080191a4   Section        0  flash_hal_nandc_predef_bam_init.o(i.hal_nandc_bam_00_30_bb_marker_init)
    i.hal_nandc_bam_00_30_bb_marker_pprocess 0x080192c0   Section        0  flash_hal_nandc_predef_bam_pprocess.o(i.hal_nandc_bam_00_30_bb_marker_pprocess)
    i.hal_nandc_bam_00_30_x1_exec            0x080192d0   Section        0  flash_hal_nandc_predef_bam_exec.o(i.hal_nandc_bam_00_30_x1_exec)
    i.hal_nandc_bam_00_30_x1_init            0x080193a0   Section        0  flash_hal_nandc_predef_bam_init.o(i.hal_nandc_bam_00_30_x1_init)
    i.hal_nandc_bam_00_30_x1_pprocess        0x0801955c   Section        0  flash_hal_nandc_predef_bam_pprocess.o(i.hal_nandc_bam_00_30_x1_pprocess)
    i.hal_nandc_bam_00_EC_exec               0x080195b4   Section        0  flash_hal_nandc_predef_bam_exec.o(i.hal_nandc_bam_00_EC_exec)
    i.hal_nandc_bam_00_EC_init               0x08019668   Section        0  flash_hal_nandc_predef_bam_init.o(i.hal_nandc_bam_00_EC_init)
    i.hal_nandc_bam_00_EC_pprocess           0x08019784   Section        0  flash_hal_nandc_predef_bam_pprocess.o(i.hal_nandc_bam_00_EC_pprocess)
    i.hal_nandc_bam_90_onfi_id_exec          0x08019794   Section        0  flash_hal_nandc_predef_bam_exec.o(i.hal_nandc_bam_90_onfi_id_exec)
    i.hal_nandc_bam_90_onfi_id_init          0x0801983c   Section        0  flash_hal_nandc_predef_bam_init.o(i.hal_nandc_bam_90_onfi_id_init)
    i.hal_nandc_bam_90_onfi_id_pprocess      0x08019958   Section        0  flash_hal_nandc_predef_bam_pprocess.o(i.hal_nandc_bam_90_onfi_id_pprocess)
    i.hal_nandc_bam_FF_90_exec               0x08019968   Section        0  flash_hal_nandc_predef_bam_exec.o(i.hal_nandc_bam_FF_90_exec)
    i.hal_nandc_bam_FF_90_init               0x08019a38   Section        0  flash_hal_nandc_predef_bam_init.o(i.hal_nandc_bam_FF_90_init)
    i.hal_nandc_bam_FF_90_pprocess           0x08019bec   Section        0  flash_hal_nandc_predef_bam_pprocess.o(i.hal_nandc_bam_FF_90_pprocess)
    i.hal_nandc_bam_check_status_error       0x08019bfc   Section        0  flash_hal_nandc_predef_bam_pprocess.o(i.hal_nandc_bam_check_status_error)
    hal_nandc_bam_check_status_error         0x08019bfd   Thumb Code    58  flash_hal_nandc_predef_bam_pprocess.o(i.hal_nandc_bam_check_status_error)
    i.hal_nandc_bam_xfer_steps_init          0x08019c38   Section        0  flash_hal_nandc_predef_bam_init.o(i.hal_nandc_bam_xfer_steps_init)
    i.hal_nandc_close                        0x08019ce0   Section        0  flash_hal_nandc_common.o(i.hal_nandc_close)
    i.hal_nandc_config_ctlr_data_4bit_ecc    0x08019cec   Section        0  flash_hal_nandc_common.o(i.hal_nandc_config_ctlr_data_4bit_ecc)
    hal_nandc_config_ctlr_data_4bit_ecc      0x08019ced   Thumb Code   254  flash_hal_nandc_common.o(i.hal_nandc_config_ctlr_data_4bit_ecc)
    i.hal_nandc_config_ctlr_data_8bit_ecc    0x08019df0   Section        0  flash_hal_nandc_common.o(i.hal_nandc_config_ctlr_data_8bit_ecc)
    hal_nandc_config_ctlr_data_8bit_ecc      0x08019df1   Thumb Code   256  flash_hal_nandc_common.o(i.hal_nandc_config_ctlr_data_8bit_ecc)
    i.hal_nandc_configure                    0x08019ef4   Section        0  flash_hal_nandc_common.o(i.hal_nandc_configure)
    hal_nandc_configure                      0x08019ef5   Thumb Code    94  flash_hal_nandc_common.o(i.hal_nandc_configure)
    i.hal_nandc_deinit                       0x08019f5c   Section        0  flash_hal_nandc_common.o(i.hal_nandc_deinit)
    i.hal_nandc_fptrs_init                   0x08019f60   Section        0  flash_hal_nandc_reduced.o(i.hal_nandc_fptrs_init)
    i.hal_nandc_fptrs_init_reduced           0x08019f64   Section        0  flash_hal_nandc_predef_bam_core.o(i.hal_nandc_fptrs_init_reduced)
    i.hal_nandc_get_cache_info               0x08019fac   Section        0  flash_hal_nandc_predef_bam_exec.o(i.hal_nandc_get_cache_info)
    i.hal_nandc_get_memory_usage             0x08019fc4   Section        0  flash_hal_nandc_common.o(i.hal_nandc_get_memory_usage)
    i.hal_nandc_get_page_layout              0x0801a004   Section        0  flash_hal_nandc_common.o(i.hal_nandc_get_page_layout)
    i.hal_nandc_iface_deinit                 0x0801a064   Section        0  flash_hal_nandc_predef_bam_core.o(i.hal_nandc_iface_deinit)
    i.hal_nandc_iface_init                   0x0801a068   Section        0  flash_hal_nandc_predef_bam_core.o(i.hal_nandc_iface_init)
    i.hal_nandc_init                         0x0801a090   Section        0  flash_hal_nandc_common.o(i.hal_nandc_init)
    i.hal_nandc_predef_bam_deinit            0x0801a124   Section        0  flash_hal_nandc_predef_bam_init.o(i.hal_nandc_predef_bam_deinit)
    i.hal_nandc_predef_bam_init              0x0801a128   Section        0  flash_hal_nandc_predef_bam_core.o(i.hal_nandc_predef_bam_init)
    i.hal_nandc_predef_cmd_blk_buff_alloc    0x0801a228   Section        0  flash_hal_nandc_predef_bam_init.o(i.hal_nandc_predef_cmd_blk_buff_alloc)
    i.hal_nandc_predef_cmd_list_init         0x0801a2a8   Section        0  flash_hal_nandc_predef_bam_init.o(i.hal_nandc_predef_cmd_list_init)
    i.hal_nandc_predef_cmd_ptrs_init         0x0801a544   Section        0  flash_hal_nandc_reduced.o(i.hal_nandc_predef_cmd_ptrs_init)
    i.hal_nandc_predef_cmd_ptrs_init_reduced 0x0801a548   Section        0  flash_hal_nandc_predef_bam_core.o(i.hal_nandc_predef_cmd_ptrs_init_reduced)
    i.hal_nandc_predef_desc_buff_alloc       0x0801a5e0   Section        0  flash_hal_nandc_predef_bam_init.o(i.hal_nandc_predef_desc_buff_alloc)
    i.hal_nandc_predef_desc_list_init        0x0801a620   Section        0  flash_hal_nandc_predef_bam_init.o(i.hal_nandc_predef_desc_list_init)
    i.hal_nandc_set_clock_cycle_gap          0x0801a674   Section        0  flash_hal_nandc_common.o(i.hal_nandc_set_clock_cycle_gap)
    hal_nandc_set_clock_cycle_gap            0x0801a675   Thumb Code    16  flash_hal_nandc_common.o(i.hal_nandc_set_clock_cycle_gap)
    i.hal_nandc_set_memory_region            0x0801a688   Section        0  flash_hal_nandc_predef_bam_init.o(i.hal_nandc_set_memory_region)
    i.hal_nandc_set_xfer_cfg_exec            0x0801a6a0   Section        0  flash_hal_nandc_predef_bam_exec.o(i.hal_nandc_set_xfer_cfg_exec)
    i.handle_ep_halt                         0x0801a6f0   Section        0  qhsusb_dcd_ch9.o(i.handle_ep_halt)
    handle_ep_halt                           0x0801a6f1   Thumb Code    42  qhsusb_dcd_ch9.o(i.handle_ep_halt)
    i.handle_get_descriptor                  0x0801a71c   Section        0  qhsusb_dcd_ch9.o(i.handle_get_descriptor)
    handle_get_descriptor                    0x0801a71d   Thumb Code   150  qhsusb_dcd_ch9.o(i.handle_get_descriptor)
    i.handle_setup_dev                       0x0801a7b8   Section        0  qhsusb_dcd_ch9.o(i.handle_setup_dev)
    handle_setup_dev                         0x0801a7b9   Thumb Code   204  qhsusb_dcd_ch9.o(i.handle_setup_dev)
    i.handle_setup_ep                        0x0801a888   Section        0  qhsusb_dcd_ch9.o(i.handle_setup_ep)
    handle_setup_ep                          0x0801a889   Thumb Code   146  qhsusb_dcd_ch9.o(i.handle_setup_ep)
    i.handle_setup_ifc                       0x0801a91a   Section        0  qhsusb_dcd_ch9.o(i.handle_setup_ifc)
    handle_setup_ifc                         0x0801a91b   Thumb Code   134  qhsusb_dcd_ch9.o(i.handle_setup_ifc)
    i.hdlc_init_rx_int_buf_mode              0x0801a9a0   Section        0  qhsusb_fd_hdlc.o(i.hdlc_init_rx_int_buf_mode)
    hdlc_init_rx_int_buf_mode                0x0801a9a1   Thumb Code    76  qhsusb_fd_hdlc.o(i.hdlc_init_rx_int_buf_mode)
    i.hdlc_notify_cb                         0x0801a9f4   Section        0  qhsusb_fd_hdlc.o(i.hdlc_notify_cb)
    hdlc_notify_cb                           0x0801a9f5   Thumb Code   110  qhsusb_fd_hdlc.o(i.hdlc_notify_cb)
    i.hdlc_rx_callback                       0x0801aa6c   Section        0  qhsusb_fd_hdlc.o(i.hdlc_rx_callback)
    hdlc_rx_callback                         0x0801aa6d   Thumb Code    52  qhsusb_fd_hdlc.o(i.hdlc_rx_callback)
    i.hdlc_rx_callback_int_buf_mode          0x0801aaa4   Section        0  qhsusb_fd_hdlc.o(i.hdlc_rx_callback_int_buf_mode)
    hdlc_rx_callback_int_buf_mode            0x0801aaa5   Thumb Code    32  qhsusb_fd_hdlc.o(i.hdlc_rx_callback_int_buf_mode)
    i.hdlc_tx_callback                       0x0801aac8   Section        0  qhsusb_fd_hdlc.o(i.hdlc_tx_callback)
    hdlc_tx_callback                         0x0801aac9   Thumb Code    46  qhsusb_fd_hdlc.o(i.hdlc_tx_callback)
    i.hid_setup                              0x0801aafc   Section        0  qhsusb_fd_chg.o(i.hid_setup)
    hid_setup                                0x0801aafd   Thumb Code    72  qhsusb_fd_chg.o(i.hid_setup)
    i.i2c_clk_init                           0x0801ab4c   Section        0  flash_extdrv_i2c_v2.o(i.i2c_clk_init)
    i2c_clk_init                             0x0801ab4d   Thumb Code   114  flash_extdrv_i2c_v2.o(i.i2c_clk_init)
    i.i2c_core_set_state                     0x0801abdc   Section        0  flash_extdrv_i2c_v2.o(i.i2c_core_set_state)
    i2c_core_set_state                       0x0801abdd   Thumb Code    30  flash_extdrv_i2c_v2.o(i.i2c_core_set_state)
    i.i2c_io_init                            0x0801ac00   Section        0  flash_extdrv_i2c_v2.o(i.i2c_io_init)
    i.i2c_qup_config                         0x0801ac18   Section        0  flash_extdrv_i2c_v2.o(i.i2c_qup_config)
    i2c_qup_config                           0x0801ac19   Thumb Code    76  flash_extdrv_i2c_v2.o(i.i2c_qup_config)
    i.i2c_qup_init                           0x0801ac68   Section        0  flash_extdrv_i2c_v2.o(i.i2c_qup_init)
    i.i2c_state_error_check                  0x0801aca4   Section        0  flash_extdrv_i2c_v2.o(i.i2c_state_error_check)
    i2c_state_error_check                    0x0801aca5   Thumb Code    26  flash_extdrv_i2c_v2.o(i.i2c_state_error_check)
    i.i2c_write_complete_check               0x0801acc4   Section        0  flash_extdrv_i2c_v2.o(i.i2c_write_complete_check)
    i2c_write_complete_check                 0x0801acc5   Thumb Code    24  flash_extdrv_i2c_v2.o(i.i2c_write_complete_check)
    i.image_uuid                             0x0801ace4   Section        0  image_uuid.o(i.image_uuid)
    i.image_version_initialize_version_table 0x0801ad04   Section        0  image_version.o(i.image_version_initialize_version_table)
    i.image_version_populate_version         0x0801ad24   Section        0  image_version.o(i.image_version_populate_version)
    i.initClkDev                             0x0801ae00   Section        0  SpmiOsImage.o(i.initClkDev)
    initClkDev                               0x0801ae01   Thumb Code    58  SpmiOsImage.o(i.initClkDev)
    i.insertHead                             0x0801ae6c   Section        0  bams.o(i.insertHead)
    insertHead                               0x0801ae6d   Thumb Code    24  bams.o(i.insertHead)
    i.inverse32                              0x0801ae84   Section        0  secmath_montmul_utils.o(i.inverse32)
    i.kick_watchdog                          0x0801aea6   Section        0  flash_properties.o(i.kick_watchdog)
    i.lennyFunc                              0x0801aea8   Section        0  boot_apt_test.o(i.lennyFunc)
    lennyFunc                                0x0801aea9   Thumb Code    18  boot_apt_test.o(i.lennyFunc)
    i.loadFull                               0x0801aecc   Section        0  SpmiMaster.o(i.loadFull)
    loadFull                                 0x0801aecd   Thumb Code    78  SpmiMaster.o(i.loadFull)
    i.loadMin                                0x0801af20   Section        0  SpmiMaster.o(i.loadMin)
    loadMin                                  0x0801af21   Thumb Code   114  SpmiMaster.o(i.loadMin)
    i.malloc                                 0x0801af98   Section        0  DALHeap.o(i.malloc)
    i.map_segments                           0x0801afdc   Section        0  icbcfg.o(i.map_segments)
    i.memscpy                                0x0801b430   Section        0  memscpy.o(i.memscpy)
    i.mmu_map_block_as_l1_sections           0x0801b44a   Section        0  boot_page_table.o(i.mmu_map_block_as_l1_sections)
    mmu_map_block_as_l1_sections             0x0801b44b   Thumb Code    74  boot_page_table.o(i.mmu_map_block_as_l1_sections)
    i.mmu_map_block_as_l2_pages              0x0801b494   Section        0  boot_page_table.o(i.mmu_map_block_as_l2_pages)
    mmu_map_block_as_l2_pages                0x0801b495   Thumb Code   144  boot_page_table.o(i.mmu_map_block_as_l2_pages)
    i.mod_exp                                0x0801b528   Section        0  secmath_mod_exp.o(i.mod_exp)
    i.montmul_one_ref                        0x0801b6de   Section        0  secmath_montmul_ref.o(i.montmul_one_ref)
    i.montmul_ref1                           0x0801b760   Section        0  secmath_montmul_ref.o(i.montmul_ref1)
    i.mult_R_mod_m                           0x0801b82a   Section        0  secmath_barrett_reduce.o(i.mult_R_mod_m)
    i.mult_base_mod_m                        0x0801b8c6   Section        0  secmath_barrett_reduce.o(i.mult_base_mod_m)
    i.myIsr                                  0x0801b998   Section        0  SpmiBus.o(i.myIsr)
    myIsr                                    0x0801b999   Thumb Code   180  SpmiBus.o(i.myIsr)
    i.nand_close                             0x0801ba7c   Section        0  flash_nand_init.o(i.nand_close)
    i.nand_configure                         0x0801ba9e   Section        0  flash_nand_init.o(i.nand_configure)
    nand_configure                           0x0801ba9f   Thumb Code   108  flash_nand_init.o(i.nand_configure)
    i.nand_configure_device_ctxt             0x0801bb0a   Section        0  flash_nand_init.o(i.nand_configure_device_ctxt)
    nand_configure_device_ctxt               0x0801bb0b   Thumb Code   112  flash_nand_init.o(i.nand_configure_device_ctxt)
    i.nand_configure_pdata                   0x0801bb7c   Section        0  flash_nand_init.o(i.nand_configure_pdata)
    nand_configure_pdata                     0x0801bb7d   Thumb Code    98  flash_nand_init.o(i.nand_configure_pdata)
    i.nand_deinit                            0x0801bbe4   Section        0  flash_nand_init.o(i.nand_deinit)
    i.nand_entry_block_get_state             0x0801bc30   Section        0  flash_nand_entry.o(i.nand_entry_block_get_state)
    i.nand_entry_close                       0x0801bc60   Section        0  flash_nand_entry.o(i.nand_entry_close)
    nand_entry_close                         0x0801bc61   Thumb Code    36  flash_nand_entry.o(i.nand_entry_close)
    i.nand_entry_deinit                      0x0801bc88   Section        0  flash_nand_entry.o(i.nand_entry_deinit)
    nand_entry_deinit                        0x0801bc89   Thumb Code    36  flash_nand_entry.o(i.nand_entry_deinit)
    i.nand_entry_device_probe                0x0801bcb0   Section        0  flash_nand_entry.o(i.nand_entry_device_probe)
    i.nand_entry_get_info                    0x0801bd38   Section        0  flash_nand_entry.o(i.nand_entry_get_info)
    nand_entry_get_info                      0x0801bd39   Thumb Code   150  flash_nand_entry.o(i.nand_entry_get_info)
    i.nand_entry_init                        0x0801bdd4   Section        0  flash_nand_entry.o(i.nand_entry_init)
    nand_entry_init                          0x0801bdd5   Thumb Code   124  flash_nand_entry.o(i.nand_entry_init)
    i.nand_entry_mem_alloc                   0x0801be64   Section        0  flash_nand_entry.o(i.nand_entry_mem_alloc)
    i.nand_entry_mem_deinit                  0x0801bf1c   Section        0  flash_nand_entry.o(i.nand_entry_mem_deinit)
    nand_entry_mem_deinit                    0x0801bf1d   Thumb Code    48  flash_nand_entry.o(i.nand_entry_mem_deinit)
    i.nand_entry_open_partition              0x0801bf50   Section        0  flash_nand_entry.o(i.nand_entry_open_partition)
    nand_entry_open_partition                0x0801bf51   Thumb Code    60  flash_nand_entry.o(i.nand_entry_open_partition)
    i.nand_entry_read_pages                  0x0801bf94   Section        0  flash_nand_entry.o(i.nand_entry_read_pages)
    i.nand_get_block_state                   0x0801c014   Section        0  flash_nand_core.o(i.nand_get_block_state)
    i.nand_get_block_status                  0x0801c018   Section        0  flash_nand_core.o(i.nand_get_block_status)
    nand_get_block_status                    0x0801c019   Thumb Code   218  flash_nand_core.o(i.nand_get_block_status)
    i.nand_get_device_nand_params            0x0801c0fc   Section        0  flash_nand_init.o(i.nand_get_device_nand_params)
    nand_get_device_nand_params              0x0801c0fd   Thumb Code   190  flash_nand_init.o(i.nand_get_device_nand_params)
    i.nand_get_entry_vtbl                    0x0801c1ba   Section        0  flash_dal_nand_reduced.o(i.nand_get_entry_vtbl)
    i.nand_get_entry_vtbl_reduced            0x0801c1c0   Section        0  flash_nand_entry.o(i.nand_get_entry_vtbl_reduced)
    i.nand_init_client_info                  0x0801c1f8   Section        0  flash_nand_init.o(i.nand_init_client_info)
    nand_init_client_info                    0x0801c1f9   Thumb Code   194  flash_nand_init.o(i.nand_init_client_info)
    i.nand_intialize_primary_hal_device      0x0801c2c0   Section        0  flash_nand_init.o(i.nand_intialize_primary_hal_device)
    nand_intialize_primary_hal_device        0x0801c2c1   Thumb Code   270  flash_nand_init.o(i.nand_intialize_primary_hal_device)
    i.nand_is_block_mibib                    0x0801c3d8   Section        0  flash_nand_partition.o(i.nand_is_block_mibib)
    nand_is_block_mibib                      0x0801c3d9   Thumb Code   214  flash_nand_partition.o(i.nand_is_block_mibib)
    i.nand_mem_deinit                        0x0801c4c8   Section        0  flash_nand_init.o(i.nand_mem_deinit)
    nand_mem_deinit                          0x0801c4c9   Thumb Code    26  flash_nand_init.o(i.nand_mem_deinit)
    i.nand_mem_init                          0x0801c4e8   Section        0  flash_nand_init.o(i.nand_mem_init)
    nand_mem_init                            0x0801c4e9   Thumb Code    58  flash_nand_init.o(i.nand_mem_init)
    i.nand_onfi_probe                        0x0801c52c   Section        0  flash_onfi.o(i.nand_onfi_probe)
    i.nand_open_partition                    0x0801c720   Section        0  flash_nand_init.o(i.nand_open_partition)
    i.nand_partition_update_limits           0x0801c724   Section        0  flash_nand_partition.o(i.nand_partition_update_limits)
    i.nand_predef_init                       0x0801c764   Section        0  flash_nand_init.o(i.nand_predef_init)
    i.nand_probe                             0x0801c7d0   Section        0  flash_nand_init.o(i.nand_probe)
    i.nand_read_custom_ids                   0x0801c8b0   Section        0  flash_onfi.o(i.nand_read_custom_ids)
    nand_read_custom_ids                     0x0801c8b1   Thumb Code   178  flash_onfi.o(i.nand_read_custom_ids)
    i.nand_read_id                           0x0801c968   Section        0  flash_nand_core.o(i.nand_read_id)
    i.nand_read_mpages                       0x0801c98c   Section        0  flash_nand_core.o(i.nand_read_mpages)
    nand_read_mpages                         0x0801c98d   Thumb Code   218  flash_nand_core.o(i.nand_read_mpages)
    i.nand_read_pages                        0x0801ca6c   Section        0  flash_nand_core.o(i.nand_read_pages)
    i.nand_retrieve_mibib                    0x0801cb18   Section        0  flash_nand_partition.o(i.nand_retrieve_mibib)
    i.nand_set_buff_desc                     0x0801cc84   Section        0  flash_nand_core.o(i.nand_set_buff_desc)
    nand_set_buff_desc                       0x0801cc85   Thumb Code    30  flash_nand_core.o(i.nand_set_buff_desc)
    i.nand_update_limits                     0x0801cca2   Section        0  flash_nand_partition.o(i.nand_update_limits)
    nand_update_limits                       0x0801cca3   Thumb Code   216  flash_nand_partition.o(i.nand_update_limits)
    i.nandc_set_addr                         0x0801cd7a   Section        0  flash_hal_nandc_predef_bam_exec.o(i.nandc_set_addr)
    nandc_set_addr                           0x0801cd7b   Thumb Code    26  flash_hal_nandc_predef_bam_exec.o(i.nandc_set_addr)
    i.nandc_set_cfg                          0x0801cd94   Section        0  flash_hal_nandc_predef_bam_exec.o(i.nandc_set_cfg)
    nandc_set_cfg                            0x0801cd95   Thumb Code    36  flash_hal_nandc_predef_bam_exec.o(i.nandc_set_cfg)
    i.nandc_set_read_buffers                 0x0801cdbc   Section        0  flash_hal_nandc_predef_bam_exec.o(i.nandc_set_read_buffers)
    nandc_set_read_buffers                   0x0801cdbd   Thumb Code   182  flash_hal_nandc_predef_bam_exec.o(i.nandc_set_read_buffers)
    i.nor_entry_begin_erase_block            0x0801ce78   Section        0  flash_nor_entry_reduced.o(i.nor_entry_begin_erase_block)
    nor_entry_begin_erase_block              0x0801ce79   Thumb Code     6  flash_nor_entry_reduced.o(i.nor_entry_begin_erase_block)
    i.nor_entry_block_get_state              0x0801ce7e   Section        0  flash_nor_entry_reduced.o(i.nor_entry_block_get_state)
    nor_entry_block_get_state                0x0801ce7f   Thumb Code     6  flash_nor_entry_reduced.o(i.nor_entry_block_get_state)
    i.nor_entry_block_set_state              0x0801ce84   Section        0  flash_nor_entry_reduced.o(i.nor_entry_block_set_state)
    nor_entry_block_set_state                0x0801ce85   Thumb Code     6  flash_nor_entry_reduced.o(i.nor_entry_block_set_state)
    i.nor_entry_close                        0x0801ce8a   Section        0  flash_nor_entry_reduced.o(i.nor_entry_close)
    nor_entry_close                          0x0801ce8b   Thumb Code     4  flash_nor_entry_reduced.o(i.nor_entry_close)
    i.nor_entry_copy_pages                   0x0801ce8e   Section        0  flash_nor_entry_reduced.o(i.nor_entry_copy_pages)
    nor_entry_copy_pages                     0x0801ce8f   Thumb Code     6  flash_nor_entry_reduced.o(i.nor_entry_copy_pages)
    i.nor_entry_deinit                       0x0801ce94   Section        0  flash_nor_entry_reduced.o(i.nor_entry_deinit)
    nor_entry_deinit                         0x0801ce95   Thumb Code    20  flash_nor_entry_reduced.o(i.nor_entry_deinit)
    i.nor_entry_device_probe_reduced         0x0801cea8   Section        0  flash_nor_entry_reduced.o(i.nor_entry_device_probe_reduced)
    i.nor_entry_erase_blocks                 0x0801cee8   Section        0  flash_nor_entry_reduced.o(i.nor_entry_erase_blocks)
    nor_entry_erase_blocks                   0x0801cee9   Thumb Code     6  flash_nor_entry_reduced.o(i.nor_entry_erase_blocks)
    i.nor_entry_erase_blocks_by_size         0x0801ceee   Section        0  flash_nor_entry_reduced.o(i.nor_entry_erase_blocks_by_size)
    nor_entry_erase_blocks_by_size           0x0801ceef   Thumb Code     6  flash_nor_entry_reduced.o(i.nor_entry_erase_blocks_by_size)
    i.nor_entry_erase_resume                 0x0801cef4   Section        0  flash_nor_entry_reduced.o(i.nor_entry_erase_resume)
    nor_entry_erase_resume                   0x0801cef5   Thumb Code     6  flash_nor_entry_reduced.o(i.nor_entry_erase_resume)
    i.nor_entry_erase_suspend                0x0801cefa   Section        0  flash_nor_entry_reduced.o(i.nor_entry_erase_suspend)
    nor_entry_erase_suspend                  0x0801cefb   Thumb Code     6  flash_nor_entry_reduced.o(i.nor_entry_erase_suspend)
    i.nor_entry_get_info                     0x0801cf00   Section        0  flash_nor_entry_reduced.o(i.nor_entry_get_info)
    nor_entry_get_info                       0x0801cf01   Thumb Code    22  flash_nor_entry_reduced.o(i.nor_entry_get_info)
    i.nor_entry_get_status                   0x0801cf16   Section        0  flash_nor_entry_reduced.o(i.nor_entry_get_status)
    nor_entry_get_status                     0x0801cf17   Thumb Code     6  flash_nor_entry_reduced.o(i.nor_entry_get_status)
    i.nor_entry_get_uuid                     0x0801cf1c   Section        0  flash_nor_entry_reduced.o(i.nor_entry_get_uuid)
    nor_entry_get_uuid                       0x0801cf1d   Thumb Code     6  flash_nor_entry_reduced.o(i.nor_entry_get_uuid)
    i.nor_entry_open_partition               0x0801cf22   Section        0  flash_nor_entry_reduced.o(i.nor_entry_open_partition)
    nor_entry_open_partition                 0x0801cf23   Thumb Code    28  flash_nor_entry_reduced.o(i.nor_entry_open_partition)
    i.nor_entry_power_event                  0x0801cf3e   Section        0  flash_nor_entry_reduced.o(i.nor_entry_power_event)
    nor_entry_power_event                    0x0801cf3f   Thumb Code     6  flash_nor_entry_reduced.o(i.nor_entry_power_event)
    i.nor_entry_read_pages                   0x0801cf44   Section        0  flash_nor_entry_reduced.o(i.nor_entry_read_pages)
    nor_entry_read_pages                     0x0801cf45   Thumb Code    30  flash_nor_entry_reduced.o(i.nor_entry_read_pages)
    i.nor_entry_read_pointer                 0x0801cf62   Section        0  flash_nor_entry_reduced.o(i.nor_entry_read_pointer)
    nor_entry_read_pointer                   0x0801cf63   Thumb Code     6  flash_nor_entry_reduced.o(i.nor_entry_read_pointer)
    i.nor_entry_set_power_mode               0x0801cf68   Section        0  flash_nor_entry_reduced.o(i.nor_entry_set_power_mode)
    nor_entry_set_power_mode                 0x0801cf69   Thumb Code     6  flash_nor_entry_reduced.o(i.nor_entry_set_power_mode)
    i.nor_entry_write_2x_pages               0x0801cf6e   Section        0  flash_nor_entry_reduced.o(i.nor_entry_write_2x_pages)
    nor_entry_write_2x_pages                 0x0801cf6f   Thumb Code     6  flash_nor_entry_reduced.o(i.nor_entry_write_2x_pages)
    i.nor_entry_write_pages                  0x0801cf74   Section        0  flash_nor_entry_reduced.o(i.nor_entry_write_pages)
    nor_entry_write_pages                    0x0801cf75   Thumb Code    30  flash_nor_entry_reduced.o(i.nor_entry_write_pages)
    i.nor_entry_write_partial_page           0x0801cf92   Section        0  flash_nor_entry_reduced.o(i.nor_entry_write_partial_page)
    nor_entry_write_partial_page             0x0801cf93   Thumb Code     6  flash_nor_entry_reduced.o(i.nor_entry_write_partial_page)
    i.nor_i2c_close                          0x0801cf98   Section        0  flash_nor_i2c_init.o(i.nor_i2c_close)
    nor_i2c_close                            0x0801cf99   Thumb Code     4  flash_nor_i2c_init.o(i.nor_i2c_close)
    i.nor_i2c_configure                      0x0801cf9c   Section        0  flash_nor_i2c_init.o(i.nor_i2c_configure)
    nor_i2c_configure                        0x0801cf9d   Thumb Code    70  flash_nor_i2c_init.o(i.nor_i2c_configure)
    i.nor_i2c_configure_device_ctxt          0x0801cff4   Section        0  flash_nor_i2c_init.o(i.nor_i2c_configure_device_ctxt)
    nor_i2c_configure_device_ctxt            0x0801cff5   Thumb Code   146  flash_nor_i2c_init.o(i.nor_i2c_configure_device_ctxt)
    i.nor_i2c_deinit                         0x0801d08c   Section        0  flash_nor_i2c_init.o(i.nor_i2c_deinit)
    nor_i2c_deinit                           0x0801d08d   Thumb Code    10  flash_nor_i2c_init.o(i.nor_i2c_deinit)
    i.nor_i2c_get_info                       0x0801d096   Section        0  flash_nor_i2c_core.o(i.nor_i2c_get_info)
    nor_i2c_get_info                         0x0801d097   Thumb Code   146  flash_nor_i2c_core.o(i.nor_i2c_get_info)
    i.nor_i2c_init_client_info               0x0801d128   Section        0  flash_nor_i2c_init.o(i.nor_i2c_init_client_info)
    i.nor_i2c_mem_deinit                     0x0801d19c   Section        0  flash_nor_i2c_init.o(i.nor_i2c_mem_deinit)
    nor_i2c_mem_deinit                       0x0801d19d   Thumb Code    22  flash_nor_i2c_init.o(i.nor_i2c_mem_deinit)
    i.nor_i2c_open_partition                 0x0801d1b2   Section        0  flash_nor_i2c_init.o(i.nor_i2c_open_partition)
    nor_i2c_open_partition                   0x0801d1b3   Thumb Code     4  flash_nor_i2c_init.o(i.nor_i2c_open_partition)
    i.nor_i2c_probe                          0x0801d1b8   Section        0  flash_nor_i2c_init.o(i.nor_i2c_probe)
    i.nor_i2c_read_op                        0x0801d280   Section        0  flash_nor_i2c_init.o(i.nor_i2c_read_op)
    i.nor_i2c_read_pages                     0x0801d298   Section        0  flash_nor_i2c_core.o(i.nor_i2c_read_pages)
    nor_i2c_read_pages                       0x0801d299   Thumb Code    94  flash_nor_i2c_core.o(i.nor_i2c_read_pages)
    i.nor_i2c_write_op                       0x0801d2f8   Section        0  flash_nor_i2c_init.o(i.nor_i2c_write_op)
    i.nor_i2c_write_pages                    0x0801d310   Section        0  flash_nor_i2c_core.o(i.nor_i2c_write_pages)
    nor_i2c_write_pages                      0x0801d311   Thumb Code   102  flash_nor_i2c_core.o(i.nor_i2c_write_pages)
    i.ownerCmpr                              0x0801d376   Section        0  SpmiCfg.o(i.ownerCmpr)
    ownerCmpr                                0x0801d377   Thumb Code    28  SpmiCfg.o(i.ownerCmpr)
    i.pbl_clk_julian_to_secs                 0x0801d392   Section        0  secboot_asn1.o(i.pbl_clk_julian_to_secs)
    i.pbl_secasn1_close_sequence             0x0801d496   Section        0  secboot_asn1.o(i.pbl_secasn1_close_sequence)
    i.pbl_secasn1_decode_bit_string          0x0801d4b4   Section        0  secboot_asn1.o(i.pbl_secasn1_decode_bit_string)
    i.pbl_secasn1_decode_boolean             0x0801d4f8   Section        0  secboot_asn1.o(i.pbl_secasn1_decode_boolean)
    i.pbl_secasn1_decode_length              0x0801d52e   Section        0  secboot_asn1.o(i.pbl_secasn1_decode_length)
    i.pbl_secasn1_decode_tag                 0x0801d5a6   Section        0  secboot_asn1.o(i.pbl_secasn1_decode_tag)
    i.pbl_secasn1_decode_time                0x0801d5ec   Section        0  secboot_asn1.o(i.pbl_secasn1_decode_time)
    i.pbl_secasn1_end                        0x0801d70c   Section        0  secboot_asn1.o(i.pbl_secasn1_end)
    i.pbl_secasn1_next_field                 0x0801d72a   Section        0  secboot_asn1.o(i.pbl_secasn1_next_field)
    i.pbl_secasn1_start                      0x0801d7f8   Section        0  secboot_asn1.o(i.pbl_secasn1_start)
    i.pbl_secx509_check_cert_list            0x0801d858   Section        0  secboot_x509.o(i.pbl_secx509_check_cert_list)
    i.pbl_secx509_check_issued               0x0801d8e6   Section        0  secboot_x509.o(i.pbl_secx509_check_issued)
    i.pbl_secx509_check_purpose              0x0801d976   Section        0  secboot_x509.o(i.pbl_secx509_check_purpose)
    i.pbl_secx509_get_asn1_cert_size         0x0801d998   Section        0  secboot_x509.o(i.pbl_secx509_get_asn1_cert_size)
    i.pbl_secx509_name_cmp                   0x0801d9e0   Section        0  secboot_x509.o(i.pbl_secx509_name_cmp)
    i.pbl_secx509_parse_auth_key_id          0x0801d9fe   Section        0  secboot_x509.o(i.pbl_secx509_parse_auth_key_id)
    i.pbl_secx509_parse_basic_constraint     0x0801da6c   Section        0  secboot_x509.o(i.pbl_secx509_parse_basic_constraint)
    i.pbl_secx509_parse_cert_buffer          0x0801db14   Section        0  secboot_x509.o(i.pbl_secx509_parse_cert_buffer)
    i.pbl_secx509_parse_certificate          0x0801dc38   Section        0  secboot_x509.o(i.pbl_secx509_parse_certificate)
    i.pbl_secx509_parse_dn                   0x0801dd7c   Section        0  secboot_x509.o(i.pbl_secx509_parse_dn)
    i.pbl_secx509_parse_ex_key_usage         0x0801e074   Section        0  secboot_x509.o(i.pbl_secx509_parse_ex_key_usage)
    i.pbl_secx509_parse_extensions           0x0801e190   Section        0  secboot_x509.o(i.pbl_secx509_parse_extensions)
    i.pbl_secx509_parse_gen_name_for_dir     0x0801e390   Section        0  secboot_x509.o(i.pbl_secx509_parse_gen_name_for_dir)
    i.pbl_secx509_parse_key_usage            0x0801e3d4   Section        0  secboot_x509.o(i.pbl_secx509_parse_key_usage)
    i.pbl_secx509_parse_pub_key              0x0801e430   Section        0  secboot_x509.o(i.pbl_secx509_parse_pub_key)
    i.pbl_secx509_parse_sig_algorithm        0x0801e57c   Section        0  secboot_x509.o(i.pbl_secx509_parse_sig_algorithm)
    i.pbl_secx509_parse_signature            0x0801e630   Section        0  secboot_x509.o(i.pbl_secx509_parse_signature)
    i.pbl_secx509_parse_unique_id            0x0801e6a6   Section        0  secboot_x509.o(i.pbl_secx509_parse_unique_id)
    i.pbl_secx509_parse_validity             0x0801e6c8   Section        0  secboot_x509.o(i.pbl_secx509_parse_validity)
    i.pbl_secx509_parse_version              0x0801e764   Section        0  secboot_x509.o(i.pbl_secx509_parse_version)
    i.pbl_secx509_skip_num_certs             0x0801e7a6   Section        0  secboot_x509.o(i.pbl_secx509_skip_num_certs)
    i.pm_cfg_device_index                    0x0801e7e8   Section        0  pm_app_chg_alg.o(i.pm_cfg_device_index)
    i.pm_chg_battery_and_debug_board_detect_state 0x0801e7f8   Section        0  pm_app_chg_alg.o(i.pm_chg_battery_and_debug_board_detect_state)
    i.pm_chg_bootup_ok_state                 0x0801e8cc   Section        0  pm_app_chg_alg.o(i.pm_chg_bootup_ok_state)
    i.pm_chg_cdp_charging_state              0x0801e934   Section        0  pm_app_chg_alg.o(i.pm_chg_cdp_charging_state)
    i.pm_chg_charger_detect_state            0x0801e9a8   Section        0  pm_app_chg_alg.o(i.pm_chg_charger_detect_state)
    i.pm_chg_dcp_charging_state              0x0801eb2c   Section        0  pm_app_chg_alg.o(i.pm_chg_dcp_charging_state)
    i.pm_chg_driver_init                     0x0801ebc0   Section        0  pm_chg_driver.o(i.pm_chg_driver_init)
    i.pm_chg_enable_usb_charging             0x0801ec18   Section        0  pm_app_chg_alg.o(i.pm_chg_enable_usb_charging)
    i.pm_chg_enter_hw_trickle_charging       0x0801ed98   Section        0  pm_app_chg_alg.o(i.pm_chg_enter_hw_trickle_charging)
    pm_chg_enter_hw_trickle_charging         0x0801ed99   Thumb Code   104  pm_app_chg_alg.o(i.pm_chg_enter_hw_trickle_charging)
    i.pm_chg_float_charging_state            0x0801ee10   Section        0  pm_app_chg_alg.o(i.pm_chg_float_charging_state)
    i.pm_chg_get_battery_volt_level          0x0801ee84   Section        0  pm_app_chg_util.o(i.pm_chg_get_battery_volt_level)
    i.pm_chg_get_chg_option                  0x0801eed4   Section        0  pm_app_chg_util.o(i.pm_chg_get_chg_option)
    i.pm_chg_get_enum_timer_expired          0x0801eefc   Section        0  pm_app_chg_util.o(i.pm_chg_get_enum_timer_expired)
    i.pm_chg_get_enum_timer_status           0x0801ef24   Section        0  pm_app_chg_util.o(i.pm_chg_get_enum_timer_status)
    i.pm_chg_get_peripheral_sub_type         0x0801ef4c   Section        0  pm_chg_driver.o(i.pm_chg_get_peripheral_sub_type)
    i.pm_chg_is_battery_present              0x0801ef60   Section        0  pm_app_chg_util.o(i.pm_chg_is_battery_present)
    i.pm_chg_is_battery_weak                 0x0801efb4   Section        0  pm_app_chg_alg.o(i.pm_chg_is_battery_weak)
    i.pm_chg_is_charger_present              0x0801f004   Section        0  pm_app_chg_util.o(i.pm_chg_is_charger_present)
    i.pm_chg_is_debug_board_present          0x0801f05e   Section        0  pm_app_chg_util.o(i.pm_chg_is_debug_board_present)
    i.pm_chg_process_sbl_charger_states      0x0801f0c0   Section        0  pm_app_chg_alg.o(i.pm_chg_process_sbl_charger_states)
    pm_chg_process_sbl_charger_states        0x0801f0c1   Thumb Code    64  pm_app_chg_alg.o(i.pm_chg_process_sbl_charger_states)
    i.pm_chg_sbl_charging_initialize         0x0801f114   Section        0  pm_app_chg_alg.o(i.pm_chg_sbl_charging_initialize)
    pm_chg_sbl_charging_initialize           0x0801f115   Thumb Code   130  pm_app_chg_alg.o(i.pm_chg_sbl_charging_initialize)
    i.pm_chg_sbl_charging_state_entry        0x0801f1ac   Section        0  pm_app_chg_alg.o(i.pm_chg_sbl_charging_state_entry)
    i.pm_chg_sdp_charging_state              0x0801f1e8   Section        0  pm_app_chg_alg.o(i.pm_chg_sdp_charging_state)
    i.pm_chg_set_atc_led                     0x0801f2fc   Section        0  pm_chg.o(i.pm_chg_set_atc_led)
    i.pm_chg_set_battery_threshold           0x0801f32c   Section        0  pm_app_chg_util.o(i.pm_chg_set_battery_threshold)
    i.pm_chg_set_boot_done                   0x0801f366   Section        0  pm_app_chg_util.o(i.pm_chg_set_boot_done)
    i.pm_chg_set_comp_override               0x0801f38a   Section        0  pm_app_chg_util.o(i.pm_chg_set_comp_override)
    i.pm_chg_set_ibat_atc_b                  0x0801f3ba   Section        0  pm_app_chg_util.o(i.pm_chg_set_ibat_atc_b)
    i.pm_chg_set_ibat_max                    0x0801f3e2   Section        0  pm_app_chg_util.o(i.pm_chg_set_ibat_max)
    i.pm_chg_set_ibat_safe                   0x0801f412   Section        0  pm_app_chg_util.o(i.pm_chg_set_ibat_safe)
    i.pm_chg_set_itrkl                       0x0801f43a   Section        0  pm_app_chg_util.o(i.pm_chg_set_itrkl)
    i.pm_chg_set_iusb_max                    0x0801f462   Section        0  pm_app_chg_util.o(i.pm_chg_set_iusb_max)
    i.pm_chg_set_mode                        0x0801f48a   Section        0  pm_app_chg_util.o(i.pm_chg_set_mode)
    i.pm_chg_set_vin_min                     0x0801f4ba   Section        0  pm_app_chg_util.o(i.pm_chg_set_vin_min)
    i.pm_chg_shutdown_state                  0x0801f4e4   Section        0  pm_app_chg_alg.o(i.pm_chg_shutdown_state)
    i.pm_chg_stop_enum_timer                 0x0801f590   Section        0  pm_app_chg_util.o(i.pm_chg_stop_enum_timer)
    i.pm_clk_busy_wait                       0x0801f5b4   Section        0  pm_utils.o(i.pm_clk_busy_wait)
    i.pm_clk_driver_init                     0x0801f5c8   Section        0  pm_clk_driver.o(i.pm_clk_driver_init)
    i.pm_coincell_driver_init                0x0801f6fc   Section        0  pm_coincell_driver.o(i.pm_coincell_driver_init)
    i.pm_comm_get_comm_info                  0x0801f798   Section        0  pm_comm.o(i.pm_comm_get_comm_info)
    i.pm_comm_info_init                      0x0801f7b8   Section        0  pm_comm.o(i.pm_comm_info_init)
    i.pm_comm_read_byte                      0x0801f810   Section        0  pm_comm_spmi_lite.o(i.pm_comm_read_byte)
    i.pm_comm_read_byte_array                0x0801f836   Section        0  pm_comm_spmi_lite.o(i.pm_comm_read_byte_array)
    i.pm_comm_read_byte_mask                 0x0801f854   Section        0  pm_comm_spmi_lite.o(i.pm_comm_read_byte_mask)
    i.pm_comm_write_byte                     0x0801f870   Section        0  pm_comm_spmi_lite.o(i.pm_comm_write_byte)
    i.pm_comm_write_byte_array               0x0801f892   Section        0  pm_comm_spmi_lite.o(i.pm_comm_write_byte_array)
    i.pm_comm_write_byte_mask                0x0801f8aa   Section        0  pm_comm_spmi_lite.o(i.pm_comm_write_byte_mask)
    i.pm_device_init                         0x0801f900   Section        0  pm_sbl_boot.o(i.pm_device_init)
    i.pm_driver_init                         0x0801fc08   Section        0  pm_init.o(i.pm_driver_init)
    i.pm_driver_post_init                    0x0801fc18   Section        0  pm_sbl_boot.o(i.pm_driver_post_init)
    i.pm_get_num_slaves_per_pmic             0x0801fc38   Section        0  pm_version.o(i.pm_get_num_slaves_per_pmic)
    i.pm_get_pbs_info                        0x0801fc3c   Section        0  pm_pbs_info.o(i.pm_get_pbs_info)
    i.pm_get_pmic_info                       0x0801fcb8   Section        0  pm_version.o(i.pm_get_pmic_info)
    i.pm_get_pmic_model                      0x0801fcec   Section        0  pm_version.o(i.pm_get_pmic_model)
    i.pm_get_slave_id                        0x0801fd14   Section        0  pm_version.o(i.pm_get_slave_id)
    i.pm_get_smb_by_pass_config              0x0801fd48   Section        0  pm_app_chg_alg.o(i.pm_get_smb_by_pass_config)
    pm_get_smb_by_pass_config                0x0801fd49   Thumb Code    76  pm_app_chg_alg.o(i.pm_get_smb_by_pass_config)
    i.pm_gpio_driver_init                    0x0801fdd0   Section        0  pm_gpio_driver.o(i.pm_gpio_driver_init)
    i.pm_ibb_driver_init                     0x0801fe70   Section        0  pm_ibb_driver.o(i.pm_ibb_driver_init)
    i.pm_lab_driver_init                     0x0801fee8   Section        0  pm_lab_driver.o(i.pm_lab_driver_init)
    i.pm_lbc_chg_get_battery_present         0x0801ff60   Section        0  pm_lbc.o(i.pm_lbc_chg_get_battery_present)
    i.pm_lbc_chg_get_charger_present         0x0801ffbc   Section        0  pm_lbc.o(i.pm_lbc_chg_get_charger_present)
    i.pm_lbc_chg_get_chg_option              0x08020064   Section        0  pm_lbc.o(i.pm_lbc_chg_get_chg_option)
    i.pm_lbc_chg_get_enum_timer_expired      0x080200b0   Section        0  pm_lbc.o(i.pm_lbc_chg_get_enum_timer_expired)
    i.pm_lbc_chg_get_enum_timer_staus        0x08020102   Section        0  pm_lbc.o(i.pm_lbc_chg_get_enum_timer_staus)
    i.pm_lbc_chg_set_atc_led                 0x08020150   Section        0  pm_lbc.o(i.pm_lbc_chg_set_atc_led)
    i.pm_lbc_chg_set_battery_threshold       0x08020188   Section        0  pm_lbc.o(i.pm_lbc_chg_set_battery_threshold)
    i.pm_lbc_chg_set_boot_done               0x08020252   Section        0  pm_lbc.o(i.pm_lbc_chg_set_boot_done)
    i.pm_lbc_chg_set_comp_override           0x08020290   Section        0  pm_lbc.o(i.pm_lbc_chg_set_comp_override)
    i.pm_lbc_chg_set_ibat_atc_b              0x080202f0   Section        0  pm_lbc.o(i.pm_lbc_chg_set_ibat_atc_b)
    i.pm_lbc_chg_set_ibat_max                0x08020334   Section        0  pm_lbc.o(i.pm_lbc_chg_set_ibat_max)
    i.pm_lbc_chg_set_ibat_safe               0x08020398   Section        0  pm_lbc.o(i.pm_lbc_chg_set_ibat_safe)
    i.pm_lbc_chg_set_mode                    0x080203fc   Section        0  pm_lbc.o(i.pm_lbc_chg_set_mode)
    i.pm_lbc_chg_set_vin_min                 0x08020450   Section        0  pm_lbc.o(i.pm_lbc_chg_set_vin_min)
    i.pm_lbc_chg_stop_enum_timer             0x0802049e   Section        0  pm_lbc.o(i.pm_lbc_chg_stop_enum_timer)
    i.pm_lbc_driver_init                     0x080204dc   Section        0  pm_lbc_driver.o(i.pm_lbc_driver_init)
    i.pm_lbc_get_data                        0x08020578   Section        0  pm_lbc_driver.o(i.pm_lbc_get_data)
    i.pm_ldo_driver_init                     0x0802058c   Section        0  pm_ldo_driver.o(i.pm_ldo_driver_init)
    i.pm_ldo_get_range_setting_info          0x080206f8   Section        0  pm_ldo_driver.o(i.pm_ldo_get_range_setting_info)
    pm_ldo_get_range_setting_info            0x080206f9   Thumb Code   182  pm_ldo_driver.o(i.pm_ldo_get_range_setting_info)
    i.pm_ldo_get_volt_setting_info           0x080207ae   Section        0  pm_ldo_driver.o(i.pm_ldo_get_volt_setting_info)
    pm_ldo_get_volt_setting_info             0x080207af   Thumb Code   182  pm_ldo_driver.o(i.pm_ldo_get_volt_setting_info)
    i.pm_led_config                          0x08020864   Section        0  pm_app_led.o(i.pm_led_config)
    i.pm_led_enable                          0x08020988   Section        0  pm_app_led.o(i.pm_led_enable)
    i.pm_led_get_default_led                 0x08020a04   Section        0  pm_app_led.o(i.pm_led_get_default_led)
    i.pm_led_get_led_info                    0x08020a14   Section        0  pm_app_led.o(i.pm_led_get_led_info)
    i.pm_lpg_config_pwm_type                 0x08020a30   Section        0  pm_lpg.o(i.pm_lpg_config_pwm_type)
    i.pm_lpg_driver_init                     0x08020a8c   Section        0  pm_lpg_driver.o(i.pm_lpg_driver_init)
    i.pm_lpg_get_data                        0x08020b28   Section        0  pm_lpg_driver.o(i.pm_lpg_get_data)
    i.pm_lpg_pattern_config                  0x08020b3c   Section        0  pm_lpg.o(i.pm_lpg_pattern_config)
    i.pm_lpg_pwm_clock_sel                   0x08020b98   Section        0  pm_lpg.o(i.pm_lpg_pwm_clock_sel)
    i.pm_lpg_pwm_enable                      0x08020bd6   Section        0  pm_lpg.o(i.pm_lpg_pwm_enable)
    i.pm_lpg_pwm_set_pre_divide              0x08020c1a   Section        0  pm_lpg.o(i.pm_lpg_pwm_set_pre_divide)
    i.pm_lpg_pwm_set_pwm_value               0x08020c5e   Section        0  pm_lpg.o(i.pm_lpg_pwm_set_pwm_value)
    i.pm_lpg_set_pwm_bit_size                0x08020ccc   Section        0  pm_lpg.o(i.pm_lpg_set_pwm_bit_size)
    i.pm_malloc                              0x08020d2c   Section        0  pm_utils.o(i.pm_malloc)
    i.pm_mpp_abus_pulldown                   0x08020d70   Section        0  pm_mpp.o(i.pm_mpp_abus_pulldown)
    pm_mpp_abus_pulldown                     0x08020d71   Thumb Code   174  pm_mpp.o(i.pm_mpp_abus_pulldown)
    i.pm_mpp_config_analog_input             0x08020e1e   Section        0  pm_mpp.o(i.pm_mpp_config_analog_input)
    i.pm_mpp_config_i_sink                   0x08020eb6   Section        0  pm_mpp.o(i.pm_mpp_config_i_sink)
    i.pm_mpp_configure_type                  0x08020f5c   Section        0  pm_mpp.o(i.pm_mpp_configure_type)
    pm_mpp_configure_type                    0x08020f5d   Thumb Code    54  pm_mpp.o(i.pm_mpp_configure_type)
    i.pm_mpp_driver_init                     0x08020f94   Section        0  pm_mpp_driver.o(i.pm_mpp_driver_init)
    i.pm_mpp_enable                          0x08021098   Section        0  pm_mpp.o(i.pm_mpp_enable)
    i.pm_mpp_get_data                        0x080210d8   Section        0  pm_mpp_driver.o(i.pm_mpp_get_data)
    i.pm_oem_init                            0x080210ec   Section        0  pm_init.o(i.pm_oem_init)
    i.pm_pbs_client_driver_init              0x080210f0   Section        0  pm_pbs_client_driver.o(i.pm_pbs_client_driver_init)
    i.pm_pbs_config_access                   0x0802119c   Section        0  pm_pbs_driver.o(i.pm_pbs_config_access)
    i.pm_pbs_disable_access                  0x080211ea   Section        0  pm_pbs_driver.o(i.pm_pbs_disable_access)
    i.pm_pbs_enable_access                   0x080211f6   Section        0  pm_pbs_driver.o(i.pm_pbs_enable_access)
    i.pm_pbs_info_init                       0x08021204   Section        0  pm_pbs_info.o(i.pm_pbs_info_init)
    i.pm_pbs_info_misc_periph_read           0x080212ac   Section        0  pm_pbs_info.o(i.pm_pbs_info_misc_periph_read)
    pm_pbs_info_misc_periph_read             0x080212ad   Thumb Code   436  pm_pbs_info.o(i.pm_pbs_info_misc_periph_read)
    i.pm_pbs_info_rom_read                   0x08021464   Section        0  pm_pbs_info.o(i.pm_pbs_info_rom_read)
    pm_pbs_info_rom_read                     0x08021465   Thumb Code   302  pm_pbs_info.o(i.pm_pbs_info_rom_read)
    i.pm_pbs_info_store_glb_ctxt             0x08021598   Section        0  pm_pbs_info.o(i.pm_pbs_info_store_glb_ctxt)
    i.pm_pbs_ram_image_load                  0x08021600   Section        0  pm_pbs_driver.o(i.pm_pbs_ram_image_load)
    i.pm_pbs_ram_image_verify                0x0802165e   Section        0  pm_pbs_driver.o(i.pm_pbs_ram_image_verify)
    i.pm_pbs_ram_version_validation_test     0x080216b8   Section        0  pm_config_sbl.o(i.pm_pbs_ram_version_validation_test)
    i.pm_pon_get_all_pon_reasons             0x0802171c   Section        0  pm_pon.o(i.pm_pon_get_all_pon_reasons)
    i.pm_pon_init                            0x08021760   Section        0  pm_pon.o(i.pm_pon_init)
    i.pm_pon_ps_hold_cfg                     0x08021828   Section        0  pm_pon.o(i.pm_pon_ps_hold_cfg)
    i.pm_pon_reset_source_cfg                0x080218d0   Section        0  pm_pon.o(i.pm_pon_reset_source_cfg)
    i.pm_pon_warm_reset_status               0x08021a78   Section        0  pm_pon.o(i.pm_pon_warm_reset_status)
    i.pm_pon_warm_reset_status_clear         0x08021acc   Section        0  pm_pon.o(i.pm_pon_warm_reset_status_clear)
    i.pm_pwm_driver_init                     0x08021af8   Section        0  pm_pwm_driver.o(i.pm_pwm_driver_init)
    i.pm_resolve_chip_revision               0x08021b70   Section        0  pm_version.o(i.pm_resolve_chip_revision)
    i.pm_resource_manager_create_pmic_resource 0x08021bac   Section        0  pm_resource_manager.o(i.pm_resource_manager_create_pmic_resource)
    pm_resource_manager_create_pmic_resource 0x08021bad   Thumb Code   174  pm_resource_manager.o(i.pm_resource_manager_create_pmic_resource)
    i.pm_resource_manager_init               0x08021c5a   Section        0  pm_resource_manager.o(i.pm_resource_manager_init)
    i.pm_rgb_driver_init                     0x08021cb8   Section        0  pm_rgb_driver.o(i.pm_rgb_driver_init)
    i.pm_rgb_enable                          0x08021d54   Section        0  pm_rgb.o(i.pm_rgb_enable)
    i.pm_rgb_get_data                        0x08021dfc   Section        0  pm_rgb_driver.o(i.pm_rgb_get_data)
    i.pm_rgb_led_config                      0x08021e10   Section        0  pm_app_rgb.o(i.pm_rgb_led_config)
    i.pm_rgb_set_voltage_source              0x08021ee0   Section        0  pm_rgb.o(i.pm_rgb_set_voltage_source)
    i.pm_rtc_driver_init                     0x08021f30   Section        0  pm_rtc_driver.o(i.pm_rtc_driver_init)
    i.pm_sbl_config                          0x08021f60   Section        0  pm_config_sbl.o(i.pm_sbl_config)
    i.pm_sbl_config_test                     0x08022038   Section        0  pm_config_sbl.o(i.pm_sbl_config_test)
    i.pm_sbl_validate_reg_config             0x080221dc   Section        0  pm_config_sbl.o(i.pm_sbl_validate_reg_config)
    i.pm_settings_validation_flag            0x0802221a   Section        0  pm_config_sbl.o(i.pm_settings_validation_flag)
    pm_settings_validation_flag              0x0802221b   Thumb Code    70  pm_config_sbl.o(i.pm_settings_validation_flag)
    i.pm_smb_deinit                          0x08022260   Section        0  pm_smb.o(i.pm_smb_deinit)
    i.pm_smb_driver_init                     0x08022288   Section        0  pm_smb_driver.o(i.pm_smb_driver_init)
    i.pm_smb_get_feature_list                0x080222e0   Section        0  pm_smb_driver.o(i.pm_smb_get_feature_list)
    i.pm_smb_get_info                        0x080222f4   Section        0  pm_smb_driver.o(i.pm_smb_get_info)
    i.pm_smb_init                            0x08022300   Section        0  pm_smb.o(i.pm_smb_init)
    i.pm_smb_set_ibat_fast                   0x08022364   Section        0  pm_smb.o(i.pm_smb_set_ibat_fast)
    i.pm_smb_set_icl                         0x08022428   Section        0  pm_smb.o(i.pm_smb_set_icl)
    i.pm_smb_set_icl_mode                    0x080224ec   Section        0  pm_smb.o(i.pm_smb_set_icl_mode)
    i.pm_smbb_chg_get_attached_charger       0x08022634   Section        0  pm_smbb.o(i.pm_smbb_chg_get_attached_charger)
    i.pm_smbb_chg_get_battery_present        0x080226d6   Section        0  pm_smbb.o(i.pm_smbb_chg_get_battery_present)
    i.pm_smbb_chg_set_atc_led                0x08022760   Section        0  pm_smbb.o(i.pm_smbb_chg_set_atc_led)
    i.pm_smbb_chg_set_battery_threshold      0x08022798   Section        0  pm_smbb.o(i.pm_smbb_chg_set_battery_threshold)
    i.pm_smbb_chg_set_comp_override          0x08022864   Section        0  pm_smbb.o(i.pm_smbb_chg_set_comp_override)
    i.pm_smbb_chg_set_ibat_max               0x080228d0   Section        0  pm_smbb.o(i.pm_smbb_chg_set_ibat_max)
    i.pm_smbb_chg_set_itrkl                  0x0802292e   Section        0  pm_smbb.o(i.pm_smbb_chg_set_itrkl)
    i.pm_smbb_chg_set_iusb_max               0x08022988   Section        0  pm_smbb.o(i.pm_smbb_chg_set_iusb_max)
    i.pm_smbb_chg_set_mode                   0x08022a44   Section        0  pm_smbb.o(i.pm_smbb_chg_set_mode)
    i.pm_smbb_driver_init                    0x08022af4   Section        0  pm_smbb_driver.o(i.pm_smbb_driver_init)
    i.pm_smbb_get_data                       0x08022b94   Section        0  pm_smbb_driver.o(i.pm_smbb_get_data)
    i.pm_smem_init                           0x08022ba8   Section        0  pm_sbl_smem.o(i.pm_smem_init)
    i.pm_smps_driver_init                    0x08022bdc   Section        0  pm_smps_driver.o(i.pm_smps_driver_init)
    i.pm_target_information_get_common_info  0x08022e24   Section        0  pm_target_information.o(i.pm_target_information_get_common_info)
    i.pm_target_information_get_periph_count_info 0x08022e48   Section        0  pm_target_information.o(i.pm_target_information_get_periph_count_info)
    i.pm_target_information_get_specific_info 0x08022e6c   Section        0  pm_target_information.o(i.pm_target_information_get_specific_info)
    i.pm_target_information_init             0x08022e90   Section        0  pm_target_information.o(i.pm_target_information_init)
    i.pm_target_information_read_peripheral_rev 0x08022ff0   Section        0  pm_target_information.o(i.pm_target_information_read_peripheral_rev)
    i.pm_target_information_spmi_chnl_cfg    0x08023074   Section        0  pm_target_information.o(i.pm_target_information_spmi_chnl_cfg)
    i.pm_utils_get_upper_idx                 0x08023104   Section        0  pm_pon.o(i.pm_utils_get_upper_idx)
    pm_utils_get_upper_idx                   0x08023105   Thumb Code    70  pm_pon.o(i.pm_utils_get_upper_idx)
    i.pm_version_detect                      0x0802314c   Section        0  pm_version.o(i.pm_version_detect)
    i.pm_vib_driver_init                     0x08023254   Section        0  pm_vib_driver.o(i.pm_vib_driver_init)
    i.pm_vs_driver_init                      0x08023304   Section        0  pm_vs_driver.o(i.pm_vs_driver_init)
    i.pm_wled_driver_init                    0x08023418   Section        0  pm_wled_driver.o(i.pm_wled_driver_init)
    i.pmapp_ps_hold_cfg                      0x08023494   Section        0  pm_app_pon.o(i.pmapp_ps_hold_cfg)
    i.pmicArbIsr                             0x080234b4   Section        0  PmicArb.o(i.pmicArbIsr)
    pmicArbIsr                               0x080234b5   Thumb Code   104  PmicArb.o(i.pmicArbIsr)
    i.ppidCmpr                               0x08023524   Section        0  SpmiCfg.o(i.ppidCmpr)
    ppidCmpr                                 0x08023525   Thumb Code    28  SpmiCfg.o(i.ppidCmpr)
    i.prepare_TDs_for_transfer               0x08023540   Section        0  qhsusb_dci.o(i.prepare_TDs_for_transfer)
    prepare_TDs_for_transfer                 0x08023541   Thumb Code   252  qhsusb_dci.o(i.prepare_TDs_for_transfer)
    i.process_tx_data                        0x08023644   Section        0  Uart.o(i.process_tx_data)
    process_tx_data                          0x08023645   Thumb Code   142  Uart.o(i.process_tx_data)
    i.qhsusb_al_bulk_get_max_packet_size     0x080236d8   Section        0  qhsusb_al_bulk.o(i.qhsusb_al_bulk_get_max_packet_size)
    i.qhsusb_al_bulk_get_max_raw_data_size   0x080236de   Section        0  qhsusb_al_bulk.o(i.qhsusb_al_bulk_get_max_raw_data_size)
    i.qhsusb_al_bulk_handle_rx_zlp_mode      0x080236e4   Section        0  qhsusb_al_bulk.o(i.qhsusb_al_bulk_handle_rx_zlp_mode)
    i.qhsusb_al_bulk_init                    0x08023714   Section        0  qhsusb_al_bulk.o(i.qhsusb_al_bulk_init)
    i.qhsusb_al_bulk_poll                    0x080237d8   Section        0  qhsusb_al_bulk.o(i.qhsusb_al_bulk_poll)
    i.qhsusb_al_bulk_receive                 0x0802384c   Section        0  qhsusb_al_bulk.o(i.qhsusb_al_bulk_receive)
    i.qhsusb_al_bulk_receive_zlp             0x0802390c   Section        0  qhsusb_al_bulk.o(i.qhsusb_al_bulk_receive_zlp)
    i.qhsusb_al_bulk_rx_complete             0x08023948   Section        0  qhsusb_al_bulk.o(i.qhsusb_al_bulk_rx_complete)
    qhsusb_al_bulk_rx_complete               0x08023949   Thumb Code   372  qhsusb_al_bulk.o(i.qhsusb_al_bulk_rx_complete)
    i.qhsusb_al_bulk_setup_timer             0x08023ac0   Section        0  qhsusb_al_bulk.o(i.qhsusb_al_bulk_setup_timer)
    i.qhsusb_al_bulk_shutdown                0x08023af0   Section        0  qhsusb_al_bulk.o(i.qhsusb_al_bulk_shutdown)
    i.qhsusb_al_bulk_start_timer             0x08023b34   Section        0  qhsusb_al_bulk.o(i.qhsusb_al_bulk_start_timer)
    i.qhsusb_al_bulk_stop_timer              0x08023b5c   Section        0  qhsusb_al_bulk.o(i.qhsusb_al_bulk_stop_timer)
    i.qhsusb_al_bulk_transmit                0x08023b74   Section        0  qhsusb_al_bulk.o(i.qhsusb_al_bulk_transmit)
    i.qhsusb_al_bulk_tx_complete             0x08023bfc   Section        0  qhsusb_al_bulk.o(i.qhsusb_al_bulk_tx_complete)
    qhsusb_al_bulk_tx_complete               0x08023bfd   Thumb Code    20  qhsusb_al_bulk.o(i.qhsusb_al_bulk_tx_complete)
    i.qhsusb_al_check_for_pbl_dload          0x08023c14   Section        0  qhsusb_al_bulk.o(i.qhsusb_al_check_for_pbl_dload)
    i.qhsusb_al_check_timer_for_expiry       0x08023c18   Section        0  qhsusb_al_bulk.o(i.qhsusb_al_check_timer_for_expiry)
    i.qhsusb_al_chg_deinit                   0x08023c50   Section        0  qhsusb_al_charger.o(i.qhsusb_al_chg_deinit)
    i.qhsusb_al_chg_disconnect_from_host     0x08023c64   Section        0  qhsusb_al_charger.o(i.qhsusb_al_chg_disconnect_from_host)
    i.qhsusb_al_chg_enumerate_usb            0x08023c7a   Section        0  qhsusb_al_charger.o(i.qhsusb_al_chg_enumerate_usb)
    i.qhsusb_al_chg_get_charger_port_type    0x08023cfe   Section        0  qhsusb_al_charger.o(i.qhsusb_al_chg_get_charger_port_type)
    i.qhsusb_al_chg_init                     0x08023d14   Section        0  qhsusb_al_charger.o(i.qhsusb_al_chg_init)
    i.qhsusb_al_chg_is_vbus_present          0x08023d40   Section        0  qhsusb_al_charger.o(i.qhsusb_al_chg_is_vbus_present)
    i.qhsusb_al_chg_poll                     0x08023d5c   Section        0  qhsusb_al_charger.o(i.qhsusb_al_chg_poll)
    i.qhsusb_al_chg_should_chg_be_on         0x08023dd4   Section        0  qhsusb_al_charger.o(i.qhsusb_al_chg_should_chg_be_on)
    i.qhsusb_al_disconnect_handler           0x08023dd8   Section        0  qhsusb_al_bulk.o(i.qhsusb_al_disconnect_handler)
    qhsusb_al_disconnect_handler             0x08023dd9   Thumb Code     8  qhsusb_al_bulk.o(i.qhsusb_al_disconnect_handler)
    i.qhsusb_al_enum_complete                0x08023de4   Section        0  qhsusb_al_bulk.o(i.qhsusb_al_enum_complete)
    qhsusb_al_enum_complete                  0x08023de5   Thumb Code    20  qhsusb_al_bulk.o(i.qhsusb_al_enum_complete)
    i.qhsusb_boot_dload_get_dload_info_ptr   0x08023dfc   Section        0  qhsusb_boot_dload.o(i.qhsusb_boot_dload_get_dload_info_ptr)
    i.qhsusb_boot_dload_is_dload_info_pid_valid 0x08023e00   Section        0  qhsusb_boot_dload.o(i.qhsusb_boot_dload_is_dload_info_pid_valid)
    i.qhsusb_boot_dload_is_dload_info_serial_num_valid 0x08023e1c   Section        0  qhsusb_boot_dload.o(i.qhsusb_boot_dload_is_dload_info_serial_num_valid)
    i.qhsusb_dcd_control_transfer            0x08023e38   Section        0  qhsusb_dcd_ch9.o(i.qhsusb_dcd_control_transfer)
    i.qhsusb_dcd_init                        0x08023e64   Section        0  qhsusb_dcd_ch9.o(i.qhsusb_dcd_init)
    i.qhsusb_dcd_poll                        0x08023ec4   Section        0  qhsusb_dcd_ch9.o(i.qhsusb_dcd_poll)
    i.qhsusb_dcd_port_status_changed         0x08023ed0   Section        0  qhsusb_dcd_ch9.o(i.qhsusb_dcd_port_status_changed)
    i.qhsusb_dcd_set_config                  0x08023f88   Section        0  qhsusb_dcd_ch9.o(i.qhsusb_dcd_set_config)
    i.qhsusb_dcd_shutdown                    0x08024064   Section        0  qhsusb_dcd_ch9.o(i.qhsusb_dcd_shutdown)
    i.qhsusb_dci_cancel_transfer             0x080240a0   Section        0  qhsusb_dci.o(i.qhsusb_dci_cancel_transfer)
    i.qhsusb_dci_cancel_transfer_wo_dqh_dtd  0x08024150   Section        0  qhsusb_dci.o(i.qhsusb_dci_cancel_transfer_wo_dqh_dtd)
    i.qhsusb_dci_check_for_pbl_dload         0x080241a0   Section        0  qhsusb_dci_8909.o(i.qhsusb_dci_check_for_pbl_dload)
    i.qhsusb_dci_clk_disable                 0x08024290   Section        0  qhsusb_dci_8909_hw_apis_sbl1.o(i.qhsusb_dci_clk_disable)
    i.qhsusb_dci_clk_enable                  0x08024294   Section        0  qhsusb_dci_8909_hw_apis_sbl1.o(i.qhsusb_dci_clk_enable)
    i.qhsusb_dci_clk_is_usb_system_clk_on    0x08024298   Section        0  qhsusb_dci_8909_hw_apis_sbl1.o(i.qhsusb_dci_clk_is_usb_system_clk_on)
    i.qhsusb_dci_config_endpoint             0x080242a4   Section        0  qhsusb_dci.o(i.qhsusb_dci_config_endpoint)
    i.qhsusb_dci_connect                     0x08024348   Section        0  qhsusb_dci_8909.o(i.qhsusb_dci_connect)
    i.qhsusb_dci_dcache_flush                0x08024364   Section        0  qhsusb_dci_8909_hw_apis_sbl1.o(i.qhsusb_dci_dcache_flush)
    i.qhsusb_dci_dcache_inval                0x08024366   Section        0  qhsusb_dci_8909_hw_apis_sbl1.o(i.qhsusb_dci_dcache_inval)
    i.qhsusb_dci_delay_ms                    0x08024368   Section        0  qhsusb_dci_8909_hw_apis_sbl1.o(i.qhsusb_dci_delay_ms)
    i.qhsusb_dci_delay_us                    0x08024382   Section        0  qhsusb_dci_8909_hw_apis_sbl1.o(i.qhsusb_dci_delay_us)
    i.qhsusb_dci_detect_charger_type         0x08024386   Section        0  qhsusb_dci.o(i.qhsusb_dci_detect_charger_type)
    i.qhsusb_dci_disconnect                  0x08024390   Section        0  qhsusb_dci_8909.o(i.qhsusb_dci_disconnect)
    i.qhsusb_dci_enable_test_mode            0x080243ac   Section        0  qhsusb_dci.o(i.qhsusb_dci_enable_test_mode)
    i.qhsusb_dci_get_line_state              0x080243f8   Section        0  qhsusb_dci.o(i.qhsusb_dci_get_line_state)
    i.qhsusb_dci_get_speed                   0x08024408   Section        0  qhsusb_dci.o(i.qhsusb_dci_get_speed)
    i.qhsusb_dci_init                        0x08024418   Section        0  qhsusb_dci.o(i.qhsusb_dci_init)
    i.qhsusb_dci_is_attached                 0x080244cc   Section        0  qhsusb_dci_8909.o(i.qhsusb_dci_is_attached)
    i.qhsusb_dci_is_suspended                0x080244e8   Section        0  qhsusb_dci.o(i.qhsusb_dci_is_suspended)
    i.qhsusb_dci_is_wall_charger             0x080244fc   Section        0  qhsusb_dci_8909.o(i.qhsusb_dci_is_wall_charger)
    i.qhsusb_dci_poll_events                 0x08024500   Section        0  qhsusb_dci.o(i.qhsusb_dci_poll_events)
    i.qhsusb_dci_read_scratch                0x080245e4   Section        0  qhsusb_dci.o(i.qhsusb_dci_read_scratch)
    i.qhsusb_dci_set_address                 0x080245f8   Section        0  qhsusb_dci.o(i.qhsusb_dci_set_address)
    i.qhsusb_dci_set_enum_flag               0x08024614   Section        0  qhsusb_dci.o(i.qhsusb_dci_set_enum_flag)
    i.qhsusb_dci_set_max_packet_size         0x08024620   Section        0  qhsusb_dci.o(i.qhsusb_dci_set_max_packet_size)
    i.qhsusb_dci_set_runstop_bit             0x0802462c   Section        0  qhsusb_dci.o(i.qhsusb_dci_set_runstop_bit)
    i.qhsusb_dci_shutdown                    0x0802463c   Section        0  qhsusb_dci.o(i.qhsusb_dci_shutdown)
    i.qhsusb_dci_stall_endpoint              0x0802469c   Section        0  qhsusb_dci.o(i.qhsusb_dci_stall_endpoint)
    i.qhsusb_dci_start_timer                 0x080246f4   Section        0  qhsusb_dci.o(i.qhsusb_dci_start_timer)
    i.qhsusb_dci_transfer_request            0x08024740   Section        0  qhsusb_dci.o(i.qhsusb_dci_transfer_request)
    i.qhsusb_dci_ulpi_read                   0x08024800   Section        0  qhsusb_dci.o(i.qhsusb_dci_ulpi_read)
    i.qhsusb_dci_ulpi_read_with_err_check    0x08024844   Section        0  qhsusb_dci_8909.o(i.qhsusb_dci_ulpi_read_with_err_check)
    qhsusb_dci_ulpi_read_with_err_check      0x08024845   Thumb Code    88  qhsusb_dci_8909.o(i.qhsusb_dci_ulpi_read_with_err_check)
    i.qhsusb_dci_ulpi_write                  0x080248a0   Section        0  qhsusb_dci.o(i.qhsusb_dci_ulpi_write)
    i.qhsusb_dci_unconfig_endpoint           0x080248fc   Section        0  qhsusb_dci.o(i.qhsusb_dci_unconfig_endpoint)
    i.qhsusb_dci_unstall_endpoint            0x08024948   Section        0  qhsusb_dci.o(i.qhsusb_dci_unstall_endpoint)
    i.qhsusb_dci_usb_hw_reset                0x080249ac   Section        0  qhsusb_dci_8909.o(i.qhsusb_dci_usb_hw_reset)
    qhsusb_dci_usb_hw_reset                  0x080249ad   Thumb Code    72  qhsusb_dci_8909.o(i.qhsusb_dci_usb_hw_reset)
    i.qhsusb_dci_write_scratch               0x080249f8   Section        0  qhsusb_dci.o(i.qhsusb_dci_write_scratch)
    i.qhsusb_fd_chg_detect_charger_type      0x08024a08   Section        0  qhsusb_fd_chg.o(i.qhsusb_fd_chg_detect_charger_type)
    i.qhsusb_fd_chg_init                     0x08024a24   Section        0  qhsusb_fd_chg.o(i.qhsusb_fd_chg_init)
    i.qhsusb_fd_chg_shutdown                 0x08024a74   Section        0  qhsusb_fd_chg.o(i.qhsusb_fd_chg_shutdown)
    i.qhsusb_fd_hdlc_bulk_in_progress        0x08024a80   Section        0  qhsusb_fd_hdlc.o(i.qhsusb_fd_hdlc_bulk_in_progress)
    i.qhsusb_fd_hdlc_init                    0x08024a84   Section        0  qhsusb_fd_hdlc.o(i.qhsusb_fd_hdlc_init)
    i.qhsusb_fd_hdlc_rx_pkt                  0x08024c78   Section        0  qhsusb_fd_hdlc.o(i.qhsusb_fd_hdlc_rx_pkt)
    i.qhsusb_fd_hdlc_set_core                0x08024ce4   Section        0  qhsusb_fd_hdlc.o(i.qhsusb_fd_hdlc_set_core)
    i.qhsusb_fd_hdlc_shutdown                0x08024d10   Section        0  qhsusb_fd_hdlc.o(i.qhsusb_fd_hdlc_shutdown)
    i.qhsusb_fd_hdlc_tx_pkt                  0x08024d2c   Section        0  qhsusb_fd_hdlc.o(i.qhsusb_fd_hdlc_tx_pkt)
    i.qhsusb_fd_hdlc_update_pid_and_serial_number_string 0x08024e04   Section        0  qhsusb_fd_hdlc.o(i.qhsusb_fd_hdlc_update_pid_and_serial_number_string)
    qhsusb_fd_hdlc_update_pid_and_serial_number_string 0x08024e05   Thumb Code   108  qhsusb_fd_hdlc.o(i.qhsusb_fd_hdlc_update_pid_and_serial_number_string)
    i.qhsusb_fd_set_bulk_mode                0x08024e7c   Section        0  qhsusb_fd_hdlc.o(i.qhsusb_fd_set_bulk_mode)
    i.qhsusb_get_shared_imem_address         0x08024e90   Section        0  qhsusb_dci_8909.o(i.qhsusb_get_shared_imem_address)
    i.qhsusb_is_device_configured            0x08024e98   Section        0  qhsusb_dcd_ch9.o(i.qhsusb_is_device_configured)
    i.qhsusb_log                             0x08024ea4   Section        0  qhsusb_log.o(i.qhsusb_log)
    i.qhsusb_loop_here                       0x08024ed4   Section        0  qhsusb_dci.o(i.qhsusb_loop_here)
    i.qhsusb_submit_urb                      0x08024ee4   Section        0  qhsusb_dcd_ch9.o(i.qhsusb_submit_urb)
    i.qmemcpy                                0x08024f14   Section        0  boot_util.o(i.qmemcpy)
    i.qsee_is_memory_dump_allowed            0x08024ff0   Section        0  seccfg.o(i.qsee_is_memory_dump_allowed)
    i.qsee_is_retail_unlocked                0x0802500c   Section        0  seccfg.o(i.qsee_is_retail_unlocked)
    i.qsee_jump_func                         0x08025020   Section        0  sbl1_config.o(i.qsee_jump_func)
    qsee_jump_func                           0x08025021   Thumb Code   284  sbl1_config.o(i.qsee_jump_func)
    i.qsee_zero_peripheral_memory            0x0802518c   Section        0  seccfg_memset_pheripheral.o(i.qsee_zero_peripheral_memory)
    i.query_ddr_map                          0x08025254   Section        0  seccfg.o(i.query_ddr_map)
    i.register_init                          0x08025280   Section        0  Uart.o(i.register_init)
    register_init                            0x08025281   Thumb Code   198  Uart.o(i.register_init)
    i.rpm_load_cancel                        0x08025348   Section        0  sbl1_config.o(i.rpm_load_cancel)
    rpm_load_cancel                          0x08025349   Thumb Code    52  sbl1_config.o(i.rpm_load_cancel)
    i.rx_transfer_start                      0x08025390   Section        0  Uart.o(i.rx_transfer_start)
    rx_transfer_start                        0x08025391   Thumb Code    30  Uart.o(i.rx_transfer_start)
    i.sbl1_boot_logger_deinit                0x080253b0   Section        0  sbl1_mc.o(i.sbl1_boot_logger_deinit)
    i.sbl1_cleanse_security_regions          0x08025408   Section        0  sbl1_mc.o(i.sbl1_cleanse_security_regions)
    i.sbl1_ddr_init                          0x08025440   Section        0  sbl1_hw.o(i.sbl1_ddr_init)
    i.sbl1_ddr_set_params                    0x0802551c   Section        0  sbl1_hw.o(i.sbl1_ddr_set_params)
    i.sbl1_ddr_set_params_enhance            0x080256a4   Section        0  sbl1_hw.o(i.sbl1_ddr_set_params_enhance)
    i.sbl1_ddr_zi_init                       0x080256a8   Section        0  sbl1_mc.o(i.sbl1_ddr_zi_init)
    sbl1_ddr_zi_init                         0x080256a9   Thumb Code    28  sbl1_mc.o(i.sbl1_ddr_zi_init)
    i.sbl1_dload_entry                       0x080256c8   Section        0  sbl1_target.o(i.sbl1_dload_entry)
    i.sbl1_efs_handle_cookies                0x080256f4   Section        0  sbl1_mc.o(i.sbl1_efs_handle_cookies)
    i.sbl1_hw_deinit                         0x0802574c   Section        0  sbl1_hw.o(i.sbl1_hw_deinit)
    i.sbl1_hw_dload_init                     0x0802577c   Section        0  sbl1_hw.o(i.sbl1_hw_dload_init)
    i.sbl1_hw_get_reset_status               0x08025780   Section        0  sbl1_hw.o(i.sbl1_hw_get_reset_status)
    i.sbl1_hw_init                           0x0802578c   Section        0  sbl1_hw.o(i.sbl1_hw_init)
    i.sbl1_hw_init_secondary                 0x08025834   Section        0  sbl1_hw.o(i.sbl1_hw_init_secondary)
    i.sbl1_hw_platform_pre_ddr               0x080258e8   Section        0  sbl1_mc.o(i.sbl1_hw_platform_pre_ddr)
    i.sbl1_hw_platform_smem                  0x0802596c   Section        0  sbl1_mc.o(i.sbl1_hw_platform_smem)
    i.sbl1_init_sbl_qsee_interface           0x080259a8   Section        0  sbl1_mc.o(i.sbl1_init_sbl_qsee_interface)
    i.sbl1_load_ddr_training_data            0x080259f4   Section        0  sbl1_hw.o(i.sbl1_load_ddr_training_data)
    i.sbl1_load_ddr_training_data_from_partition 0x08025a50   Section        0  sbl1_mc.o(i.sbl1_load_ddr_training_data_from_partition)
    i.sbl1_load_sec_partition                0x08025aec   Section        0  sbl1_mc.o(i.sbl1_load_sec_partition)
    i.sbl1_main_ctl                          0x08025bf4   Section        0  sbl1_mc.o(i.sbl1_main_ctl)
    i.sbl1_populate_initial_mem_map          0x08025d80   Section        0  sbl1_mc.o(i.sbl1_populate_initial_mem_map)
    i.sbl1_post_ddr_init                     0x08025ddc   Section        0  sbl1_mc.o(i.sbl1_post_ddr_init)
    i.sbl1_post_ddr_training_init            0x08025e18   Section        0  sbl1_mc.o(i.sbl1_post_ddr_training_init)
    i.sbl1_relocate_page_table_to_ddr        0x08025e34   Section        0  sbl1_mc.o(i.sbl1_relocate_page_table_to_ddr)
    i.sbl1_retrieve_shared_info_from_pbl     0x08025eec   Section        0  sbl1_mc.o(i.sbl1_retrieve_shared_info_from_pbl)
    sbl1_retrieve_shared_info_from_pbl       0x08025eed   Thumb Code   128  sbl1_mc.o(i.sbl1_retrieve_shared_info_from_pbl)
    i.sbl1_save_ddr_training_data_to_partition 0x08025f84   Section        0  sbl1_mc.o(i.sbl1_save_ddr_training_data_to_partition)
    i.sbl1_tlmm_init                         0x08025fc8   Section        0  sbl1_mc.o(i.sbl1_tlmm_init)
    i.sbl1_update_ddr_page_table             0x08025ff8   Section        0  sbl1_mc.o(i.sbl1_update_ddr_page_table)
    sbl1_update_ddr_page_table               0x08025ff9   Thumb Code   146  sbl1_mc.o(i.sbl1_update_ddr_page_table)
    i.sbl1_update_partition_ids              0x080260a8   Section        0  sbl1_config.o(i.sbl1_update_partition_ids)
    sbl1_update_partition_ids                0x080260a9   Thumb Code    76  sbl1_config.o(i.sbl1_update_partition_ids)
    i.sbl1_wait_for_ddr_training             0x08026118   Section        0  sbl1_hw.o(i.sbl1_wait_for_ddr_training)
    i.sbl_elf_optimized_segment_load         0x080261e4   Section        0  sbl1_sahara.o(i.sbl_elf_optimized_segment_load)
    sbl_elf_optimized_segment_load           0x080261e5   Thumb Code     4  sbl1_sahara.o(i.sbl_elf_optimized_segment_load)
    i.sbl_error_handler                      0x080261e8   Section        0  sbl1_mc.o(i.sbl_error_handler)
    i.sbl_sahara_authenticate                0x08026250   Section        0  sbl1_sahara.o(i.sbl_sahara_authenticate)
    sbl_sahara_authenticate                  0x08026251   Thumb Code    62  sbl1_sahara.o(i.sbl_sahara_authenticate)
    i.sbl_sahara_bulk_init                   0x08026294   Section        0  sbl1_sahara.o(i.sbl_sahara_bulk_init)
    sbl_sahara_bulk_init                     0x08026295   Thumb Code    24  sbl1_sahara.o(i.sbl_sahara_bulk_init)
    i.sbl_sahara_check                       0x080262ac   Section        0  sbl1_sahara.o(i.sbl_sahara_check)
    i.sbl_sahara_clear_downloaded_data       0x080262bc   Section        0  sbl1_sahara.o(i.sbl_sahara_clear_downloaded_data)
    sbl_sahara_clear_downloaded_data         0x080262bd   Thumb Code    90  sbl1_sahara.o(i.sbl_sahara_clear_downloaded_data)
    i.sbl_sahara_compare_hash                0x08026328   Section        0  sbl1_sahara.o(i.sbl_sahara_compare_hash)
    sbl_sahara_compare_hash                  0x08026329   Thumb Code    52  sbl1_sahara.o(i.sbl_sahara_compare_hash)
    i.sbl_sahara_elf_compute_hash_offsets    0x08026364   Section        0  sbl1_sahara.o(i.sbl_sahara_elf_compute_hash_offsets)
    sbl_sahara_elf_compute_hash_offsets      0x08026365   Thumb Code   150  sbl1_sahara.o(i.sbl_sahara_elf_compute_hash_offsets)
    i.sbl_sahara_entry                       0x08026418   Section        0  sbl1_sahara.o(i.sbl_sahara_entry)
    i.sbl_sahara_exec_cmd                    0x080264e8   Section        0  sbl1_sahara.o(i.sbl_sahara_exec_cmd)
    sbl_sahara_exec_cmd                      0x080264e9   Thumb Code    54  sbl1_sahara.o(i.sbl_sahara_exec_cmd)
    i.sbl_sahara_finalize_hash               0x08026524   Section        0  sbl1_sahara.o(i.sbl_sahara_finalize_hash)
    sbl_sahara_finalize_hash                 0x08026525   Thumb Code    30  sbl1_sahara.o(i.sbl_sahara_finalize_hash)
    i.sbl_sahara_get_bin_cert_chain_size     0x0802654c   Section        0  sbl1_sahara.o(i.sbl_sahara_get_bin_cert_chain_size)
    sbl_sahara_get_bin_cert_chain_size       0x0802654d   Thumb Code     4  sbl1_sahara.o(i.sbl_sahara_get_bin_cert_chain_size)
    i.sbl_sahara_get_bin_code_size           0x08026550   Section        0  sbl1_sahara.o(i.sbl_sahara_get_bin_code_size)
    sbl_sahara_get_bin_code_size             0x08026551   Thumb Code     4  sbl1_sahara.o(i.sbl_sahara_get_bin_code_size)
    i.sbl_sahara_get_bin_header_size         0x08026554   Section        0  sbl1_sahara.o(i.sbl_sahara_get_bin_header_size)
    sbl_sahara_get_bin_header_size           0x08026555   Thumb Code     4  sbl1_sahara.o(i.sbl_sahara_get_bin_header_size)
    i.sbl_sahara_get_bin_image_dest          0x08026558   Section        0  sbl1_sahara.o(i.sbl_sahara_get_bin_image_dest)
    sbl_sahara_get_bin_image_dest            0x08026559   Thumb Code     4  sbl1_sahara.o(i.sbl_sahara_get_bin_image_dest)
    i.sbl_sahara_get_bin_image_id            0x0802655c   Section        0  sbl1_sahara.o(i.sbl_sahara_get_bin_image_id)
    sbl_sahara_get_bin_image_id              0x0802655d   Thumb Code     4  sbl1_sahara.o(i.sbl_sahara_get_bin_image_id)
    i.sbl_sahara_get_bin_image_size          0x08026560   Section        0  sbl1_sahara.o(i.sbl_sahara_get_bin_image_size)
    sbl_sahara_get_bin_image_size            0x08026561   Thumb Code     4  sbl1_sahara.o(i.sbl_sahara_get_bin_image_size)
    i.sbl_sahara_get_bin_image_src           0x08026564   Section        0  sbl1_sahara.o(i.sbl_sahara_get_bin_image_src)
    sbl_sahara_get_bin_image_src             0x08026565   Thumb Code     4  sbl1_sahara.o(i.sbl_sahara_get_bin_image_src)
    i.sbl_sahara_get_bin_signature_size      0x08026568   Section        0  sbl1_sahara.o(i.sbl_sahara_get_bin_signature_size)
    sbl_sahara_get_bin_signature_size        0x08026569   Thumb Code     4  sbl1_sahara.o(i.sbl_sahara_get_bin_signature_size)
    i.sbl_sahara_get_interface               0x0802656c   Section        0  sbl1_sahara.o(i.sbl_sahara_get_interface)
    i.sbl_sahara_get_orig_hash_index         0x08026574   Section        0  sbl1_sahara.o(i.sbl_sahara_get_orig_hash_index)
    sbl_sahara_get_orig_hash_index           0x08026575   Thumb Code    18  sbl1_sahara.o(i.sbl_sahara_get_orig_hash_index)
    i.sbl_sahara_image_load_post_proc        0x0802659c   Section        0  sbl1_sahara.o(i.sbl_sahara_image_load_post_proc)
    sbl_sahara_image_load_post_proc          0x0802659d   Thumb Code     4  sbl1_sahara.o(i.sbl_sahara_image_load_post_proc)
    i.sbl_sahara_init_hash                   0x080265a0   Section        0  sbl1_sahara.o(i.sbl_sahara_init_hash)
    sbl_sahara_init_hash                     0x080265a1   Thumb Code    28  sbl1_sahara.o(i.sbl_sahara_init_hash)
    i.sbl_sahara_is_auth_enabled             0x080265c4   Section        0  sbl1_sahara.o(i.sbl_sahara_is_auth_enabled)
    sbl_sahara_is_auth_enabled               0x080265c5   Thumb Code    20  sbl1_sahara.o(i.sbl_sahara_is_auth_enabled)
    i.sbl_sahara_mem_debug_copy_restricted   0x080265dc   Section        0  sbl1_sahara.o(i.sbl_sahara_mem_debug_copy_restricted)
    sbl_sahara_mem_debug_copy_restricted     0x080265dd   Thumb Code    30  sbl1_sahara.o(i.sbl_sahara_mem_debug_copy_restricted)
    i.sbl_sahara_preprocess_header           0x08026600   Section        0  sbl1_sahara.o(i.sbl_sahara_preprocess_header)
    sbl_sahara_preprocess_header             0x08026601   Thumb Code    18  sbl1_sahara.o(i.sbl_sahara_preprocess_header)
    i.sbl_sahara_reset                       0x08026628   Section        0  sbl1_sahara.o(i.sbl_sahara_reset)
    sbl_sahara_reset                         0x08026629   Thumb Code    36  sbl1_sahara.o(i.sbl_sahara_reset)
    i.sbl_sahara_rx_bulk                     0x08026664   Section        0  sbl1_sahara.o(i.sbl_sahara_rx_bulk)
    sbl_sahara_rx_bulk                       0x08026665   Thumb Code     4  sbl1_sahara.o(i.sbl_sahara_rx_bulk)
    i.sbl_sahara_set_shutdown_mode           0x08026668   Section        0  sbl1_sahara.o(i.sbl_sahara_set_shutdown_mode)
    sbl_sahara_set_shutdown_mode             0x08026669   Thumb Code     2  sbl1_sahara.o(i.sbl_sahara_set_shutdown_mode)
    i.sbl_sahara_skip_image_load             0x0802666c   Section        0  sbl1_sahara.o(i.sbl_sahara_skip_image_load)
    sbl_sahara_skip_image_load               0x0802666d   Thumb Code    28  sbl1_sahara.o(i.sbl_sahara_skip_image_load)
    i.sbl_sahara_unrecoverable_error_handler 0x0802668c   Section        0  sbl1_sahara.o(i.sbl_sahara_unrecoverable_error_handler)
    sbl_sahara_unrecoverable_error_handler   0x0802668d   Thumb Code    20  sbl1_sahara.o(i.sbl_sahara_unrecoverable_error_handler)
    i.sbl_sahara_update_hash                 0x080266a0   Section        0  sbl1_sahara.o(i.sbl_sahara_update_hash)
    sbl_sahara_update_hash                   0x080266a1   Thumb Code    28  sbl1_sahara.o(i.sbl_sahara_update_hash)
    i.sbl_sahara_verify_hash                 0x080266c0   Section        0  sbl1_sahara.o(i.sbl_sahara_verify_hash)
    sbl_sahara_verify_hash                   0x080266c1   Thumb Code    48  sbl1_sahara.o(i.sbl_sahara_verify_hash)
    i.secboot_authenticate                   0x080266f0   Section        0  secboot.o(i.secboot_authenticate)
    i.secboot_authenticate_image             0x0802695c   Section        0  secboot_util.o(i.secboot_authenticate_image)
    i.secboot_cal_cert_num                   0x08026a30   Section        0  secboot_x509.o(i.secboot_cal_cert_num)
    i.secboot_deinit                         0x08026a74   Section        0  secboot.o(i.secboot_deinit)
    i.secboot_get_ftbl                       0x08026a88   Section        0  secboot.o(i.secboot_get_ftbl)
    i.secboot_get_fuse_info_from_image       0x08026ab4   Section        0  secboot_util.o(i.secboot_get_fuse_info_from_image)
    secboot_get_fuse_info_from_image         0x08026ab5   Thumb Code    86  secboot_util.o(i.secboot_get_fuse_info_from_image)
    i.secboot_hash                           0x08026b0c   Section        0  secboot.o(i.secboot_hash)
    i.secboot_hash_certificates              0x08026bf4   Section        0  secboot.o(i.secboot_hash_certificates)
    secboot_hash_certificates                0x08026bf5   Thumb Code   316  secboot.o(i.secboot_hash_certificates)
    i.secboot_hw_get_auth_id                 0x08026d30   Section        0  secboot_hw.o(i.secboot_hw_get_auth_id)
    secboot_hw_get_auth_id                   0x08026d31   Thumb Code    96  secboot_hw.o(i.secboot_hw_get_auth_id)
    i.secboot_hw_get_ftbl                    0x08026d94   Section        0  secboot_hw.o(i.secboot_hw_get_ftbl)
    i.secboot_hw_get_is_hash_in_fuse         0x08026dd0   Section        0  secboot_hw.o(i.secboot_hw_get_is_hash_in_fuse)
    secboot_hw_get_is_hash_in_fuse           0x08026dd1   Thumb Code    30  secboot_hw.o(i.secboot_hw_get_is_hash_in_fuse)
    i.secboot_hw_get_msm_hw_id               0x08026dee   Section        0  secboot_hw.o(i.secboot_hw_get_msm_hw_id)
    i.secboot_hw_get_root_cert_info          0x08026e2e   Section        0  secboot_hw.o(i.secboot_hw_get_root_cert_info)
    i.secboot_hw_get_root_cert_sel           0x08026eaa   Section        0  secboot_hw_apps.o(i.secboot_hw_get_root_cert_sel)
    i.secboot_hw_get_root_of_trust           0x08026ec0   Section        0  secboot_hw.o(i.secboot_hw_get_root_of_trust)
    i.secboot_hw_get_serial_num              0x08026f6c   Section        0  secboot_hw.o(i.secboot_hw_get_serial_num)
    i.secboot_hw_get_use_serial_num          0x08026f82   Section        0  secboot_hw.o(i.secboot_hw_get_use_serial_num)
    i.secboot_hw_is_auth_enabled             0x08026fa0   Section        0  secboot_hw.o(i.secboot_hw_is_auth_enabled)
    i.secboot_hw_update_and_read_root_cert_sel 0x08027004   Section        0  secboot_hw.o(i.secboot_hw_update_and_read_root_cert_sel)
    i.secboot_init                           0x08027038   Section        0  secboot.o(i.secboot_init)
    i.secboot_init_fuses                     0x080270d8   Section        0  secboot.o(i.secboot_init_fuses)
    i.secboot_log                            0x080270fc   Section        0  secboot.o(i.secboot_log)
    secboot_log                              0x080270fd   Thumb Code    18  secboot.o(i.secboot_log)
    i.secboot_read_hw_fuses                  0x0802710e   Section        0  secboot.o(i.secboot_read_hw_fuses)
    secboot_read_hw_fuses                    0x0802710f   Thumb Code   188  secboot.o(i.secboot_read_hw_fuses)
    i.secboot_verify_cert_chain              0x080271cc   Section        0  secboot.o(i.secboot_verify_cert_chain)
    secboot_verify_cert_chain                0x080271cd   Thumb Code   228  secboot.o(i.secboot_verify_cert_chain)
    i.secboot_verify_cert_signature          0x080272b4   Section        0  secboot.o(i.secboot_verify_cert_signature)
    secboot_verify_cert_signature            0x080272b5   Thumb Code   610  secboot.o(i.secboot_verify_cert_signature)
    i.secboot_verify_exponent                0x0802753c   Section        0  secboot.o(i.secboot_verify_exponent)
    secboot_verify_exponent                  0x0802753d   Thumb Code    64  secboot.o(i.secboot_verify_exponent)
    i.secboot_verify_image_signature         0x0802757c   Section        0  secboot.o(i.secboot_verify_image_signature)
    secboot_verify_image_signature           0x0802757d   Thumb Code   980  secboot.o(i.secboot_verify_image_signature)
    i.secmath_BIGINT_modexp                  0x08027958   Section        0  secmath_mod_exp.o(i.secmath_BIGINT_modexp)
    i.secmath_BIGINT_read_unsigned_bin       0x080279b6   Section        0  secmath_BIGINT_read_unsigned_bin.o(i.secmath_BIGINT_read_unsigned_bin)
    i.shellSort                              0x08027a24   Section        0  SpmiCfg.o(i.shellSort)
    shellSort                                0x08027a25   Thumb Code   128  SpmiCfg.o(i.shellSort)
    i.smb_read                               0x08027aa8   Section        0  pm_smb.o(i.smb_read)
    smb_read                                 0x08027aa9   Thumb Code   104  pm_smb.o(i.smb_read)
    i.smb_write                              0x08027b14   Section        0  pm_smb.o(i.smb_write)
    smb_write                                0x08027b15   Thumb Code    78  pm_smb.o(i.smb_write)
    i.smb_write_mask                         0x08027b68   Section        0  pm_smb.o(i.smb_write_mask)
    smb_write_mask                           0x08027b69   Thumb Code    40  pm_smb.o(i.smb_write_mask)
    i.smem_alloc                             0x08027b90   Section        0  smem.o(i.smem_alloc)
    i.smem_alloc_dynamic                     0x08027bb0   Section        0  smem.o(i.smem_alloc_dynamic)
    smem_alloc_dynamic                       0x08027bb1   Thumb Code   286  smem.o(i.smem_alloc_dynamic)
    i.smem_alloc_static                      0x08027ce4   Section        0  smem.o(i.smem_alloc_static)
    smem_alloc_static                        0x08027ce5   Thumb Code    90  smem.o(i.smem_alloc_static)
    i.smem_boot_debug_init                   0x08027d44   Section        0  smem_boot.o(i.smem_boot_debug_init)
    i.smem_boot_init                         0x08027d64   Section        0  smem_boot.o(i.smem_boot_init)
    i.smem_ext_get_smem_base                 0x08027e58   Section        0  smem_ext.o(i.smem_ext_get_smem_base)
    i.smem_ext_get_smem_size                 0x08027e5c   Section        0  smem_ext.o(i.smem_ext_get_smem_size)
    i.smem_get_addr                          0x08027e60   Section        0  smem.o(i.smem_get_addr)
    i.smem_get_base_addr                     0x08027f20   Section        0  smem.o(i.smem_get_base_addr)
    i.smem_get_offset                        0x08027f30   Section        0  smem.o(i.smem_get_offset)
    i.smem_get_phys_base_addr                0x08027f74   Section        0  smem.o(i.smem_get_phys_base_addr)
    i.smem_get_size                          0x08027f90   Section        0  smem.o(i.smem_get_size)
    i.smem_get_static_size                   0x08027fa8   Section        0  smem.o(i.smem_get_static_size)
    i.smem_heap_info_init                    0x08027ff8   Section        0  smem_boot.o(i.smem_heap_info_init)
    smem_heap_info_init                      0x08027ff9   Thumb Code    66  smem_boot.o(i.smem_heap_info_init)
    i.smem_init                              0x08028040   Section        0  smem.o(i.smem_init)
    i.smem_map_base_va                       0x080280c4   Section        0  smem_mapping_rex.o(i.smem_map_base_va)
    i.smem_map_memory_va                     0x080280c8   Section        0  smem_boot.o(i.smem_map_memory_va)
    i.smem_map_smem_targ_info                0x080280d4   Section        0  smem_boot.o(i.smem_map_smem_targ_info)
    i.smem_map_spinlock_region_va            0x080280f0   Section        0  smem_boot.o(i.smem_map_spinlock_region_va)
    i.smem_os_ext_get_smem_base              0x080280f4   Section        0  smem_rex.o(i.smem_os_ext_get_smem_base)
    i.smem_os_ext_get_smem_size              0x08028118   Section        0  smem_rex.o(i.smem_os_ext_get_smem_size)
    i.smem_save_targ_smem_info               0x0802813c   Section        0  smem_boot_target.o(i.smem_save_targ_smem_info)
    i.smem_set_base_addr                     0x08028194   Section        0  smem.o(i.smem_set_base_addr)
    i.smem_set_ext_mem_region                0x080281b8   Section        0  smem.o(i.smem_set_ext_mem_region)
    i.smem_set_heap_info                     0x080281e4   Section        0  smem.o(i.smem_set_heap_info)
    smem_set_heap_info                       0x080281e5   Thumb Code    30  smem.o(i.smem_set_heap_info)
    i.smem_set_spin_lock_api                 0x08028208   Section        0  smem_boot.o(i.smem_set_spin_lock_api)
    i.smem_set_spinlock_base_addr            0x0802820c   Section        0  smem.o(i.smem_set_spinlock_base_addr)
    i.smem_setup_toc                         0x08028224   Section        0  smem_boot.o(i.smem_setup_toc)
    smem_setup_toc                           0x08028225   Thumb Code   348  smem_boot.o(i.smem_setup_toc)
    i.smem_spin_lock                         0x080283c0   Section        0  smem_boot.o(i.smem_spin_lock)
    i.smem_spin_lock_init                    0x080283c2   Section        0  smem_boot.o(i.smem_spin_lock_init)
    i.smem_spin_unlock                       0x080283c4   Section        0  smem_boot.o(i.smem_spin_unlock)
    i.smem_version_set                       0x080283c6   Section        0  smem.o(i.smem_version_set)
    i.strlcpy                                0x08028418   Section        0  strlcpy.o(i.strlcpy)
    i.sub                                    0x08028450   Section        0  secmath_montmul_utils.o(i.sub)
    i.transfer_data_request                  0x08028484   Section        0  qhsusb_dci.o(i.transfer_data_request)
    transfer_data_request                    0x08028485   Thumb Code   228  qhsusb_dci.o(i.transfer_data_request)
    i.uart_log                               0x08028578   Section        0  Uart_log.o(i.uart_log)
    i.waitForStatusDone                      0x080285f4   Section        0  PmicArb.o(i.waitForStatusDone)
    waitForStatusDone                        0x080285f5   Thumb Code   120  PmicArb.o(i.waitForStatusDone)
    i.writeSpmiData                          0x08028674   Section        0  PmicArb.o(i.writeSpmiData)
    writeSpmiData                            0x08028675   Thumb Code    98  PmicArb.o(i.writeSpmiData)
    .constdata                               0x080286e0   Section      609  sbl1_mc.o(.constdata)
    .constdata                               0x08028944   Section       32  sbl1_target.o(.constdata)
    .constdata                               0x08028964   Section       80  boot_dload_debug_target.o(.constdata)
    .constdata                               0x080289b4   Section       47  qc_version.o(.constdata)
    .constdata                               0x080289e3   Section       31  oem_version.o(.constdata)
    .constdata                               0x08028a02   Section       29  oem_version.o(.constdata)
    .constdata                               0x08028a1f   Section       86  SBL1_nand_oem_uuid.o(.constdata)
    .constdata                               0x08028a75   Section       25  boot_dload_debug.o(.constdata)
    .constdata                               0x08028a90   Section        8  boot_flash_dev_nand.o(.constdata)
    vsn                                      0x08028a90   Data           8  boot_flash_dev_nand.o(.constdata)
    .constdata                               0x08028a98   Section        5  SpmiCfg.o(.constdata)
    gaps                                     0x08028a98   Data           5  SpmiCfg.o(.constdata)
    .constdata                               0x08028aa0   Section       12  DALModEnv.o(.constdata)
    .constdata                               0x08028aac   Section      152  ClockSBL.o(.constdata)
    .constdata                               0x08028b44   Section       96  ClockTools.o(.constdata)
    .constdata                               0x08028ba4   Section       16  boot_flash_trans_nand.o(.constdata)
    vsn                                      0x08028ba4   Data           8  boot_flash_trans_nand.o(.constdata)
    vsn                                      0x08028bac   Data           8  boot_flash_trans_nand.o(.constdata)
    .constdata                               0x08028bb4   Section     4156  DALConfig_boot.o(.constdata)
    .constdata                               0x08029bf0   Section      336  DALConfig_boot.o(.constdata)
    .constdata                               0x08029d40   Section       16  DALConfig_boot.o(.constdata)
    .constdata                               0x08029d50   Section       96  bamtgtcfg.o(.constdata)
    .constdata                               0x08029db0   Section       80  smem.o(.constdata)
    .constdata                               0x08029e00   Section       52  secboot.o(.constdata)
    qc_ca_hash                               0x08029e00   Data          20  secboot.o(.constdata)
    qc_root_hash                             0x08029e14   Data          32  secboot.o(.constdata)
    .constdata                               0x08029e34   Section      172  secboot_x509.o(.constdata)
    .constdata                               0x08029ee0   Section      384  secboot_hw.o(.constdata)
    root_of_trust_pk_hash_table              0x08029ee0   Data         384  secboot_hw.o(.constdata)
    .constdata                               0x0802a060   Section       81  pm_target_information.o(.constdata)
    .constdata                               0x0802a0b1   Section        4  qhsusb_fd_hdlc.o(.constdata)
    str0                                     0x0802a0b1   Data           4  qhsusb_fd_hdlc.o(.constdata)
    .constdata                               0x0802a0b5   Section       62  qhsusb_fd_hdlc.o(.constdata)
    str_manuf                                0x0802a0b5   Data          62  qhsusb_fd_hdlc.o(.constdata)
    .constdata                               0x0802a0f3   Section       36  qhsusb_fd_hdlc.o(.constdata)
    qhsusb_str_product                       0x0802a0f3   Data          36  qhsusb_fd_hdlc.o(.constdata)
    .constdata                               0x0802a117   Section       34  qhsusb_fd_hdlc.o(.constdata)
    str_serial                               0x0802a117   Data          34  qhsusb_fd_hdlc.o(.constdata)
    .constdata                               0x0802a13c   Section       12  I2cDriverDalInfo.o(.constdata)
    .constdata                               0x0802a148   Section      404  GeniImage.o(.constdata)
    GENI_CFG_RAM_VALUES                      0x0802a148   Data         404  GeniImage.o(.constdata)
    .constdata                               0x0802a2dc   Section       24  Uart.o(.constdata)
    baud_table                               0x0802a2dc   Data          24  Uart.o(.constdata)
    .constdata                               0x0802a2f4   Section        8  AdcBsp.o(.constdata)
    adcPhysicalDevices                       0x0802a2f4   Data           8  AdcBsp.o(.constdata)
    .constdata                               0x0802a2fc   Section        8  AdcBsp.o(.constdata)
    .constdata                               0x0802a304   Section       96  VAdcBsp.o(.constdata)
    adcMap_BattTherm                         0x0802a304   Data          96  VAdcBsp.o(.constdata)
    .constdata                               0x0802a364   Section      272  VAdcBsp.o(.constdata)
    adcMap_NTCG104EF104FB_PU2                0x0802a364   Data         272  VAdcBsp.o(.constdata)
    .constdata                               0x0802a474   Section        8  VAdcBsp.o(.constdata)
    vAdcConfigs                              0x0802a474   Data           8  VAdcBsp.o(.constdata)
    .constdata                               0x0802a47c   Section      480  VAdcBsp.o(.constdata)
    vAdcChannels                             0x0802a47c   Data         480  VAdcBsp.o(.constdata)
    .constdata                               0x0802a65c   Section      192  VAdcBsp.o(.constdata)
    vAdcCalibrationChannels                  0x0802a65c   Data         192  VAdcBsp.o(.constdata)
    .constdata                               0x0802a71c   Section      100  VAdcBsp.o(.constdata)
    .constdata                               0x0802a780   Section       12  DalVAdcInfo.o(.constdata)
    .constdata                               0x0802a78c   Section       12  BootTempCheckBsp.o(.constdata)
    .constdata                               0x0802a798   Section      120  TsensBootBsp.o(.constdata)
    aSensors                                 0x0802a798   Data         120  TsensBootBsp.o(.constdata)
    .constdata                               0x0802a810   Section       32  TsensBootBsp.o(.constdata)
    .constdata                               0x0802a830   Section      128  smem_8916_structs.o(.constdata)
    .constdata                               0x0802a8b0   Section       12  flash_dal_info.o(.constdata)
    .constdata                               0x0802a8bc   Section       12  DalChipInfoInfo.o(.constdata)
    .constdata                               0x0802a8c8   Section       12  PlatformInfoFwk.o(.constdata)
    .constdata                               0x0802a8d4   Section       56  PlatformInfoFwk.o(.constdata)
    vtbl                                     0x0802a8d4   Data          56  PlatformInfoFwk.o(.constdata)
    .constdata                               0x0802a90c   Section        1  pm_config_target.o(.constdata)
    .constdata                               0x0802a90e   Section      516  pm_config_target.o(.constdata)
    .constdata                               0x0802ab14   Section        4  pm_config_target.o(.constdata)
    .constdata                               0x0802ab18   Section        1  pm_config_target.o(.constdata)
    .constdata                               0x0802ab1a   Section      552  pm_config_target.o(.constdata)
    .constdata                               0x0802ad44   Section        4  pm_config_target.o(.constdata)
    .constdata                               0x0802ad48   Section        4  pm_coincell_driver.o(.constdata)
    .constdata                               0x0802ad4c   Section        8  pm_gpio_driver.o(.constdata)
    .constdata                               0x0802ad54   Section        8  pm_ldo_driver.o(.constdata)
    .constdata                               0x0802ad5c   Section        8  pm_lpg_driver.o(.constdata)
    .constdata                               0x0802ad64   Section        8  pm_mpp_driver.o(.constdata)
    .constdata                               0x0802ad6c   Section        8  pm_pbs_client_driver.o(.constdata)
    .constdata                               0x0802ad74   Section        8  pm_rgb_driver.o(.constdata)
    .constdata                               0x0802ad7c   Section      128  pm_smb.o(.constdata)
    __func__                                 0x0802ad7c   Data          30  pm_smb.o(.constdata)
    __func__                                 0x0802ad9a   Data          19  pm_smb.o(.constdata)
    __func__                                 0x0802adad   Data          23  pm_smb.o(.constdata)
    __func__                                 0x0802adc4   Data          20  pm_smb.o(.constdata)
    __func__                                 0x0802add8   Data          15  pm_smb.o(.constdata)
    __func__                                 0x0802ade7   Data          21  pm_smb.o(.constdata)
    .constdata                               0x0802adfc   Section        8  pm_smps_driver.o(.constdata)
    .constdata                               0x0802ae04   Section        8  pm_vib_driver.o(.constdata)
    .constdata                               0x0802ae0c   Section        8  pm_vs_driver.o(.constdata)
    .constdata                               0x0802ae14   Section       12  DALTLMMInfo.o(.constdata)
    .constdata                               0x0802ae20   Section       29  Uart_sbl_os.o(.constdata)
    freq_table                               0x0802ae20   Data          16  Uart_sbl_os.o(.constdata)
    uart_clocks                              0x0802ae30   Data          13  Uart_sbl_os.o(.constdata)
    .constdata                               0x0802ae40   Section       68  DalVAdcFwk.o(.constdata)
    vtbl                                     0x0802ae40   Data          68  DalVAdcFwk.o(.constdata)
    .constdata                               0x0802ae84   Section     3072  crc.o(.constdata)
    .constdata                               0x0802ba84   Section      112  flash_dal_fwk.o(.constdata)
    vtbl                                     0x0802ba84   Data         112  flash_dal_fwk.o(.constdata)
    .constdata                               0x0802baf4   Section       32  flash_nand_config.o(.constdata)
    flash_nand_2k_8bit_cfg                   0x0802baf4   Data          32  flash_nand_config.o(.constdata)
    .constdata                               0x0802bb14   Section       32  flash_nand_config.o(.constdata)
    flash_nand_4k_8bit_cfg                   0x0802bb14   Data          32  flash_nand_config.o(.constdata)
    .constdata                               0x0802bb34   Section       72  DalChipInfoFwk.o(.constdata)
    vtbl                                     0x0802bb34   Data          72  DalChipInfoFwk.o(.constdata)
    .constdata                               0x0802bb7c   Section        8  pm_lbc_driver.o(.constdata)
    .constdata                               0x0802bb84   Section        8  pm_smbb_driver.o(.constdata)
    .constdata                               0x0802bb8c   Section       60  DALTLMMFwk.o(.constdata)
    vtbl                                     0x0802bb8c   Data          60  DALTLMMFwk.o(.constdata)
    .constdata                               0x0802bbc8   Section       34  qhsusb_fd_chg.o(.constdata)
    the_report_descriptor                    0x0802bbc8   Data          34  qhsusb_fd_chg.o(.constdata)
    .constdata                               0x0802bbec   Section       40  flash_hal_nandc_common.o(.constdata)
    page_2k_516_0_x3_500_16_x1               0x0802bbec   Data          40  flash_hal_nandc_common.o(.constdata)
    .constdata                               0x0802bc14   Section       20  flash_hal_nandc_common.o(.constdata)
    page_2k_528_0_x4                         0x0802bc14   Data          20  flash_hal_nandc_common.o(.constdata)
    .constdata                               0x0802bc28   Section       40  flash_hal_nandc_common.o(.constdata)
    page_8bit_ecc_2k_516_0_x3_500_16_x1      0x0802bc28   Data          40  flash_hal_nandc_common.o(.constdata)
    .constdata                               0x0802bc50   Section       20  flash_hal_nandc_common.o(.constdata)
    page_8bit_ecc_2k_532_0_x4                0x0802bc50   Data          20  flash_hal_nandc_common.o(.constdata)
    .constdata                               0x0802bc64   Section       40  flash_hal_nandc_common.o(.constdata)
    page_4k_516_0_x7_484_32_x1               0x0802bc64   Data          40  flash_hal_nandc_common.o(.constdata)
    .constdata                               0x0802bc8c   Section       20  flash_hal_nandc_common.o(.constdata)
    page_4k_528_0_x8                         0x0802bc8c   Data          20  flash_hal_nandc_common.o(.constdata)
    .constdata                               0x0802bca0   Section       40  flash_hal_nandc_common.o(.constdata)
    page_8bit_ecc_4k_516_0_x7_484_32_x1      0x0802bca0   Data          40  flash_hal_nandc_common.o(.constdata)
    .constdata                               0x0802bcc8   Section       20  flash_hal_nandc_common.o(.constdata)
    page_8bit_ecc_4k_532_0_x8                0x0802bcc8   Data          20  flash_hal_nandc_common.o(.constdata)
    .constdata                               0x0802bcdc   Section      384  DalChipInfoLocal.o(.constdata)
    DalChipInfoDataLUT                       0x0802bcdc   Data         384  DalChipInfoLocal.o(.constdata)
    .constdata                               0x0802be5c   Section       40  _printf_hex_int.o(.constdata)
    uc_hextab                                0x0802be5c   Data          20  _printf_hex_int.o(.constdata)
    lc_hextab                                0x0802be70   Data          20  _printf_hex_int.o(.constdata)
    .constdata                               0x0802be84   Section       17  __printf_flags_ss_wp.o(.constdata)
    maptable                                 0x0802be84   Data          17  __printf_flags_ss_wp.o(.constdata)
    .conststring                             0x0802be95   Section       76  sbl1_config.o(.conststring)
    .conststring                             0x0802bee1   Section      112  boot_dload_debug_target.o(.conststring)
    .conststring                             0x0802bf51   Section      214  boot_pbl_v1.o(.conststring)
    .conststring                             0x0802c027   Section       20  boot_flash_dev_nand.o(.conststring)
    .conststring                             0x0802c03b   Section       52  boot_flash_trans_nand.o(.conststring)
    .conststring                             0x0802c06f   Section      208  DALConfig_boot.o(.conststring)
    .conststring                             0x0802c13f   Section       19  Uart.o(.conststring)
    .conststring                             0x0802c152   Section       87  VAdcBsp.o(.conststring)
    .conststring                             0x0802c1a9   Section       20  VAdcBsp.o(.conststring)
    .conststring                             0x0802c1bd   Section      258  DalChipInfoLocal.o(.conststring)
    .data                                    0x0804c000   Section      132  sbl1_mc.o(.data)
    is_ddr_initialized                       0x0804c000   Data           1  sbl1_mc.o(.data)
    sbl_start_time                           0x0804c004   Data           4  sbl1_mc.o(.data)
    edload_flag                              0x0804c00c   Data           4  sbl1_mc.o(.data)
    sbl1_ram_init_data_ddr                   0x0804c034   Data          20  sbl1_mc.o(.data)
    sbl1_ram_init_data_dload                 0x0804c048   Data          20  sbl1_mc.o(.data)
    sbl1_usb_init_data                       0x0804c05c   Data          20  sbl1_mc.o(.data)
    boot_log_data                            0x0804c070   Data          20  sbl1_mc.o(.data)
    .data                                    0x0804c084   Section        4  sbl1_mc.o(.data)
    .data                                    0x0804c088   Section        4  sbl1_target.o(.data)
    .data                                    0x0804c08c   Section        8  sbl1_target.o(.data)
    dload_set_cookie_ran_once                0x0804c08c   Data           1  sbl1_target.o(.data)
    dload_entry_count                        0x0804c090   Data           4  sbl1_target.o(.data)
    .data                                    0x0804c094   Section        4  sbl1_hw.o(.data)
    reset_status_register                    0x0804c094   Data           4  sbl1_hw.o(.data)
    .data                                    0x0804c098   Section       48  sbl1_config.o(.data)
    sbl1_table                               0x0804c098   Data          48  sbl1_config.o(.data)
    .data                                    0x0804c0c8   Section       60  sbl1_config.o(.data)
    .data                                    0x0804c104   Section       72  sbl1_config.o(.data)
    .data                                    0x0804c14c   Section       56  sbl1_config.o(.data)
    .data                                    0x0804c184   Section       12  sbl1_config.o(.data)
    .data                                    0x0804c190   Section      400  sbl1_config.o(.data)
    .data                                    0x0804c320   Section     1024  boot_cdt_array.o(.data)
    .data                                    0x0804c720   Section        4  boot_cdt_array.o(.data)
    .data                                    0x0804c724   Section      240  boot_rollback_img_set.o(.data)
    .data                                    0x0804c814   Section        4  boot_rollback_img_set.o(.data)
    .data                                    0x0804c818   Section       68  sbl1_sahara.o(.data)
    disable_clear_whitelist_table            0x0804c818   Data           1  sbl1_sahara.o(.data)
    auth                                     0x0804c81c   Data           4  sbl1_sahara.o(.data)
    image_sec_type                           0x0804c820   Data           4  sbl1_sahara.o(.data)
    sahara_bl_shared_data                    0x0804c824   Data           4  sbl1_sahara.o(.data)
    sbl_sahara_bin_image_info                0x0804c828   Data           8  sbl1_sahara.o(.data)
    sbl_sahara_shared_data                   0x0804c830   Data          16  sbl1_sahara.o(.data)
    sbl_sahara_interface                     0x0804c840   Data          28  sbl1_sahara.o(.data)
    .data                                    0x0804c85c   Section      120  sbl1_sahara.o(.data)
    sbl_sahara_dispatch_tbl                  0x0804c85c   Data         120  sbl1_sahara.o(.data)
    .data                                    0x0804c8d4   Section       32  sbl1_sahara.o(.data)
    sbl_sahara_auth_tbl                      0x0804c8d4   Data          32  sbl1_sahara.o(.data)
    .data                                    0x0804c8f4   Section       28  sbl1_sahara.o(.data)
    sbl_sahara_mem_debug_tbl                 0x0804c8f4   Data          28  sbl1_sahara.o(.data)
    .data                                    0x0804c910   Section       16  boot_statistics.o(.data)
    flash_timer_start_timetick               0x0804c910   Data           4  boot_statistics.o(.data)
    flash_total_time_us                      0x0804c914   Data           4  boot_statistics.o(.data)
    flash_total_bytes_read                   0x0804c918   Data           4  boot_statistics.o(.data)
    flash_byte_counter                       0x0804c91c   Data           4  boot_statistics.o(.data)
    .data                                    0x0804c920   Section        8  boot_page_table.o(.data)
    empty_l2_pagetable_ptr                   0x0804c920   Data           4  boot_page_table.o(.data)
    empty_l2_pagetable_num                   0x0804c924   Data           4  boot_page_table.o(.data)
    .data                                    0x0804c928   Section       36  boot_pbl_v1.o(.data)
    boot_log_pbl_milestone_names             0x0804c928   Data          36  boot_pbl_v1.o(.data)
    .data                                    0x0804c94c   Section       20  boot_error_handler.o(.data)
    err_cb_head_ptr                          0x0804c94c   Data           4  boot_error_handler.o(.data)
    error_handler_entry_count                0x0804c954   Data           4  boot_error_handler.o(.data)
    .data                                    0x0804c960   Section       12  boot_dload_debug.o(.data)
    region_table_fixed_length                0x0804c960   Data           1  boot_dload_debug.o(.data)
    real_num_regions                         0x0804c964   Data           4  boot_dload_debug.o(.data)
    num_restricted_regions                   0x0804c968   Data           4  boot_dload_debug.o(.data)
    .data                                    0x0804c96c   Section      116  boot_sahara.o(.data)
    sahara_shared_seg_found                  0x0804c96c   Data           1  boot_sahara.o(.data)
    sahara_done                              0x0804c96d   Data           1  boot_sahara.o(.data)
    sahara_mem_debug_enabled                 0x0804c96e   Data           1  boot_sahara.o(.data)
    sahara_rx_complete                       0x0804c96f   Data           1  boot_sahara.o(.data)
    sahara_tx_complete                       0x0804c970   Data           1  boot_sahara.o(.data)
    sahara_auth_elf                          0x0804c971   Data           1  boot_sahara.o(.data)
    sahara_auth_bin                          0x0804c972   Data           1  boot_sahara.o(.data)
    sahara_is_ehdr_phdr_hash_success         0x0804c973   Data           1  boot_sahara.o(.data)
    sahara_parallel_init                     0x0804c974   Data           1  boot_sahara.o(.data)
    sahara_parallel_hash                     0x0804c975   Data           1  boot_sahara.o(.data)
    sahara_ssa_enabled                       0x0804c976   Data           1  boot_sahara.o(.data)
    sahara_ssa_is_rx_for_elf_segments        0x0804c977   Data           1  boot_sahara.o(.data)
    sahara_state                             0x0804c979   Data           1  boot_sahara.o(.data)
    sahara_if                                0x0804c97c   Data           4  boot_sahara.o(.data)
    sahara_binary_image_info                 0x0804c984   Data           4  boot_sahara.o(.data)
    sahara_elf_image_info                    0x0804c988   Data           4  boot_sahara.o(.data)
    sahara_mode                              0x0804c98c   Data           4  boot_sahara.o(.data)
    sahara_cmd_exec_client_command           0x0804c990   Data           4  boot_sahara.o(.data)
    sahara_cmd_exec_data_length              0x0804c994   Data           4  boot_sahara.o(.data)
    sahara_mem_debug_buffer                  0x0804c99c   Data           4  boot_sahara.o(.data)
    sahara_mem_debug_tbl                     0x0804c9a0   Data           4  boot_sahara.o(.data)
    sahara_dispatch_tbl                      0x0804c9a4   Data           4  boot_sahara.o(.data)
    sahara_major_version                     0x0804c9a8   Data           4  boot_sahara.o(.data)
    sahara_major_version_supported           0x0804c9ac   Data           4  boot_sahara.o(.data)
    sahara_packet_log_num                    0x0804c9b0   Data           4  boot_sahara.o(.data)
    sahara_packet_log_num_total              0x0804c9b4   Data           4  boot_sahara.o(.data)
    sahara_rx_bytes_read                     0x0804c9b8   Data           4  boot_sahara.o(.data)
    sahara_rx_err_code                       0x0804c9bc   Data           4  boot_sahara.o(.data)
    sahara_tx_bytes_read                     0x0804c9c0   Data           4  boot_sahara.o(.data)
    sahara_tx_err_code                       0x0804c9c4   Data           4  boot_sahara.o(.data)
    sahara_auth_tbl                          0x0804c9c8   Data           4  boot_sahara.o(.data)
    sahara_parallel_buf                      0x0804c9cc   Data           4  boot_sahara.o(.data)
    sahara_parallel_size                     0x0804c9d0   Data           4  boot_sahara.o(.data)
    delayed_length_update                    0x0804c9dc   Data           4  boot_sahara.o(.data)
    .data                                    0x0804c9e0   Section        1  boot_hash_buffer.o(.data)
    is_elf_hash_table_auth_result            0x0804c9e0   Data           1  boot_hash_buffer.o(.data)
    .data                                    0x0804c9e4   Section       12  boot_hash.o(.data)
    .data                                    0x0804c9f0   Section        4  boot_logger.o(.data)
    log_meta_info_ptr                        0x0804c9f0   Data           4  boot_logger.o(.data)
    .data                                    0x0804c9f4   Section        4  boot_clobber_prot.o(.data)
    whitelist_table                          0x0804c9f4   Data           4  boot_clobber_prot.o(.data)
    .data                                    0x0804c9f8   Section        8  boot_flash_dev_if.o(.data)
    boot_flash_dev_if_singleton_is_locked    0x0804c9f8   Data           1  boot_flash_dev_if.o(.data)
    boot_flash_dev_if_singleton              0x0804c9fc   Data           4  boot_flash_dev_if.o(.data)
    .data                                    0x0804ca00   Section       52  boot_flash_dev_nand.o(.data)
    vtbl                                     0x0804ca04   Data          48  boot_flash_dev_nand.o(.data)
    .data                                    0x0804ca34   Section       16  boot_gpt_partition_id.o(.data)
    .data                                    0x0804ca44   Section       16  boot_gpt_partition_id.o(.data)
    .data                                    0x0804ca54   Section       16  boot_gpt_partition_id.o(.data)
    .data                                    0x0804ca64   Section       16  boot_gpt_partition_id.o(.data)
    .data                                    0x0804ca74   Section       16  boot_gpt_partition_id.o(.data)
    .data                                    0x0804ca84   Section        8  boot_config_data.o(.data)
    .data                                    0x0804ca8c   Section        4  boot_ram_init.o(.data)
    .data                                    0x0804ca90   Section        1  boot_ddr_info.o(.data)
    .data                                    0x0804ca94   Section       12  boot_rollback_version.o(.data)
    boot_rollback_version_img_set_table_ptr  0x0804ca94   Data           4  boot_rollback_version.o(.data)
    boot_rollback_version_img_set_size       0x0804ca98   Data           4  boot_rollback_version.o(.data)
    is_auth_enabled                          0x0804ca9c   Data           4  boot_rollback_version.o(.data)
    .data                                    0x0804caa0   Section        8  AdcBoot.o(.data)
    phChipInfo                               0x0804caa4   Data           4  AdcBoot.o(.data)
    .data                                    0x0804caa8   Section       15  boot_apt_test.o(.data)
    apt_test_run_always                      0x0804caa8   Data           1  boot_apt_test.o(.data)
    test_dep_stack                           0x0804caa9   Data           1  boot_apt_test.o(.data)
    test_dep_global                          0x0804caaa   Data           1  boot_apt_test.o(.data)
    test_dep_code                            0x0804caab   Data           1  boot_apt_test.o(.data)
    test_stack_protection_search             0x0804caac   Data           1  boot_apt_test.o(.data)
    test_stack_protection_verify_dynamic     0x0804caad   Data           1  boot_apt_test.o(.data)
    test_stack_protection_overwrite          0x0804caae   Data           1  boot_apt_test.o(.data)
    globalVar                                0x0804caaf   Data           8  boot_apt_test.o(.data)
    .data                                    0x0804cab8   Section        4  ddr_test.o(.data)
    min_base                                 0x0804cab8   Data           4  ddr_test.o(.data)
    .data                                    0x0804cabc   Section      146  boot_logger_ram.o(.data)
    NEWLINE                                  0x0804cabc   Data           3  boot_logger_ram.o(.data)
    FORMATTING_STRING_1                      0x0804cabf   Data           4  boot_logger_ram.o(.data)
    LEGEND_HEADER                            0x0804cac3   Data          60  boot_logger_ram.o(.data)
    LEGEND_KEY                               0x0804caff   Data          69  boot_logger_ram.o(.data)
    OVERFLOW_MSG                             0x0804cb44   Data          10  boot_logger_ram.o(.data)
    .data                                    0x0804cb50   Section      155  boot_logger_uart.o(.data)
    uart_init_flag                           0x0804cb50   Data           1  boot_logger_uart.o(.data)
    NEWLINE                                  0x0804cb51   Data           3  boot_logger_uart.o(.data)
    FORMATTING_STRING_1                      0x0804cb54   Data           4  boot_logger_uart.o(.data)
    uart_buf_ptr                             0x0804cb58   Data           4  boot_logger_uart.o(.data)
    serial_port                              0x0804cb5c   Data           4  boot_logger_uart.o(.data)
    LEGEND_HEADER                            0x0804cb60   Data          60  boot_logger_uart.o(.data)
    LEGEND_KEY                               0x0804cb9c   Data          69  boot_logger_uart.o(.data)
    OVERFLOW_MSG                             0x0804cbe1   Data          10  boot_logger_uart.o(.data)
    .data                                    0x0804cbec   Section       16  boot_flash_dev_dal.o(.data)
    flash_client_count                       0x0804cbec   Data           4  boot_flash_dev_dal.o(.data)
    flash_device_clients_initialized         0x0804cbf0   Data           4  boot_flash_dev_dal.o(.data)
    buff_desc_initialized                    0x0804cbf4   Data           4  boot_flash_dev_dal.o(.data)
    fs_device                                0x0804cbf8   Data           4  boot_flash_dev_dal.o(.data)
    .data                                    0x0804cbfc   Section        8  boot_flash_dev_nand_if.o(.data)
    boot_flash_dev_nand_if_singleton_is_locked 0x0804cbfc   Data           1  boot_flash_dev_nand_if.o(.data)
    boot_flash_dev_nand_if_singleton         0x0804cc00   Data           4  boot_flash_dev_nand_if.o(.data)
    .data                                    0x0804cc04   Section       48  boot_elf_loader.o(.data)
    elf_format                               0x0804cc04   Data           1  boot_elf_loader.o(.data)
    elf_ssa_enabled                          0x0804cc05   Data           1  boot_elf_loader.o(.data)
    elf_cfg_table_auth                       0x0804cc06   Data           1  boot_elf_loader.o(.data)
    boot_elf_is_ehdr_phdr_hash_success       0x0804cc07   Data           1  boot_elf_loader.o(.data)
    phdr_num                                 0x0804cc08   Data           2  boot_elf_loader.o(.data)
    trans_if                                 0x0804cc0c   Data           4  boot_elf_loader.o(.data)
    hash_segment_start                       0x0804cc10   Data           4  boot_elf_loader.o(.data)
    hash_segment_base_addr                   0x0804cc14   Data           4  boot_elf_loader.o(.data)
    hash_segment_length                      0x0804cc18   Data           4  boot_elf_loader.o(.data)
    total_elf_segments_size                  0x0804cc1c   Data           4  boot_elf_loader.o(.data)
    hash_segment_base_ptr                    0x0804cc20   Data           4  boot_elf_loader.o(.data)
    ehdr_ptr                                 0x0804cc24   Data           4  boot_elf_loader.o(.data)
    phdr_array_ptr                           0x0804cc28   Data           4  boot_elf_loader.o(.data)
    ehdr_size                                0x0804cc2c   Data           4  boot_elf_loader.o(.data)
    phdr_size                                0x0804cc30   Data           4  boot_elf_loader.o(.data)
    .data                                    0x0804cc34   Section       16  boot_config_eeprom.o(.data)
    eeprom_dev_initialized                   0x0804cc34   Data           4  boot_config_eeprom.o(.data)
    eeprom_error_on_read_fail                0x0804cc38   Data           4  boot_config_eeprom.o(.data)
    eeprom_dev_handle                        0x0804cc3c   Data           4  boot_config_eeprom.o(.data)
    eeprom_page_size                         0x0804cc40   Data           4  boot_config_eeprom.o(.data)
    .data                                    0x0804cc44   Section        8  icbcfg.o(.data)
    dev_config_valid                         0x0804cc44   Data           1  icbcfg.o(.data)
    phChipInfo                               0x0804cc48   Data           4  icbcfg.o(.data)
    .data                                    0x0804cc4c   Section        4  SpmiCfg.o(.data)
    initialized                              0x0804cc4c   Data           1  SpmiCfg.o(.data)
    dynamicChannelMode                       0x0804cc4d   Data           1  SpmiCfg.o(.data)
    nextChanIdx                              0x0804cc4e   Data           2  SpmiCfg.o(.data)
    .data                                    0x0804cc50   Section       28  DALMemDesc.o(.data)
    g_arch_id                                0x0804cc50   Data           4  DALMemDesc.o(.data)
    g_dal_env                                0x0804cc54   Data           4  DALMemDesc.o(.data)
    inited                                   0x0804cc58   Data           4  DALMemDesc.o(.data)
    DAL_MMUConfig                            0x0804cc5c   Data          16  DALMemDesc.o(.data)
    .data                                    0x0804cc6c   Section        4  DALModEnv.o(.data)
    DalSystem_DeviceId                       0x0804cc6c   Data           4  DALModEnv.o(.data)
    .data                                    0x0804cc70   Section        8  DALModEnv.o(.data)
    iDALSYSFreeInvoked                       0x0804cc70   Data           4  DALModEnv.o(.data)
    .data                                    0x0804cc78   Section       32  DALHeap.o(.data)
    gDALSYSHeap                              0x0804cc78   Data          32  DALHeap.o(.data)
    .data                                    0x0804cc98   Section       16  bams.o(.data)
    bam_drv_init_done                        0x0804cc9c   Data           4  bams.o(.data)
    .data                                    0x0804cca8   Section        8  BootTempCheck.o(.data)
    pBootTempCheckBsp                        0x0804cca8   Data           4  BootTempCheck.o(.data)
    bInitialized                             0x0804ccac   Data           4  BootTempCheck.o(.data)
    .data                                    0x0804ccb0   Section       16  TsensBoot.o(.data)
    bTsensInitialized                        0x0804ccb0   Data           1  TsensBoot.o(.data)
    bFirstReadDone                           0x0804ccb1   Data           1  TsensBoot.o(.data)
    pTsensBootBsp                            0x0804ccbc   Data           4  TsensBoot.o(.data)
    .data                                    0x0804ccc0   Section       12  busywait_hw_qtimer.o(.data)
    QTimerBase                               0x0804ccc0   Data           4  busywait_hw_qtimer.o(.data)
    busywait_property                        0x0804ccc4   Data           8  busywait_hw_qtimer.o(.data)
    .data                                    0x0804cccc   Section        8  ClockSBL.o(.data)
    ddr_speed_khz                            0x0804cccc   Data           4  ClockSBL.o(.data)
    .data                                    0x0804ccd4   Section        4  ClockSBLCPU.o(.data)
    .data                                    0x0804ccd8   Section        8  pm_app_led.o(.data)
    data_initialized                         0x0804ccd8   Data           1  pm_app_led.o(.data)
    led_info                                 0x0804ccdc   Data           4  pm_app_led.o(.data)
    .data                                    0x0804cce0   Section      276  pm_pon.o(.data)
    pm_pon_initialized                       0x0804cce0   Data           1  pm_pon.o(.data)
    pon_ps_hold_reg                          0x0804cce2   Data           8  pm_pon.o(.data)
    pon_overtemp_reg                         0x0804ccea   Data           8  pm_pon.o(.data)
    pon_trigger_en_reg                       0x0804ccf2   Data          16  pm_pon.o(.data)
    pon_kpdpwr_reg                           0x0804cd02   Data          16  pm_pon.o(.data)
    pon_resin_reg                            0x0804cd12   Data          16  pm_pon.o(.data)
    pon_resin_and_kpdpwr_reg                 0x0804cd22   Data          16  pm_pon.o(.data)
    pon_gp1_reg                              0x0804cd32   Data          16  pm_pon.o(.data)
    pon_gp2_reg                              0x0804cd42   Data          16  pm_pon.o(.data)
    pon_s1_timer_val                         0x0804cd54   Data          64  pm_pon.o(.data)
    pon_s2_timer_val                         0x0804cd94   Data          32  pm_pon.o(.data)
    pon_s3_timer_val                         0x0804cdb4   Data          32  pm_pon.o(.data)
    pon_debounce_time_val                    0x0804cdd4   Data          32  pm_pon.o(.data)
    .data                                    0x0804cdf4   Section        8  pm_sbl_boot.o(.data)
    phChipInfo                               0x0804cdf4   Data           4  pm_sbl_boot.o(.data)
    phPlatformInfo                           0x0804cdf8   Data           4  pm_sbl_boot.o(.data)
    .data                                    0x0804cdfc   Section       66  qhsusb_al_bulk.o(.data)
    qhsusb_zlp_mode                          0x0804cdfc   Data           1  qhsusb_al_bulk.o(.data)
    qhsusb_pending_rx_zlp                    0x0804cdfd   Data           1  qhsusb_al_bulk.o(.data)
    qhsusb_waiting_for_zlp                   0x0804cdfe   Data           1  qhsusb_al_bulk.o(.data)
    qhsusb_enumerated                        0x0804cdff   Data           1  qhsusb_al_bulk.o(.data)
    qhsusb_is_disconnected                   0x0804ce00   Data           1  qhsusb_al_bulk.o(.data)
    qhsusb_is_rx_in_progress                 0x0804ce01   Data           1  qhsusb_al_bulk.o(.data)
    cached_zlp_data_length                   0x0804ce04   Data           4  qhsusb_al_bulk.o(.data)
    no_zlp_count                             0x0804ce08   Data           4  qhsusb_al_bulk.o(.data)
    qhsusb_al_bulk_tx_urb                    0x0804ce0c   Data           4  qhsusb_al_bulk.o(.data)
    qhsusb_al_bulk_dev                       0x0804ce10   Data           4  qhsusb_al_bulk.o(.data)
    al_bulk_rx_cb                            0x0804ce14   Data           4  qhsusb_al_bulk.o(.data)
    total_bytes_received                     0x0804ce18   Data           4  qhsusb_al_bulk.o(.data)
    qhsusb_synch_rx_ctx                      0x0804ce1c   Data           8  qhsusb_al_bulk.o(.data)
    qhsusb_bulk_str_product                  0x0804ce24   Data          26  qhsusb_al_bulk.o(.data)
    .data                                    0x0804ce40   Section       32  boot_flash_trans_nand.o(.data)
    init_done                                0x0804ce40   Data           1  boot_flash_trans_nand.o(.data)
    vtbl                                     0x0804ce44   Data           8  boot_flash_trans_nand.o(.data)
    vtbl                                     0x0804ce4c   Data          20  boot_flash_trans_nand.o(.data)
    .data                                    0x0804ce60   Section       16  SpmiOsImage.o(.data)
    clkHdlInited                             0x0804ce60   Data           1  SpmiOsImage.o(.data)
    clkDev                                   0x0804ce64   Data           4  SpmiOsImage.o(.data)
    ahbClkId                                 0x0804ce68   Data           4  SpmiOsImage.o(.data)
    serClkId                                 0x0804ce6c   Data           4  SpmiOsImage.o(.data)
    .data                                    0x0804ce70   Section        4  SpmiHal.o(.data)
    .data                                    0x0804ce74   Section      348  DALConfig_boot.o(.data)
    .data                                    0x0804cfd0   Section       28  DALModDir_boot.o(.data)
    DALDriverInfoArr                         0x0804cfd0   Data          28  DALModDir_boot.o(.data)
    .data                                    0x0804cfec   Section        8  DALModDir_boot.o(.data)
    .data                                    0x0804cff4   Section       24  DALModDir_boot.o(.data)
    .data                                    0x0804d00c   Section       16  DALModDir_boot.o(.data)
    .data                                    0x0804d01c   Section        4  image_version.o(.data)
    image_version_table_p                    0x0804d01c   Data           4  image_version.o(.data)
    .data                                    0x0804d020   Section        4  bamcore.o(.data)
    .data                                    0x0804d024   Section        8  bamtgtcfg.o(.data)
    .data                                    0x0804d02c   Section       16  TsensiConversion.o(.data)
    uNumSensors                              0x0804d02c   Data           4  TsensiConversion.o(.data)
    nTsensY1                                 0x0804d030   Data           4  TsensiConversion.o(.data)
    nTsensY2                                 0x0804d034   Data           4  TsensiConversion.o(.data)
    uTsensMaxAdcCode                         0x0804d038   Data           4  TsensiConversion.o(.data)
    .data                                    0x0804d03c   Section       40  smem.o(.data)
    memory_barrier_ptr                       0x0804d040   Data           4  smem.o(.data)
    .data                                    0x0804d064   Section        4  smem_boot.o(.data)
    smem_targ_info_ptr                       0x0804d064   Data           4  smem_boot.o(.data)
    .data                                    0x0804d068   Section        8  CeML.o(.data)
    ceel_init_done                           0x0804d068   Data           1  CeML.o(.data)
    ceml_max_block_size                      0x0804d06c   Data           4  CeML.o(.data)
    .data                                    0x0804d070   Section        4  secboot_hw.o(.data)
    g_oem_root_cert_sel_ptr                  0x0804d070   Data           4  secboot_hw.o(.data)
    .data                                    0x0804d074   Section        4  flash_boot_ops_setup.o(.data)
    smem_flash_dev_info                      0x0804d074   Data           4  flash_boot_ops_setup.o(.data)
    .data                                    0x0804d078   Section     1348  ClockSBLConfig.o(.data)
    .data                                    0x0804d5bc   Section        4  ClockTLMMSpare.o(.data)
    phChipInfo                               0x0804d5bc   Data           4  ClockTLMMSpare.o(.data)
    .data                                    0x0804d5c0   Section       88  pm_app_chg_alg.o(.data)
    boot_with_charger                        0x0804d5c0   Data           1  pm_app_chg_alg.o(.data)
    chg_chip_type                            0x0804d5c1   Data           1  pm_app_chg_alg.o(.data)
    use_internal_charger                     0x0804d5c2   Data           1  pm_app_chg_alg.o(.data)
    enum_timer_run                           0x0804d5c3   Data           1  pm_app_chg_alg.o(.data)
    enum_expired                             0x0804d5c4   Data           1  pm_app_chg_alg.o(.data)
    smb_bypass_config                        0x0804d5c5   Data           1  pm_app_chg_alg.o(.data)
    s_charger_port                           0x0804d5c6   Data           1  pm_app_chg_alg.o(.data)
    next_state_ptr                           0x0804d5c8   Data           4  pm_app_chg_alg.o(.data)
    sbl_chg_app_ds                           0x0804d5cc   Data           4  pm_app_chg_alg.o(.data)
    pm_chg_state__battery_and_debug_board_detect 0x0804d5d0   Data           8  pm_app_chg_alg.o(.data)
    pm_chg_state_charger_detect              0x0804d5d8   Data           8  pm_app_chg_alg.o(.data)
    pm_chg_state__cdp_charging               0x0804d5e0   Data           8  pm_app_chg_alg.o(.data)
    pm_chg_state__dcp_charging               0x0804d5e8   Data           8  pm_app_chg_alg.o(.data)
    pm_chg_state__float_charging             0x0804d5f0   Data           8  pm_app_chg_alg.o(.data)
    pm_chg_state__sdp_charging               0x0804d5f8   Data           8  pm_app_chg_alg.o(.data)
    pm_chg_state__bootup_ok                  0x0804d600   Data           8  pm_app_chg_alg.o(.data)
    pm_chg_state__shutdown                   0x0804d608   Data           8  pm_app_chg_alg.o(.data)
    pm_chg_status                            0x0804d610   Data           8  pm_app_chg_alg.o(.data)
    .data                                    0x0804d618   Section        4  pm_comm.o(.data)
    pm_comm_info                             0x0804d618   Data           4  pm_comm.o(.data)
    .data                                    0x0804d61c   Section        8  pm_pbs_info.o(.data)
    pm_pbs_info_initialized                  0x0804d61c   Data           1  pm_pbs_info.o(.data)
    pm_pbs_data                              0x0804d620   Data           4  pm_pbs_info.o(.data)
    .data                                    0x0804d624   Section       16  pm_config_sbl.o(.data)
    max_pmic_index                           0x0804d624   Data           1  pm_config_sbl.o(.data)
    pbs_data_ram_index_arr                   0x0804d626   Data           2  pm_config_sbl.o(.data)
    pbs_data_ram_size_arr                    0x0804d628   Data           2  pm_config_sbl.o(.data)
    .data                                    0x0804d634   Section        1  pm_version.o(.data)
    pm_version_initialized                   0x0804d634   Data           1  pm_version.o(.data)
    .data                                    0x0804d638   Section       16  pm_target_information.o(.data)
    hProp_target                             0x0804d638   Data           8  pm_target_information.o(.data)
    hProp_common                             0x0804d640   Data           8  pm_target_information.o(.data)
    .data                                    0x0804d648   Section      608  qhsusb_fd_hdlc.o(.data)
    qhsusb_cancel_transfer                   0x0804d648   Data           1  qhsusb_fd_hdlc.o(.data)
    qhsusb_transfer_mode_g                   0x0804d649   Data           1  qhsusb_fd_hdlc.o(.data)
    qhsusb_bulk_mode_g                       0x0804d64a   Data           1  qhsusb_fd_hdlc.o(.data)
    user_tx_callback                         0x0804d64c   Data           4  qhsusb_fd_hdlc.o(.data)
    user_rx_callback                         0x0804d650   Data           4  qhsusb_fd_hdlc.o(.data)
    user_enum_complete                       0x0804d654   Data           4  qhsusb_fd_hdlc.o(.data)
    user_error_handler                       0x0804d658   Data           4  qhsusb_fd_hdlc.o(.data)
    hdlc_usb_device_obex                     0x0804d65c   Data          18  qhsusb_fd_hdlc.o(.data)
    serial_number_string                     0x0804d6ae   Data         254  qhsusb_fd_hdlc.o(.data)
    sw_data_eps                              0x0804d7ac   Data          40  qhsusb_fd_hdlc.o(.data)
    sw_data_ifc                              0x0804d7d4   Data          24  qhsusb_fd_hdlc.o(.data)
    .data                                    0x0804d8a8   Section       48  qhsusb_fd_hdlc.o(.data)
    .data                                    0x0804d8d8   Section       24  qhsusb_dcd_ch9.o(.data)
    qhsusb_is_configured                     0x0804d8d8   Data           1  qhsusb_dcd_ch9.o(.data)
    QHSUSB_SHUTDOWN_LOOP_ITERATION           0x0804d8dc   Data           4  qhsusb_dcd_ch9.o(.data)
    dci_callbacks                            0x0804d8e0   Data          16  qhsusb_dcd_ch9.o(.data)
    .data                                    0x0804d8f0   Section       40  qhsusb_dci.o(.data)
    is_bulk_mode_in_progress                 0x0804d8f0   Data           1  qhsusb_dci.o(.data)
    dci_usb_address                          0x0804d8f1   Data           1  qhsusb_dci.o(.data)
    dci_start_enum                           0x0804d8f2   Data           1  qhsusb_dci.o(.data)
    is_first_TD_occupied                     0x0804d8f3   Data           1  qhsusb_dci.o(.data)
    dci_timer_is_running                     0x0804d8f4   Data           2  qhsusb_dci.o(.data)
    dci_callback_table_ptr                   0x0804d8f8   Data           4  qhsusb_dci.o(.data)
    dci_max_packet_size                      0x0804d8fc   Data           4  qhsusb_dci.o(.data)
    dci_dummy_buffer_for_zlp                 0x0804d900   Data           4  qhsusb_dci.o(.data)
    zero_address_tx_length                   0x0804d904   Data           4  qhsusb_dci.o(.data)
    qhsusb_cookie_single_enum                0x0804d908   Data           4  qhsusb_dci.o(.data)
    loop_here                                0x0804d90c   Data           4  qhsusb_dci.o(.data)
    dci_setup_buffer                         0x0804d910   Data           8  qhsusb_dci.o(.data)
    .data                                    0x0804d918   Section        3  qhsusb_dci_8909.o(.data)
    dci_is_connected                         0x0804d918   Data           1  qhsusb_dci_8909.o(.data)
    dci_is_attached                          0x0804d919   Data           1  qhsusb_dci_8909.o(.data)
    chg_port_type                            0x0804d91a   Data           1  qhsusb_dci_8909.o(.data)
    .data                                    0x0804d91c   Section        8  qhsusb_log.o(.data)
    qhsusb_circular_buffer_index             0x0804d91c   Data           4  qhsusb_log.o(.data)
    count                                    0x0804d920   Data           4  qhsusb_log.o(.data)
    .data                                    0x0804d924   Section       48  I2cDriverDalInfo.o(.data)
    DalI2C_DeviceId                          0x0804d924   Data          48  I2cDriverDalInfo.o(.data)
    .data                                    0x0804d954   Section      640  icbcfg_data.o(.data)
    .data                                    0x0804dbd4   Section        8  icbcfg_data.o(.data)
    .data                                    0x0804dbe0   Section       16  icbcfg_data.o(.data)
    .data                                    0x0804dbf0   Section        4  icbcfg_data.o(.data)
    .data                                    0x0804dbf4   Section       32  icbcfg_data.o(.data)
    .data                                    0x0804dc18   Section       32  icbcfg_data.o(.data)
    .data                                    0x0804dc38   Section       40  icbcfg_data.o(.data)
    .data                                    0x0804dc60   Section        8  icbcfg_data.o(.data)
    .data                                    0x0804dc68   Section       12  SpmiOs.o(.data)
    propHdlInited                            0x0804dc68   Data           1  SpmiOs.o(.data)
    dalPropDev                               0x0804dc6c   Data           8  SpmiOs.o(.data)
    .data                                    0x0804dc74   Section       60  Uart.o(.data)
    .data                                    0x0804dcb0   Section       16  DALGlbCtxt.o(.data)
    g_shared_token_hdr                       0x0804dcb0   Data           4  DALGlbCtxt.o(.data)
    hTimeoutEvent                            0x0804dcb4   Data           4  DALGlbCtxt.o(.data)
    hGlbCtxtSync                             0x0804dcb8   Data           4  DALGlbCtxt.o(.data)
    GlbCtxtIsInit                            0x0804dcbc   Data           4  DALGlbCtxt.o(.data)
    .data                                    0x0804dcc0   Section       16  flash_dal_info.o(.data)
    DALFlash_DeviceId                        0x0804dcc0   Data          16  flash_dal_info.o(.data)
    .data                                    0x0804dcd0   Section       12  flash_nand_init.o(.data)
    runtime_device                           0x0804dcd8   Data           4  flash_nand_init.o(.data)
    .data                                    0x0804dcdc   Section        8  flash_nand_partition.o(.data)
    .data                                    0x0804dce4   Section        4  DalChipInfoInfo.o(.data)
    DalChipInfo_DeviceId                     0x0804dce4   Data           4  DalChipInfoInfo.o(.data)
    .data                                    0x0804dce8   Section        4  PlatformInfoFwk.o(.data)
    DalPlatformInfo_DeviceId                 0x0804dce8   Data           4  PlatformInfoFwk.o(.data)
    .data                                    0x0804dcec   Section      140  PlatformInfoFwk.o(.data)
    PlatformInfo_DriverCtxt                  0x0804dcec   Data         140  PlatformInfoFwk.o(.data)
    .data                                    0x0804dd78   Section        2  pm_config_common.o(.data)
    .data                                    0x0804dd7c   Section        4  pm_config_common.o(.data)
    .data                                    0x0804dd80   Section       24  pm_config_common.o(.data)
    .data                                    0x0804dd98   Section        4  pm_config_common.o(.data)
    .data                                    0x0804dd9c   Section       24  pm_config_common.o(.data)
    .data                                    0x0804ddb4   Section        4  pm_config_common.o(.data)
    .data                                    0x0804ddb8   Section       24  pm_config_common.o(.data)
    .data                                    0x0804ddd0   Section        4  pm_config_common.o(.data)
    .data                                    0x0804ddd4   Section       36  pm_config_common.o(.data)
    .data                                    0x0804ddf8   Section        4  pm_config_common.o(.data)
    .data                                    0x0804ddfc   Section       36  pm_config_common.o(.data)
    .data                                    0x0804de20   Section        4  pm_config_common.o(.data)
    .data                                    0x0804de24   Section       60  pm_config_common.o(.data)
    .data                                    0x0804de60   Section        4  pm_config_common.o(.data)
    .data                                    0x0804de64   Section       24  pm_config_common.o(.data)
    .data                                    0x0804de7c   Section        4  pm_config_common.o(.data)
    .data                                    0x0804de80   Section       36  pm_config_common.o(.data)
    .data                                    0x0804dea4   Section        4  pm_config_common.o(.data)
    .data                                    0x0804dea8   Section       24  pm_config_common.o(.data)
    .data                                    0x0804dec0   Section        4  pm_config_common.o(.data)
    .data                                    0x0804dec4   Section       12  pm_config_common.o(.data)
    .data                                    0x0804ded0   Section        4  pm_config_common.o(.data)
    .data                                    0x0804ded4   Section       12  pm_config_common.o(.data)
    .data                                    0x0804dee0   Section        4  pm_config_common.o(.data)
    .data                                    0x0804dee4   Section       12  pm_config_common.o(.data)
    .data                                    0x0804def0   Section       10  pm_config_common.o(.data)
    .data                                    0x0804defa   Section       36  pm_config_common.o(.data)
    .data                                    0x0804df1e   Section       36  pm_config_common.o(.data)
    .data                                    0x0804df42   Section       36  pm_config_common.o(.data)
    .data                                    0x0804df66   Section       28  pm_config_common.o(.data)
    .data                                    0x0804df82   Section       84  pm_config_common.o(.data)
    .data                                    0x0804dfd6   Section       82  pm_config_common.o(.data)
    .data                                    0x0804e028   Section        8  pm_config_common.o(.data)
    .data                                    0x0804e030   Section       80  pm_config_common.o(.data)
    .data                                    0x0804e080   Section       60  pm_config_common.o(.data)
    .data                                    0x0804e0bc   Section        4  pm_config_common.o(.data)
    .data                                    0x0804e0c0   Section        4  pm_config_common.o(.data)
    .data                                    0x0804e0c4   Section       14  pm_config_common.o(.data)
    .data                                    0x0804e0d2   Section       40  pm_config_common.o(.data)
    .data                                    0x0804e0fa   Section       44  pm_config_common.o(.data)
    .data                                    0x0804e126   Section       10  pm_config_common.o(.data)
    .data                                    0x0804e130   Section       44  pm_config_common.o(.data)
    .data                                    0x0804e15c   Section       10  pm_config_common.o(.data)
    .data                                    0x0804e166   Section       42  pm_config_common.o(.data)
    .data                                    0x0804e190   Section       44  pm_config_common.o(.data)
    .data                                    0x0804e1bc   Section       26  pm_config_common.o(.data)
    .data                                    0x0804e1d6   Section       10  pm_config_common.o(.data)
    .data                                    0x0804e1e0   Section       12  pm_config_target.o(.data)
    .data                                    0x0804e1ec   Section       24  pm_config_target.o(.data)
    .data                                    0x0804e204   Section       12  pm_config_target.o(.data)
    .data                                    0x0804e210   Section        2  pm_config_target.o(.data)
    .data                                    0x0804e214   Section       20  pm_config_target.o(.data)
    .data                                    0x0804e228   Section        4  pm_config_target.o(.data)
    .data                                    0x0804e22c   Section        4  pm_config_target.o(.data)
    .data                                    0x0804e230   Section       50  pm_config_target.o(.data)
    .data                                    0x0804e262   Section       22  pm_config_target.o(.data)
    .data                                    0x0804e278   Section        4  pm_config_target.o(.data)
    .data                                    0x0804e27c   Section     2796  pm_config_target_sbl_sequence.o(.data)
    .data                                    0x0804ed68   Section     1024  pm_config_target_pbs_ram.o(.data)
    .data                                    0x0804f168   Section        8  pm_config_target.o(.data)
    .data                                    0x0804f170   Section       24  pm_config_target.o(.data)
    .data                                    0x0804f188   Section       12  pm_config_target.o(.data)
    .data                                    0x0804f194   Section        2  pm_config_target.o(.data)
    .data                                    0x0804f198   Section       20  pm_config_target.o(.data)
    .data                                    0x0804f1ac   Section        4  pm_config_target.o(.data)
    .data                                    0x0804f1b0   Section        4  pm_config_target.o(.data)
    .data                                    0x0804f1b4   Section       50  pm_config_target.o(.data)
    .data                                    0x0804f1e6   Section       22  pm_config_target.o(.data)
    .data                                    0x0804f1fc   Section        4  pm_config_target.o(.data)
    .data                                    0x0804f200   Section     3156  pm_config_target_sbl_sequence.o(.data)
    .data                                    0x0804fe54   Section     1024  pm_config_target_pbs_ram.o(.data)
    .data                                    0x08050254   Section        4  pm_pbs_driver.o(.data)
    phPlatformInfo                           0x08050254   Data           4  pm_pbs_driver.o(.data)
    .data                                    0x08050258   Section        8  pm_smb_driver.o(.data)
    smb_info                                 0x08050258   Data           4  pm_smb_driver.o(.data)
    .data                                    0x08050260   Section       64  pm_smb_driver.o(.data)
    .data                                    0x080502a0   Section       32  pm_smb_driver.o(.data)
    .data                                    0x080502c0   Section       44  pm_smb_driver.o(.data)
    .data                                    0x080502ec   Section       20  pm_smb.o(.data)
    get_config_successful                    0x080502ec   Data           1  pm_smb.o(.data)
    handle                                   0x080502f0   Data           4  pm_smb.o(.data)
    smb_info                                 0x080502f4   Data           4  pm_smb.o(.data)
    config                                   0x080502f8   Data           8  pm_smb.o(.data)
    .data                                    0x08050300   Section        8  DALTLMMInfo.o(.data)
    DalTLMM_DeviceId                         0x08050300   Data           8  DALTLMMInfo.o(.data)
    .data                                    0x08050308   Section       16  qhsusb_al_charger.o(.data)
    dev                                      0x08050308   Data           4  qhsusb_al_charger.o(.data)
    a0                                       0x0805030c   Data           4  qhsusb_al_charger.o(.data)
    c0                                       0x08050310   Data           4  qhsusb_al_charger.o(.data)
    s0                                       0x08050314   Data           4  qhsusb_al_charger.o(.data)
    .data                                    0x08050318   Section        4  I2cDeviceQup.o(.data)
    .data                                    0x0805031c   Section      520  Uart_log.o(.data)
    .data                                    0x08050528   Section      472  DalVAdcFwk.o(.data)
    .data                                    0x08050700   Section        5  CeEL_Env.o(.data)
    .data                                    0x08050708   Section      448  flash_dal_fwk.o(.data)
    static_flash_clients                     0x08050708   Data           4  flash_dal_fwk.o(.data)
    drv_ctxt                                 0x08050710   Data         440  flash_dal_fwk.o(.data)
    .data                                    0x080508c8   Section       24  flash_properties.o(.data)
    flash_i2c_config                         0x080508cc   Data           4  flash_properties.o(.data)
    flash_probe_table                        0x080508d0   Data           8  flash_properties.o(.data)
    flash_probe_table_2                      0x080508d8   Data           8  flash_properties.o(.data)
    .data                                    0x080508e0   Section      100  flash_onfi.o(.data)
    onfi_parameter_page                      0x080508e0   Data           4  flash_onfi.o(.data)
    static_onfi_parameters                   0x080508e4   Data           4  flash_onfi.o(.data)
    num_addr                                 0x080508e8   Data           4  flash_onfi.o(.data)
    flash_spare_info_onfi_2048               0x080508ec   Data          44  flash_onfi.o(.data)
    flash_spare_info_onfi_4096               0x08050918   Data          44  flash_onfi.o(.data)
    .data                                    0x08050944   Section        1  flash_nand_entry.o(.data)
    tools_can_update_config                  0x08050944   Data           1  flash_nand_entry.o(.data)
    .data                                    0x08050948   Section       16  flash_nand_config.o(.data)
    ebi2_cfg_table                           0x08050948   Data          16  flash_nand_config.o(.data)
    .data                                    0x08050958   Section       44  flash_nand_config.o(.data)
    spare_info_x8_2048                       0x08050958   Data          44  flash_nand_config.o(.data)
    .data                                    0x08050984   Section      304  flash_nand_config.o(.data)
    supported_nand_devices                   0x08050984   Data         304  flash_nand_config.o(.data)
    .data                                    0x08050ab4   Section       40  flash_nand_config.o(.data)
    supported_nand_cfgs                      0x08050ab4   Data          40  flash_nand_config.o(.data)
    .data                                    0x08050adc   Section      172  DalChipInfoFwk.o(.data)
    ChipInfo_drvCtxt                         0x08050adc   Data         172  DalChipInfoFwk.o(.data)
    .data                                    0x08050b88   Section       12  PlatformInfo.o(.data)
    bCDTInitialized                          0x08050b88   Data           1  PlatformInfo.o(.data)
    phChipInfo                               0x08050b8c   Data           4  PlatformInfo.o(.data)
    phChipInfo                               0x08050b90   Data           4  PlatformInfo.o(.data)
    .data                                    0x08050b98   Section      160  DALTLMMFwk.o(.data)
    .data                                    0x08050c38   Section      192  qhsusb_fd_chg.o(.data)
    chg_usb_device                           0x08050c38   Data          18  qhsusb_fd_chg.o(.data)
    qhsusb_device                            0x08050c4c   Data         172  qhsusb_fd_chg.o(.data)
    .data                                    0x08050cf8   Section       34  qhsusb_fd_chg.o(.data)
    chg_usb_config_500                       0x08050cf8   Data          34  qhsusb_fd_chg.o(.data)
    .data                                    0x08050d1a   Section       34  qhsusb_fd_chg.o(.data)
    chg_usb_config_100                       0x08050d1a   Data          34  qhsusb_fd_chg.o(.data)
    .data                                    0x08050d3c   Section       20  qhsusb_fd_chg.o(.data)
    the_eps_500                              0x08050d3c   Data          20  qhsusb_fd_chg.o(.data)
    .data                                    0x08050d50   Section       24  qhsusb_fd_chg.o(.data)
    the_ifc_500                              0x08050d50   Data          24  qhsusb_fd_chg.o(.data)
    .data                                    0x08050d68   Section       16  qhsusb_fd_chg.o(.data)
    the_config_500                           0x08050d68   Data          16  qhsusb_fd_chg.o(.data)
    .data                                    0x08050d78   Section       20  qhsusb_fd_chg.o(.data)
    the_eps_100                              0x08050d78   Data          20  qhsusb_fd_chg.o(.data)
    .data                                    0x08050d8c   Section       24  qhsusb_fd_chg.o(.data)
    the_ifc_100                              0x08050d8c   Data          24  qhsusb_fd_chg.o(.data)
    .data                                    0x08050da4   Section       16  qhsusb_fd_chg.o(.data)
    the_config_100                           0x08050da4   Data          16  qhsusb_fd_chg.o(.data)
    .data                                    0x08050db4   Section       84  flash_nor_entry_reduced.o(.data)
    nor_entry_vtbl                           0x08050db4   Data          84  flash_nor_entry_reduced.o(.data)
    .data                                    0x08050e08   Section     1176  flash_nor_i2c_config.o(.data)
    i2c_eeprom_devices                       0x08050e08   Data        1176  flash_nor_i2c_config.o(.data)
    .data                                    0x080512a0   Section       72  flash_nor_i2c_config.o(.data)
    nor_probe_table                          0x080512a0   Data           8  flash_nor_i2c_config.o(.data)
    supported_i2c_eeprom_cfgs                0x080512a8   Data          64  flash_nor_i2c_config.o(.data)
    .data                                    0x080512e8   Section       96  flash_extdrv_i2c_v2.o(.data)
    eeprom_slave_id                          0x080512e8   Data           1  flash_extdrv_i2c_v2.o(.data)
    i2c_op_freq                              0x080512ea   Data           2  flash_extdrv_i2c_v2.o(.data)
    i2c_high_time_divider_factor             0x080512ec   Data           4  flash_extdrv_i2c_v2.o(.data)
    .data                                    0x08051348   Section        4  flash_hal_common.o(.data)
    .data                                    0x0805134c   Section       80  flash_hal_nandc_common.o(.data)
    default_cfg0                             0x0805134c   Data           4  flash_hal_nandc_common.o(.data)
    default_cfg1                             0x08051350   Data           4  flash_hal_nandc_common.o(.data)
    default_ecc_cfg                          0x08051354   Data           4  flash_hal_nandc_common.o(.data)
    default_erased_cw_det_cfg                0x08051358   Data           4  flash_hal_nandc_common.o(.data)
    nandc_page_layout                        0x0805135c   Data          64  flash_hal_nandc_common.o(.data)
    .data                                    0x0805139c   Section      504  DalChipInfoLocal.o(.data)
    .data                                    0x08051594   Section       28  DALTLMM.o(.data)
    gbTLMMInitialized                        0x08051594   Data           1  DALTLMM.o(.data)
    gNonDalTlmmInit                          0x08051595   Data           1  DALTLMM.o(.data)
    gnTotalPorts                             0x08051598   Data           4  DALTLMM.o(.data)
    phChipInfo                               0x080515a0   Data           4  DALTLMM.o(.data)
    .data                                    0x080515b0   Section        4  flash_hal_nandc_predef_bam_core.o(.data)
    set_bam_mode_done                        0x080515b0   Data           4  flash_hal_nandc_predef_bam_core.o(.data)
    .data                                    0x080515b4   Section        8  DALTLMMState.o(.data)
    phChipInfo                               0x080515b4   Data           4  DALTLMMState.o(.data)
    .data                                    0x080515bc   Section        8  HALtlmm.o(.data)
    tHALTLMMInit                             0x080515bc   Data           8  HALtlmm.o(.data)
    .data                                    0x080515c4   Section       84  flash_nor_i2c_core.o(.data)
    .data                                    0x08051618   Section       32  flash_bam_wrapper.o(.data)
    ERR_DATA_PTR                             0x08051638   Section        4  boot_error_handler.o(ERR_DATA_PTR)
    .bss                                     0x08051640   Section      712  sbl1_mc.o(.bss)
    sbl1_pbl_shared_data                     0x08051640   Data          84  sbl1_mc.o(.bss)
    ddr_info                                 0x08051694   Data          12  sbl1_mc.o(.bss)
    sbl1_shared_data                         0x08051888   Data          44  sbl1_mc.o(.bss)
    .bss                                     0x08051908   Section       84  boot_pbl_v1.o(.bss)
    boot_pbl_shared_data                     0x08051908   Data          84  boot_pbl_v1.o(.bss)
    .bss                                     0x0805195c   Section      256  boot_error_handler.o(.bss)
    error_message                            0x0805195c   Data         256  boot_error_handler.o(.bss)
    .bss                                     0x08051a5c   Section      260  boot_clobber_prot.o(.bss)
    clobber_table                            0x08051a5c   Data         260  boot_clobber_prot.o(.bss)
    .bss                                     0x08051b60   Section      936  boot_flash_dev_nand.o(.bss)
    dev_priv                                 0x08051b60   Data          24  boot_flash_dev_nand.o(.bss)
    mibib_partition_tbl                      0x08051b78   Data         912  boot_flash_dev_nand.o(.bss)
    .bss                                     0x08051f08   Section      396  boot_ddr_info.o(.bss)
    ddr_info                                 0x08051f08   Data         128  boot_ddr_info.o(.bss)
    ddr_info                                 0x08051f88   Data         128  boot_ddr_info.o(.bss)
    ddr_partition_info                       0x08052008   Data         128  boot_ddr_info.o(.bss)
    boot_ddr_size_info                       0x08052088   Data          12  boot_ddr_info.o(.bss)
    .bss                                     0x080520a0   Section      184  boot_authenticator.o(.bss)
    sbl_auth_image_info                      0x080520a0   Data          40  boot_authenticator.o(.bss)
    sbl_auth_verified_info                   0x080520e0   Data          80  boot_authenticator.o(.bss)
    sbl_secboot_hw_ftbl                      0x08052130   Data          24  boot_authenticator.o(.bss)
    sbl_secboot_ftbl                         0x08052148   Data          16  boot_authenticator.o(.bss)
    .bss                                     0x08052158   Section       32  AdcBoot.o(.bss)
    adcBootCtxt                              0x08052158   Data          32  AdcBoot.o(.bss)
    .bss                                     0x08052178   Section      240  seccfg.o(.bss)
    .bss                                     0x08052268   Section       16  ddr_test.o(.bss)
    test_log                                 0x08052268   Data          16  ddr_test.o(.bss)
    .bss                                     0x08052278   Section        9  boot_logger_ram.o(.bss)
    ascii_char                               0x08052278   Data           9  boot_logger_ram.o(.bss)
    .bss                                     0x08052281   Section      521  boot_logger_uart.o(.bss)
    ascii_char                               0x08052281   Data           9  boot_logger_uart.o(.bss)
    uart_buf                                 0x0805228a   Data         512  boot_logger_uart.o(.bss)
    .bss                                     0x0805248c   Section     2856  boot_flash_dev_dal.o(.bss)
    flash_device_clients                     0x0805248c   Data         780  boot_flash_dev_dal.o(.bss)
    page_buff_desc                           0x08052798   Data        2076  boot_flash_dev_dal.o(.bss)
    .bss                                     0x08052fb4   Section      124  boot_config_eeprom.o(.bss)
    eeprom_buff_desc_list                    0x08052fb4   Data          44  boot_config_eeprom.o(.bss)
    eeprom_page_iovec                        0x08052fe0   Data          16  boot_config_eeprom.o(.bss)
    page_buf                                 0x08052ff0   Data          64  boot_config_eeprom.o(.bss)
    .bss                                     0x08053030   Section       32  icbcfg.o(.bss)
    icb_dev_config                           0x08053030   Data          32  icbcfg.o(.bss)
    .bss                                     0x08053050   Section      696  SpmiBus.o(.bss)
    .bss                                     0x08053308   Section       32  DALModEnv.o(.bss)
    commonObject                             0x08053308   Data          32  DALModEnv.o(.bss)
    .bss                                     0x08053328   Section       12  busywait_hw_qtimer.o(.bss)
    system_property_var                      0x08053328   Data          12  busywait_hw_qtimer.o(.bss)
    .bss                                     0x08053334   Section      108  boot_flash_trans_nand.o(.bss)
    fact_priv                                0x08053334   Data         108  boot_flash_trans_nand.o(.bss)
    .bss                                     0x080533a0   Section     1160  PmicArb.o(.bss)
    .bss                                     0x08053828   Section      128  SpmiOsLogs.o(.bss)
    .bss                                     0x080538a8   Section      128  image_uuid.o(.bss)
    .bss                                     0x08053928   Section      256  TsensiConversion.o(.bss)
    anTsensX1                                0x08053928   Data          64  TsensiConversion.o(.bss)
    anTsensX2                                0x08053968   Data          64  TsensiConversion.o(.bss)
    anTsensMFactor                           0x080539a8   Data          64  TsensiConversion.o(.bss)
    abTsensCalValid                          0x080539e8   Data          64  TsensiConversion.o(.bss)
    .bss                                     0x08053a28   Section       24  smem.o(.bss)
    .bss                                     0x08053a40   Section      336  pm_pbs_info.o(.bss)
    pm_pbs_info_arr                          0x08053a40   Data         336  pm_pbs_info.o(.bss)
    .bss                                     0x08053b90   Section       60  pm_config_sbl.o(.bss)
    str                                      0x08053b90   Data          60  pm_config_sbl.o(.bss)
    .bss                                     0x08053bcc   Section      140  pm_version.o(.bss)
    pm_device_info_arr                       0x08053bcc   Data          84  pm_version.o(.bss)
    pm_pdm_chip_info_arr                     0x08053c20   Data          28  pm_version.o(.bss)
    pm_primary_slave_id                      0x08053c3c   Data          28  pm_version.o(.bss)
    .bss                                     0x08053c58   Section       24  pm_target_information.o(.bss)
    prop_target                              0x08053c58   Data          12  pm_target_information.o(.bss)
    prop_common                              0x08053c64   Data          12  pm_target_information.o(.bss)
    .bss                                     0x08053c70   Section       32  flash_nand_init.o(.bss)
    .bss                                     0x08053c90   Section       76  flash_nand_partition.o(.bss)
    parti_buff_desc                          0x08053c90   Data          60  flash_nand_partition.o(.bss)
    page_data_iovec                          0x08053ccc   Data          16  flash_nand_partition.o(.bss)
    .bss                                     0x08053cdc   Section       28  PlatformInfoFwk.o(.bss)
    clientCtxt                               0x08053cdc   Data          28  PlatformInfoFwk.o(.bss)
    .bss                                     0x08053cf8   Section       16  pm_config_target.o(.bss)
    .bss                                     0x08053d08   Section       16  pm_config_target.o(.bss)
    .bss                                     0x08053d18   Section       28  pm_chg_driver.o(.bss)
    pm_chg_data_arr                          0x08053d18   Data          28  pm_chg_driver.o(.bss)
    .bss                                     0x08053d34   Section       28  pm_clk_driver.o(.bss)
    pm_clk_data_arr                          0x08053d34   Data          28  pm_clk_driver.o(.bss)
    .bss                                     0x08053d50   Section       28  pm_coincell_driver.o(.bss)
    pm_coincell_data_arr                     0x08053d50   Data          28  pm_coincell_driver.o(.bss)
    .bss                                     0x08053d6c   Section       28  pm_gpio_driver.o(.bss)
    pm_gpio_data_arr                         0x08053d6c   Data          28  pm_gpio_driver.o(.bss)
    .bss                                     0x08053d88   Section       28  pm_ibb_driver.o(.bss)
    pm_ibb_data_arr                          0x08053d88   Data          28  pm_ibb_driver.o(.bss)
    .bss                                     0x08053da4   Section       28  pm_lab_driver.o(.bss)
    pm_lab_data_arr                          0x08053da4   Data          28  pm_lab_driver.o(.bss)
    .bss                                     0x08053dc0   Section       28  pm_ldo_driver.o(.bss)
    pm_ldo_data_arr                          0x08053dc0   Data          28  pm_ldo_driver.o(.bss)
    .bss                                     0x08053ddc   Section       28  pm_lpg_driver.o(.bss)
    pm_lpg_data_arr                          0x08053ddc   Data          28  pm_lpg_driver.o(.bss)
    .bss                                     0x08053df8   Section       28  pm_mpp_driver.o(.bss)
    pm_mpp_data_arr                          0x08053df8   Data          28  pm_mpp_driver.o(.bss)
    .bss                                     0x08053e14   Section       28  pm_pbs_client_driver.o(.bss)
    pm_pbs_client_data_arr                   0x08053e14   Data          28  pm_pbs_client_driver.o(.bss)
    .bss                                     0x08053e30   Section       28  pm_pwm_driver.o(.bss)
    pm_pwm_data_arr                          0x08053e30   Data          28  pm_pwm_driver.o(.bss)
    .bss                                     0x08053e4c   Section       28  pm_rgb_driver.o(.bss)
    pm_rgb_data_arr                          0x08053e4c   Data          28  pm_rgb_driver.o(.bss)
    .bss                                     0x08053e68   Section       28  pm_rtc_driver.o(.bss)
    pm_rtc_data_arr                          0x08053e68   Data          28  pm_rtc_driver.o(.bss)
    .bss                                     0x08053e84   Section       64  pm_smb.o(.bss)
    s_buffer                                 0x08053e84   Data          64  pm_smb.o(.bss)
    .bss                                     0x08053ec4   Section       28  pm_smps_driver.o(.bss)
    pm_smps_data_arr                         0x08053ec4   Data          28  pm_smps_driver.o(.bss)
    .bss                                     0x08053ee0   Section       28  pm_vib_driver.o(.bss)
    pm_vib_data_arr                          0x08053ee0   Data          28  pm_vib_driver.o(.bss)
    .bss                                     0x08053efc   Section       28  pm_vs_driver.o(.bss)
    pm_vs_data_arr                           0x08053efc   Data          28  pm_vs_driver.o(.bss)
    .bss                                     0x08053f18   Section       28  pm_wled_driver.o(.bss)
    pm_wled_data_arr                         0x08053f18   Data          28  pm_wled_driver.o(.bss)
    .bss                                     0x08053f34   Section       20  flash_dal_util.o(.bss)
    .bss                                     0x08053f48   Section       28  flash_dal_util.o(.bss)
    virt_phys_list                           0x08053f48   Data          28  flash_dal_util.o(.bss)
    .bss                                     0x08053f64   Section      232  flash_nand_entry.o(.bss)
    nand_entry_vtbl                          0x08053f64   Data          84  flash_nand_entry.o(.bss)
    nand_entry_vtbl                          0x08053fb8   Data          84  flash_nand_entry.o(.bss)
    .bss                                     0x0805404c   Section      252  flash_hal_main.o(.bss)
    .bss                                     0x08054148   Section       28  DalChipInfoFwk.o(.bss)
    clientCtxt                               0x08054148   Data          28  DalChipInfoFwk.o(.bss)
    .bss                                     0x08054164   Section       28  pm_lbc_driver.o(.bss)
    pm_lbc_data_arr                          0x08054164   Data          28  pm_lbc_driver.o(.bss)
    .bss                                     0x08054180   Section       28  pm_smbb_driver.o(.bss)
    pm_smbb_data_arr                         0x08054180   Data          28  pm_smbb_driver.o(.bss)
    .bss                                     0x0805419c   Section       28  DALTLMMFwk.o(.bss)
    ClientCtxt                               0x0805419c   Data          28  DALTLMMFwk.o(.bss)
    .bss                                     0x080541b8   Section       20  flash_hal_properties.o(.bss)
    .bss                                     0x080541cc   Section      452  DALTLMM.o(.bss)
    tPropVar                                 0x080541cc   Data          12  DALTLMM.o(.bss)
    gtHALPorts                               0x080541d8   Data         440  DALTLMM.o(.bss)
    .bss                                     0x08054390   Section       12  flash_nor_i2c_init.o(.bss)
    .bss                                     0x0805439c   Section       12  DALTLMMState.o(.bss)
    tPropVar                                 0x0805439c   Data          12  DALTLMMState.o(.bss)
    .bss                                     0x080543a8   Section      624  flash_hal_nandc_predef_bam_init.o(.bss)
    .bss                                     0x08054618   Section      164  flash_bam_wrapper.o(.bss)
    BOOT_INTERNAL_HEAP                       0x080546bc   Section     6144  sbl1_mc.o(BOOT_INTERNAL_HEAP)
    boot_internal_heap                       0x080546bc   Data        6144  sbl1_mc.o(BOOT_INTERNAL_HEAP)
    CACHE_MMU_ZI                             0x08055ebc   Section        4  boot_armv7_mmu.o(CACHE_MMU_ZI)
    g_memory_barrier_ptr                     0x08055ebc   Data           0  boot_armv7_mmu.o(CACHE_MMU_ZI)
    ERR_DATA                                 0x08055ec0   Section       44  boot_error_handler.o(ERR_DATA)
    err_log                                  0x08055ec0   Data          44  boot_error_handler.o(ERR_DATA)
    .bss                                     0x87c00000   Section       44  CeML.o(.bss)
    non_blocking_ptr                         0x87c00000   Data          44  CeML.o(.bss)
    .bss                                     0x87c0002c   Section      416  CeEL_Env.o(.bss)
    BOOT_CRASH_DUMP_ZONE                     0x87c001cc   Section      188  sbl1_mc.o(BOOT_CRASH_DUMP_ZONE)
    boot_crash_dump_data                     0x87c001cc   Data         188  sbl1_mc.o(BOOT_CRASH_DUMP_ZONE)
    BOOT_DDR_ZI_DATA_ZONE                    0x87c00288   Section       40  sbl1_target.o(BOOT_DDR_ZI_DATA_ZONE)
    BOOT_DDR_ZI_DATA_ZONE                    0x87c002c0   Section    40960  boot_hash_buffer.o(BOOT_DDR_ZI_DATA_ZONE)
    boot_hash_segment                        0x87c002c0   Data       40960  boot_hash_buffer.o(BOOT_DDR_ZI_DATA_ZONE)
    BOOT_DDR_ZI_DATA_ZONE                    0x87c0a2c0   Section     4096  boot_flash_dev_nand.o(BOOT_DDR_ZI_DATA_ZONE)
    BOOT_DDR_ZI_DATA_ZONE                    0x87c0b2c0   Section     8960  boot_elf_loader.o(BOOT_DDR_ZI_DATA_ZONE)
    elf_ctx                                  0x87c0b2c0   Data           8  boot_elf_loader.o(BOOT_DDR_ZI_DATA_ZONE)
    phdr_array_32                            0x87c0b2c8   Data        3200  boot_elf_loader.o(BOOT_DDR_ZI_DATA_ZONE)
    phdr_array                               0x87c0bf48   Data        5600  boot_elf_loader.o(BOOT_DDR_ZI_DATA_ZONE)
    ehdr_32                                  0x87c0d528   Data          52  boot_elf_loader.o(BOOT_DDR_ZI_DATA_ZONE)
    ehdr                                     0x87c0d560   Data          64  boot_elf_loader.o(BOOT_DDR_ZI_DATA_ZONE)
    verify_digest_buf                        0x87c0d5a0   Data          32  boot_elf_loader.o(BOOT_DDR_ZI_DATA_ZONE)
    BOOT_EXTERNAL_HEAP                       0x87c0d5c0   Section    131072  sbl1_mc.o(BOOT_EXTERNAL_HEAP)
    BOOT_PAGE_TABLE_ZONE                     0x87c68000   Section    16384  boot_page_table.o(BOOT_PAGE_TABLE_ZONE)
    BOOT_PAGE_TABLE_ZONE                     0x87c6c000   Section    14336  boot_page_table.o(BOOT_PAGE_TABLE_ZONE)
    .bss                                     0x87c70000   Section     4496  sbl1_sahara.o(.bss)
    sbl_sahara_mem_debug_buffer              0x87c70000   Data        4096  sbl1_sahara.o(.bss)
    .bss                                     0x87c71190   Section     3816  boot_dload_debug.o(.bss)
    cmm_script                               0x87c71190   Data        2048  boot_dload_debug.o(.bss)
    dload_debug_info                         0x87c71990   Data        1352  boot_dload_debug.o(.bss)
    dload_restricted_regions                 0x87c71ed8   Data         416  boot_dload_debug.o(.bss)
    .bss                                     0x87c72078   Section     3024  boot_sahara.o(.bss)
    sahara_log                               0x87c72478   Data        2000  boot_sahara.o(.bss)
    BOOT_UNCACHED_DDR_ZI_ZONE                0x87c72c48   Section     3344  sbl1_sahara.o(BOOT_UNCACHED_DDR_ZI_ZONE)
    sahara_cmd_exec_data_resp_buf            0x87c72c48   Data           4  sbl1_sahara.o(BOOT_UNCACHED_DDR_ZI_ZONE)
    sbl_elf_ctx                              0x87c72c4c   Data           8  sbl1_sahara.o(BOOT_UNCACHED_DDR_ZI_ZONE)
    sbl_sahara_elf_image_info                0x87c72c54   Data          80  sbl1_sahara.o(BOOT_UNCACHED_DDR_ZI_ZONE)
    elf_prog_headers                         0x87c72ca4   Data        3220  sbl1_sahara.o(BOOT_UNCACHED_DDR_ZI_ZONE)
    verify_digest_buf                        0x87c73938   Data          32  sbl1_sahara.o(BOOT_UNCACHED_DDR_ZI_ZONE)
    BOOT_UNCACHED_DDR_ZI_ZONE                0x87c73958   Section       16  boot_dload_debug_target.o(BOOT_UNCACHED_DDR_ZI_ZONE)
    reset_status_register                    0x87c73958   Data           4  boot_dload_debug_target.o(BOOT_UNCACHED_DDR_ZI_ZONE)
    pmic_power_on                            0x87c73960   Data           8  boot_dload_debug_target.o(BOOT_UNCACHED_DDR_ZI_ZONE)
    .bss                                     0x87c74000   Section      512  qhsusb_al_bulk.o(.bss)
    zlp_read_buf                             0x87c74000   Data         512  qhsusb_al_bulk.o(.bss)
    .bss                                     0x87c74200   Section     1332  qhsusb_fd_hdlc.o(.bss)
    hdlc_tx_buffer                           0x87c7428c   Data         512  qhsusb_fd_hdlc.o(.bss)
    hdlc_tx_urb                              0x87c7448c   Data          56  qhsusb_fd_hdlc.o(.bss)
    hdlc_rx_urb                              0x87c744c4   Data          56  qhsusb_fd_hdlc.o(.bss)
    hdlc_rx_urb_fixed                        0x87c744fc   Data          56  qhsusb_fd_hdlc.o(.bss)
    hdlc_rx_buffer_fixed                     0x87c74534   Data         512  qhsusb_fd_hdlc.o(.bss)
    .bss                                     0x87c74734   Section       74  qhsusb_dcd_ch9.o(.bss)
    qhsusb_setup_buffer                      0x87c74734   Data          10  qhsusb_dcd_ch9.o(.bss)
    descriptor_buf                           0x87c7473e   Data          64  qhsusb_dcd_ch9.o(.bss)
    .bss                                     0x87c74800   Section     8576  qhsusb_dci.o(.bss)
    dci_dqh_list                             0x87c74800   Data         256  qhsusb_dci.o(.bss)
    dci_dtd_list                             0x87c74900   Data        8320  qhsusb_dci.o(.bss)
    .bss                                     0x87c76980   Section       12  qhsusb_dci_8909.o(.bss)
    .bss                                     0x87c7698c   Section     3072  qhsusb_log.o(.bss)
    qhsusb_circular_buffer                   0x87c7698c   Data        3072  qhsusb_log.o(.bss)
    .bss                                     0x87c7758c   Section       34  qhsusb_fd_chg.o(.bss)
    qhsusb_report_descriptor                 0x87c7758c   Data          34  qhsusb_fd_chg.o(.bss)

    Global Symbols

    Symbol Name                              Value     Ov Type        Size  Object(Section)

    BuildAttributes$$THM_ISAv4$ARM_ISAv7$X$E$P$J$Z$N$DE$K$B$S$VFPv4$PE$MPE$A:L22$X:L11$S22$IEEE1$IW$USESV6$~STKCKD$USESV7$~SHL$OSPACE$ROPI$EBA8$STANDARDLIB$THUMB2LIB$REQ8$PRES8$EABIv2 0x00000000   Number         0  anon$$obj.o ABSOLUTE
    _printf_flags                            0x00000000   Number         0  printf_stubs.o ABSOLUTE
    _printf_return_value                     0x00000000   Number         0  printf_stubs.o ABSOLUTE
    _printf_sizespec                         0x00000000   Number         0  printf_stubs.o ABSOLUTE
    _printf_widthprec                        0x00000000   Number         0  printf_stubs.o ABSOLUTE
    __rt_lib_shutdown                         - Undefined Weak Reference
    _printf_mbtowc                            - Undefined Weak Reference
    _printf_truncate_signed                   - Undefined Weak Reference
    _printf_truncate_unsigned                 - Undefined Weak Reference
    Image$$SBL1_DEVICEPROGRAMMER_USB_ZI$$ZI$$Length 0x000035ae   Number         0  anon$$obj.o ABSOLUTE
    Image$$SBL1_DLOAD_ZI$$ZI$$Length         0x00003968   Number         0  anon$$obj.o ABSOLUTE
    Image$$SBL1_DDR_ZI$$ZI$$Length           0x0002d5c0   Number         0  anon$$obj.o ABSOLUTE
    Boot_ToggleClock                         0x00220179   Thumb Code    38  sys_debug_mc.o(i.Boot_ToggleClock)
    sys_debug_enable_clocks                  0x002201a1   Thumb Code   148  sys_debug_mc.o(i.sys_debug_enable_clocks)
    sys_debug_main_ctl                       0x0022024d   Thumb Code    92  sys_debug_mc.o(i.sys_debug_main_ctl)
    boot_enable_aarch64                      0x002202b8   ARM Code       0  boot_a53_asm.o(BOOT_A53_ASM)
    boot_generate_warm_reset                 0x002202d4   ARM Code       0  boot_a53_asm.o(BOOT_A53_ASM)
    boot_configure_vbar                      0x002202f8   ARM Code       0  boot_a53_asm.o(BOOT_A53_ASM)
    Long ARM to Thumb Veneer to boot_pm_pon_ps_hold_cfg 0x00220300   ARM Code       8  anon$$obj.o(Veneer$$Code)
    Short Thumb to ARM Veneer to boot_generate_warm_reset 0x00220309   Thumb Code     8  anon$$obj.o(Veneer$$Code)
    boot_hw_powerdown                        0x00220311   Thumb Code    44  boot_a53.o(i.boot_hw_powerdown)
    boot_hw_reset                            0x00220359   Thumb Code    34  boot_a53.o(i.boot_hw_reset)
    boot_switch_to_aarch64                   0x00220389   Thumb Code    48  boot_a53.o(i.boot_switch_to_aarch64)
    Long Thumb to Thumb Veneer to busywait   0x002203d1   Thumb Code    10  anon$$obj.o(Veneer$$Code)
    Long ARM to ARM Veneer to __aeabi_memcpy4 0x002203dc   ARM Code       8  anon$$obj.o(Veneer$$Code)
    Long ARM to ARM Veneer to mmu_get_page_table_base 0x002203e4   ARM Code       8  anon$$obj.o(Veneer$$Code)
    Long ARM to Thumb Veneer to boot_mmu_page_table_map_single_mem_block 0x002203ec   ARM Code       8  anon$$obj.o(Veneer$$Code)
    Long ARM to Thumb Veneer to ddr_test_all 0x002203f4   ARM Code       8  anon$$obj.o(Veneer$$Code)
    Long ARM to Thumb Veneer to ddr_test     0x002203fc   ARM Code       8  anon$$obj.o(Veneer$$Code)
    Long Thumb to Thumb Veneer to ddr_test_exit 0x00220405   Thumb Code    10  anon$$obj.o(Veneer$$Code)
    Long ARM to Thumb Veneer to __aeabi_memclr4 0x00220410   ARM Code       8  anon$$obj.o(Veneer$$Code)
    Long ARM to ARM Veneer to __aeabi_memmove4 0x00220418   ARM Code       8  anon$$obj.o(Veneer$$Code)
    Long ARM to ARM Veneer to __aeabi_memmove 0x00220420   ARM Code       8  anon$$obj.o(Veneer$$Code)
    DDR_SYNC_INIT                            0x00220429   Thumb Code     2  ddr_sync.o(i.DDR_SYNC_INIT)
    DDR_SYNC_LOCK                            0x0022042b   Thumb Code     2  ddr_sync.o(i.DDR_SYNC_LOCK)
    DDR_SYNC_UNLOCK                          0x0022042d   Thumb Code     2  ddr_sync.o(i.DDR_SYNC_UNLOCK)
    HAL_SDRAM_AHB2PHY_Broadcast_Enable       0x00220431   Thumb Code   118  AHB2PHY.o(i.HAL_SDRAM_AHB2PHY_Broadcast_Enable)
    HAL_SDRAM_BIMC_Rank_Detection            0x002204ad   Thumb Code   160  BIMC_v1.o(i.HAL_SDRAM_BIMC_Rank_Detection)
    HAL_SDRAM_BIMC_Update_Clock_Period       0x00220551   Thumb Code    94  BIMC_v1.o(i.HAL_SDRAM_BIMC_Update_Clock_Period)
    HAL_SDRAM_DDR_Wait                       0x002205bd   Thumb Code    14  BIMC_v1.o(i.HAL_SDRAM_DDR_Wait)
    HAL_SDRAM_DPE_Disable_Power_Down         0x002205d1   Thumb Code    22  BIMC_DPE_v1.o(i.HAL_SDRAM_DPE_Disable_Power_Down)
    HAL_SDRAM_DPE_Force_Update_Latency       0x002205ed   Thumb Code   188  BIMC_DPE_v1.o(i.HAL_SDRAM_DPE_Force_Update_Latency)
    HAL_SDRAM_DPE_Init                       0x002206ad   Thumb Code   136  BIMC_DPE_v1.o(i.HAL_SDRAM_DPE_Init)
    HAL_SDRAM_DPE_Post_Clock_Switch          0x00220739   Thumb Code    52  BIMC_DPE_v1.o(i.HAL_SDRAM_DPE_Post_Clock_Switch)
    HAL_SDRAM_DPE_Pre_Clock_Switch           0x00220771   Thumb Code    90  BIMC_DPE_v1.o(i.HAL_SDRAM_DPE_Pre_Clock_Switch)
    HAL_SDRAM_DPE_Update_AC_Parameters       0x002207d5   Thumb Code   318  BIMC_DPE_v1.o(i.HAL_SDRAM_DPE_Update_AC_Parameters)
    HAL_SDRAM_DPE_Update_Latency             0x00220929   Thumb Code   228  BIMC_DPE_v1.o(i.HAL_SDRAM_DPE_Update_Latency)
    HAL_SDRAM_Enter_Deep_Power_Down          0x00220a15   Thumb Code    26  BIMC_v1.o(i.HAL_SDRAM_Enter_Deep_Power_Down)
    HAL_SDRAM_Enter_Self_Refresh             0x00220a2f   Thumb Code    50  BIMC_v1.o(i.HAL_SDRAM_Enter_Self_Refresh)
    HAL_SDRAM_Exit_Deep_Power_Down           0x00220a61   Thumb Code    32  BIMC_v1.o(i.HAL_SDRAM_Exit_Deep_Power_Down)
    HAL_SDRAM_Exit_Self_Refresh              0x00220a81   Thumb Code    58  BIMC_v1.o(i.HAL_SDRAM_Exit_Self_Refresh)
    HAL_SDRAM_Get_Base_Addr                  0x00220abb   Thumb Code   114  BIMC_v1.o(i.HAL_SDRAM_Get_Base_Addr)
    HAL_SDRAM_Init                           0x00220b2d   Thumb Code   358  BIMC_v1.o(i.HAL_SDRAM_Init)
    HAL_SDRAM_PHY_Disable_CDC_Cal            0x00220ca9   Thumb Code   114  DDR_PHY.o(i.HAL_SDRAM_PHY_Disable_CDC_Cal)
    HAL_SDRAM_PHY_Disable_IO_Cal             0x00220d21   Thumb Code    42  DDR_PHY.o(i.HAL_SDRAM_PHY_Disable_IO_Cal)
    HAL_SDRAM_PHY_Disable_Rapid_CDC_Cal      0x00220d4d   Thumb Code   150  DDR_PHY.o(i.HAL_SDRAM_PHY_Disable_Rapid_CDC_Cal)
    HAL_SDRAM_PHY_Enable_CDC_Cal             0x00220de9   Thumb Code    70  DDR_PHY.o(i.HAL_SDRAM_PHY_Enable_CDC_Cal)
    HAL_SDRAM_PHY_Enable_IO_Cal              0x00220e35   Thumb Code    28  DDR_PHY.o(i.HAL_SDRAM_PHY_Enable_IO_Cal)
    HAL_SDRAM_PHY_Enable_Rapid_CDC_Cal       0x00220e55   Thumb Code   138  DDR_PHY.o(i.HAL_SDRAM_PHY_Enable_Rapid_CDC_Cal)
    HAL_SDRAM_PHY_Init                       0x00220ee9   Thumb Code   168  DDR_PHY.o(i.HAL_SDRAM_PHY_Init)
    HAL_SDRAM_PHY_Manual_CDC_Cal             0x00220fb5   Thumb Code   180  DDR_PHY.o(i.HAL_SDRAM_PHY_Manual_CDC_Cal)
    HAL_SDRAM_PHY_Manual_IO_Cal              0x00221071   Thumb Code   102  DDR_PHY.o(i.HAL_SDRAM_PHY_Manual_IO_Cal)
    HAL_SDRAM_PHY_Update_CDC_Config          0x002210d9   Thumb Code    68  DDR_PHY.o(i.HAL_SDRAM_PHY_Update_CDC_Config)
    HAL_SDRAM_PHY_Update_CDC_Delay_Target    0x00221121   Thumb Code   104  ddr_target.o(i.HAL_SDRAM_PHY_Update_CDC_Delay_Target)
    HAL_SDRAM_PHY_Update_Drive_Strength      0x00221191   Thumb Code    54  DDR_PHY.o(i.HAL_SDRAM_PHY_Update_Drive_Strength)
    HAL_SDRAM_RL                             0x002211d1   Thumb Code   108  BIMC_v1.o(i.HAL_SDRAM_RL)
    HAL_SDRAM_Ram_Size_Detection             0x00221261   Thumb Code   344  BIMC_v1.o(i.HAL_SDRAM_Ram_Size_Detection)
    HAL_SDRAM_Read_MR                        0x002213bd   Thumb Code    74  BIMC_SHKE_v1.o(i.HAL_SDRAM_Read_MR)
    HAL_SDRAM_SCMO_Init                      0x00221415   Thumb Code   506  BIMC_SCMO_v1.o(i.HAL_SDRAM_SCMO_Init)
    HAL_SDRAM_SCMO_Rank_Disable              0x00221615   Thumb Code    78  BIMC_SCMO_v1.o(i.HAL_SDRAM_SCMO_Rank_Disable)
    HAL_SDRAM_SCMO_Rank_Enable               0x0022166d   Thumb Code    44  BIMC_SCMO_v1.o(i.HAL_SDRAM_SCMO_Rank_Enable)
    HAL_SDRAM_SHKE_DPD_Enter                 0x0022169d   Thumb Code   150  BIMC_SHKE_v1.o(i.HAL_SDRAM_SHKE_DPD_Enter)
    HAL_SDRAM_SHKE_DPD_Exit                  0x0022173d   Thumb Code    66  BIMC_SHKE_v1.o(i.HAL_SDRAM_SHKE_DPD_Exit)
    HAL_SDRAM_SHKE_Device_Init               0x00221785   Thumb Code   524  BIMC_SHKE_v1.o(i.HAL_SDRAM_SHKE_Device_Init)
    HAL_SDRAM_SHKE_Disable_Auto_Refresh      0x0022199d   Thumb Code    48  BIMC_SHKE_v1.o(i.HAL_SDRAM_SHKE_Disable_Auto_Refresh)
    HAL_SDRAM_SHKE_Disable_HW_Self_Refresh   0x002219d1   Thumb Code    48  BIMC_SHKE_v1.o(i.HAL_SDRAM_SHKE_Disable_HW_Self_Refresh)
    HAL_SDRAM_SHKE_Disable_Periodic_SRR      0x00221a05   Thumb Code    24  BIMC_SHKE_v1.o(i.HAL_SDRAM_SHKE_Disable_Periodic_SRR)
    HAL_SDRAM_SHKE_Disable_ZQCAL             0x00221a21   Thumb Code    24  BIMC_SHKE_v1.o(i.HAL_SDRAM_SHKE_Disable_ZQCAL)
    HAL_SDRAM_SHKE_Enable_Auto_Refresh       0x00221a3d   Thumb Code    48  BIMC_SHKE_v1.o(i.HAL_SDRAM_SHKE_Enable_Auto_Refresh)
    HAL_SDRAM_SHKE_Enable_HW_Self_Refresh    0x00221a71   Thumb Code    48  BIMC_SHKE_v1.o(i.HAL_SDRAM_SHKE_Enable_HW_Self_Refresh)
    HAL_SDRAM_SHKE_Enable_Periodic_SRR       0x00221aa5   Thumb Code    24  BIMC_SHKE_v1.o(i.HAL_SDRAM_SHKE_Enable_Periodic_SRR)
    HAL_SDRAM_SHKE_Enable_ZQCAL              0x00221ac1   Thumb Code    24  BIMC_SHKE_v1.o(i.HAL_SDRAM_SHKE_Enable_ZQCAL)
    HAL_SDRAM_SHKE_Enter_Self_Refresh        0x00221add   Thumb Code    54  BIMC_SHKE_v1.o(i.HAL_SDRAM_SHKE_Enter_Self_Refresh)
    HAL_SDRAM_SHKE_Exit_Self_Refresh         0x00221b21   Thumb Code    54  BIMC_SHKE_v1.o(i.HAL_SDRAM_SHKE_Exit_Self_Refresh)
    HAL_SDRAM_SHKE_Init                      0x00221b65   Thumb Code    88  BIMC_SHKE_v1.o(i.HAL_SDRAM_SHKE_Init)
    HAL_SDRAM_WL                             0x00221bc1   Thumb Code    68  BIMC_v1.o(i.HAL_SDRAM_WL)
    HAL_SDRAM_Write_MR                       0x00221c19   Thumb Code    86  BIMC_SHKE_v1.o(i.HAL_SDRAM_Write_MR)
    HAL_bimc_GetSlaveSegment                 0x00221c79   Thumb Code    26  HALbimc.o(i.HAL_bimc_GetSlaveSegment)
    HAL_bimc_Init                            0x00221c93   Thumb Code    10  HALbimc.o(i.HAL_bimc_Init)
    HAL_bimc_SetSlaveSegment                 0x00221c9d   Thumb Code    26  HALbimc.o(i.HAL_bimc_SetSlaveSegment)
    bimc_GetSlaveSegment                     0x00221cb9   Thumb Code   270  HALbimcImpl.o(i.bimc_GetSlaveSegment)
    bimc_Init                                0x00221dd1   Thumb Code    44  HALbimcImpl.o(i.bimc_Init)
    bimc_SetSlaveSegment                     0x00221dfd   Thumb Code   208  HALbimcImpl.o(i.bimc_SetSlaveSegment)
    boot_ddr_do_ddr_training                 0x00221ecd   Thumb Code     4  boot_extern_ddr_interface.o(i.boot_ddr_do_ddr_training)
    boot_ddr_get_info                        0x00221ed1   Thumb Code     4  boot_extern_ddr_interface.o(i.boot_ddr_get_info)
    boot_ddr_get_partition                   0x00221ed5   Thumb Code     4  boot_extern_ddr_interface.o(i.boot_ddr_get_partition)
    boot_ddr_get_size                        0x00221ed9   Thumb Code     4  boot_extern_ddr_interface.o(i.boot_ddr_get_size)
    boot_ddr_initialize_device               0x00221edd   Thumb Code     4  boot_extern_ddr_interface.o(i.boot_ddr_initialize_device)
    boot_ddr_params_get_training_data        0x00221ee1   Thumb Code     4  boot_extern_ddr_interface.o(i.boot_ddr_params_get_training_data)
    boot_ddr_params_is_training_required     0x00221ee5   Thumb Code     4  boot_extern_ddr_interface.o(i.boot_ddr_params_is_training_required)
    boot_ddr_params_set_training_data        0x00221ee9   Thumb Code     4  boot_extern_ddr_interface.o(i.boot_ddr_params_set_training_data)
    boot_ddr_post_init                       0x00221eed   Thumb Code     4  boot_extern_ddr_interface.o(i.boot_ddr_post_init)
    boot_ddr_restore_from_wdog_reset         0x00221ef1   Thumb Code     4  boot_extern_ddr_interface.o(i.boot_ddr_restore_from_wdog_reset)
    boot_ddr_set_params                      0x00221ef5   Thumb Code     4  boot_extern_ddr_interface.o(i.boot_ddr_set_params)
    boot_ddr_test                            0x00221ef9   Thumb Code   180  boot_extern_ddr_interface.o(i.boot_ddr_test)
    ddr_busywait                             0x00221fd9   Thumb Code    26  ddr_target.o(i.ddr_busywait)
    ddr_busywait_init                        0x00221ff9   Thumb Code    22  ddr_target.o(i.ddr_busywait_init)
    ddr_divide_func                          0x00222019   Thumb Code    16  BIMC_v1.o(i.ddr_divide_func)
    ddr_do_phy_training                      0x00222029   Thumb Code     2  ddr_target.o(i.ddr_do_phy_training)
    ddr_enter_deep_power_down                0x0022202d   Thumb Code   102  ddr_drivers.o(i.ddr_enter_deep_power_down)
    ddr_enter_self_refresh                   0x00222099   Thumb Code   104  ddr_drivers.o(i.ddr_enter_self_refresh)
    ddr_exit_deep_power_down                 0x00222109   Thumb Code   108  ddr_drivers.o(i.ddr_exit_deep_power_down)
    ddr_exit_self_refresh                    0x00222179   Thumb Code   104  ddr_drivers.o(i.ddr_exit_self_refresh)
    ddr_get_info                             0x002221e9   Thumb Code   308  ddr_drivers.o(i.ddr_get_info)
    ddr_get_params                           0x00222321   Thumb Code    54  ddr_params.o(i.ddr_get_params)
    ddr_get_partition                        0x0022235d   Thumb Code   128  ddr_drivers.o(i.ddr_get_partition)
    ddr_get_shared_header                    0x002223dd   Thumb Code     6  ddr_params.o(i.ddr_get_shared_header)
    ddr_get_size                             0x002223e9   Thumb Code    60  ddr_drivers.o(i.ddr_get_size)
    ddr_init                                 0x00222425   Thumb Code    68  ddr_drivers.o(i.ddr_init)
    ddr_initialize_device                    0x0022246d   Thumb Code   120  ddr_drivers.o(i.ddr_initialize_device)
    ddr_param_interleaved                    0x002224ed   Thumb Code     6  ddr_params.o(i.ddr_param_interleaved)
    ddr_params_detection                     0x002224f9   Thumb Code   134  ddr_params.o(i.ddr_params_detection)
    ddr_params_get_training_data             0x00222585   Thumb Code    12  ddr_params.o(i.ddr_params_get_training_data)
    ddr_params_is_training_required          0x00222595   Thumb Code     4  ddr_target.o(i.ddr_params_is_training_required)
    ddr_params_set_shared_memory             0x00222599   Thumb Code    78  ddr_params.o(i.ddr_params_set_shared_memory)
    ddr_params_set_training_data             0x002225f1   Thumb Code    38  ddr_params.o(i.ddr_params_set_training_data)
    ddr_post_init                            0x00222621   Thumb Code     4  ddr_target.o(i.ddr_post_init)
    ddr_restore_from_wdog_reset              0x00222625   Thumb Code   142  ddr_target.o(i.ddr_restore_from_wdog_reset)
    ddr_restore_param_wdog_reset             0x002226c1   Thumb Code    36  ddr_params.o(i.ddr_restore_param_wdog_reset)
    ddr_set_config                           0x002226e9   Thumb Code    54  ddr_config.o(i.ddr_set_config)
    ddr_set_params                           0x00222721   Thumb Code    84  ddr_params.o(i.ddr_set_params)
    ddr_target_init                          0x0022277d   Thumb Code   178  ddr_target.o(i.ddr_target_init)
    ddr_init_done                            0x00223018   Data           1  ddr_drivers.o(.data)
    wdog_reset                               0x00223048   Data           1  ddr_target.o(.data)
    DDR_PHY_INIT_CDC_DELAY                   0x0022304c   Data           4  ddr_target.o(.data)
    ddr_params_set_enhance_whitelist         0x00223050   Data          56  ddr_target.o(.data)
    ddr_bimc_config_MSM8x09_LPDDR2           0x00223088   Data         784  ddr_config.o(.data)
    ddr_phy_config_MSM8x09_LPDDR2            0x00223398   Data          88  ddr_config.o(.data)
    ddr_caphy_config_MSM8x09_LPDDR2          0x002233f0   Data         192  ddr_config.o(.data)
    ddr_dqphy_config_MSM8x09_LPDDR2          0x002234b0   Data         184  ddr_config.o(.data)
    ddr_bimc_config_MSM8x09_LPDDR3           0x00223568   Data         136  ddr_config.o(.data)
    ddr_phy_config_MSM8x09_LPDDR3            0x002235f0   Data           8  ddr_config.o(.data)
    ddr_caphy_config_MSM8x09_LPDDR3          0x002235f8   Data          16  ddr_config.o(.data)
    ddr_dqphy_config_MSM8x09_LPDDR3          0x00223608   Data           8  ddr_config.o(.data)
    ddr_bimc_config_base                     0x00223610   Data           4  ddr_config.o(.data)
    ddr_phy_config_base                      0x00223614   Data           4  ddr_config.o(.data)
    ddr_caphy_config_base                    0x00223618   Data           4  ddr_config.o(.data)
    ddr_dqphy_config_base                    0x0022361c   Data           4  ddr_config.o(.data)
    ddr_bimc_config_delta                    0x00223620   Data           4  ddr_config.o(.data)
    ddr_phy_config_delta                     0x00223624   Data           4  ddr_config.o(.data)
    ddr_caphy_config_delta                   0x00223628   Data           4  ddr_config.o(.data)
    ddr_dqphy_config_delta                   0x0022362c   Data           4  ddr_config.o(.data)
    ddr_status                               0x00223944   Data          28  ddr_drivers.o(.bss)
    ddr_func_tbl                             0x00223960   Data          56  ddr_target.o(ddr_func_ptr)
    Image$$SYSTEM_DEBUG_QSEE_INFO$$Base      0x00223998   Number         0  anon$$obj.o(linker$$defined$$symbols)
    _printf_d                                0x08005821   Thumb Code     0  _printf_d.o(.ARM.Collect$$_printf_percent$$00000009)
    _printf_percent                          0x08005821   Thumb Code     0  _printf_percent.o(.ARM.Collect$$_printf_percent$$00000000)
    _printf_u                                0x08005827   Thumb Code     0  _printf_u.o(.ARM.Collect$$_printf_percent$$0000000A)
    _printf_x                                0x0800582d   Thumb Code     0  _printf_x.o(.ARM.Collect$$_printf_percent$$0000000C)
    _printf_s                                0x08005833   Thumb Code     0  _printf_s.o(.ARM.Collect$$_printf_percent$$00000014)
    _printf_percent_end                      0x08005839   Thumb Code     0  _printf_percent_end.o(.ARM.Collect$$_printf_percent$$00000017)
    __aeabi_uldivmod                         0x0800583c   ARM Code       0  lludiv5.o(.text)
    _ll_udiv                                 0x0800583c   ARM Code     816  lludiv5.o(.text)
    _ll_udiv_donemoving                      0x08005850   ARM Code       0  lludiv5.o(.text)
    __aeabi_llsl                             0x08005b6d   Thumb Code     0  llshl.o(.text)
    _ll_shift_l                              0x08005b6d   Thumb Code    38  llshl.o(.text)
    __2snprintf                              0x08005b95   Thumb Code    50  __2snprintf.o(.text)
    _printf_pre_padding                      0x08005bcd   Thumb Code    46  _printf_pad.o(.text)
    _printf_post_padding                     0x08005bfb   Thumb Code    36  _printf_pad.o(.text)
    _printf_str                              0x08005c1f   Thumb Code    82  _printf_str.o(.text)
    _printf_int_dec                          0x08005c71   Thumb Code    98  _printf_dec.o(.text)
    _printf_int_hex                          0x08005ce5   Thumb Code    88  _printf_hex_int.o(.text)
    _printf_longlong_hex                     0x08005ce5   Thumb Code     0  _printf_hex_int.o(.text)
    __printf                                 0x08005d41   Thumb Code   390  __printf_flags_ss_wp.o(.text)
    abort                                    0x08005ecd   Thumb Code    16  abort.o(.text)
    strchr                                   0x08005edd   Thumb Code    20  strchr.o(.text)
    memcmp                                   0x08005ef1   Thumb Code    88  memcmp.o(.text)
    strlen                                   0x08005f49   Thumb Code    58  strlen.o(.text)
    strncmp                                  0x08005f84   ARM Code     236  strncmp.o(.text)
    memcpy                                   0x08006074   ARM Code      12  memcpy.o(.text)
    __aeabi_memcpy                           0x08006080   ARM Code       0  rt_memcpy.o(.text)
    __rt_memcpy                              0x08006080   ARM Code     212  rt_memcpy.o(.text)
    _memcpy_lastbytes                        0x08006134   ARM Code       0  rt_memcpy.o(.text)
    __aeabi_memmove                          0x08006154   ARM Code       0  rt_memmove.o(.text)
    __rt_memmove                             0x08006154   ARM Code     212  rt_memmove.o(.text)
    __memmove_lastfew                        0x08006208   ARM Code       0  rt_memmove.o(.text)
    __aeabi_memcpy4                          0x08006228   ARM Code       0  rt_memcpy_w.o(.text)
    __aeabi_memcpy8                          0x08006228   ARM Code       0  rt_memcpy_w.o(.text)
    __rt_memcpy_w                            0x08006228   ARM Code     100  rt_memcpy_w.o(.text)
    _memcpy_lastbytes_aligned                0x08006274   ARM Code       0  rt_memcpy_w.o(.text)
    __aeabi_memmove4                         0x0800628c   ARM Code       0  rt_memmove_w.o(.text)
    __aeabi_memmove8                         0x0800628c   ARM Code       0  rt_memmove_w.o(.text)
    __rt_memmove_w                           0x0800628c   ARM Code     128  rt_memmove_w.o(.text)
    __memmove_aligned                        0x080062b8   ARM Code       0  rt_memmove_w.o(.text)
    __memmove_lastfew_aligned                0x080062f4   ARM Code       0  rt_memmove_w.o(.text)
    memset                                   0x0800630d   Thumb Code    22  memset.o(.text)
    __aeabi_memset                           0x08006323   Thumb Code    16  aeabi_memset.o(.text)
    __aeabi_memclr                           0x08006333   Thumb Code     0  rt_memclr.o(.text)
    __rt_memclr                              0x08006333   Thumb Code    68  rt_memclr.o(.text)
    _memset                                  0x08006337   Thumb Code     0  rt_memclr.o(.text)
    __aeabi_memclr4                          0x08006377   Thumb Code     0  rt_memclr_w.o(.text)
    __aeabi_memclr8                          0x08006377   Thumb Code     0  rt_memclr_w.o(.text)
    __rt_memclr_w                            0x08006377   Thumb Code    78  rt_memclr_w.o(.text)
    _memset_w                                0x0800637b   Thumb Code     0  rt_memclr_w.o(.text)
    strcmp                                   0x080063c4   ARM Code     156  strcmp.o(.text)
    __aeabi_uread4                           0x08006465   Thumb Code     0  uread4.o(.text)
    __rt_uread4                              0x08006465   Thumb Code    22  uread4.o(.text)
    __aeabi_uwrite4                          0x0800647b   Thumb Code     0  uwrite4.o(.text)
    __rt_uwrite4                             0x0800647b   Thumb Code    22  uwrite4.o(.text)
    _sys_exit                                0x08006491   Thumb Code     8  sys_exit.o(.text)
    __aeabi_ldiv0                            0x0800649d   Thumb Code     4  aeabi_ldiv0_sigfpe.o(.text)
    _printf_int_common                       0x080064a1   Thumb Code   184  _printf_intcommon.o(.text)
    _printf_char_common                      0x08006563   Thumb Code    32  _printf_char_common.o(.text)
    _sputc                                   0x08006589   Thumb Code    10  _sputc.o(.text)
    _snputc                                  0x08006593   Thumb Code    16  _snputc.o(.text)
    _printf_cs_common                        0x080065a3   Thumb Code    20  _printf_char.o(.text)
    _printf_char                             0x080065b7   Thumb Code    16  _printf_char.o(.text)
    _printf_string                           0x080065c7   Thumb Code     8  _printf_char.o(.text)
    __rt_SIGABRT                             0x080065cf   Thumb Code     8  defsig_abrt_formal.o(.text)
    __rt_udiv10                              0x080065d8   ARM Code      44  rtudiv10.o(.text)
    __I$use$semihosting                      0x08006605   Thumb Code     0  use_no_semi.o(.text)
    __use_no_semihosting_swi                 0x08006605   Thumb Code     2  use_no_semi.o(.text)
    __rt_div0                                0x08006607   Thumb Code    10  rt_div0.o(.text)
    __semihosting_library_function           0x08006607   Thumb Code     0  indicate_semi.o(.text)
    __rt_SIGFPE                              0x08006611   Thumb Code     8  defsig_fpe_formal.o(.text)
    apt_jump                                 0x08006618   ARM Code       0  boot_apt_test_asm.o(APT_ASM)
    apt_execute                              0x0800661c   ARM Code       0  boot_apt_test_asm.o(APT_ASM)
    apt_get_PTptr                            0x08006624   ARM Code       0  boot_apt_test_asm.o(APT_ASM)
    Inline Thumb to ARM Veneer to mmu_invalidate_tlb 0x0800662d   Thumb Code     4  boot_armv7_mmu.o(ARM_MMU)
    mmu_invalidate_tlb                       0x08006630   ARM Code       0  boot_armv7_mmu.o(ARM_MMU)
    mmu_invalidate_instruction_cache         0x0800664c   ARM Code       0  boot_armv7_mmu.o(ARM_MMU)
    mmu_invalidate_data_cache                0x08006668   ARM Code       0  boot_armv7_mmu.o(ARM_MMU)
    mmu_enable_instruction_cache             0x08006698   ARM Code       0  boot_armv7_mmu.o(ARM_MMU)
    cache_mmu_disable                        0x080066bc   ARM Code       0  boot_armv7_mmu.o(ARM_MMU)
    memory_barrier                           0x080066ec   ARM Code       0  boot_armv7_mmu.o(ARM_MMU)
    cache_set_memory_barrier_location        0x080066f4   ARM Code       0  boot_armv7_mmu.o(ARM_MMU)
    dcache_clean_all                         0x08006700   ARM Code       0  boot_armv7_mmu.o(ARM_MMU)
    dcache_flush_region                      0x08006794   ARM Code       0  boot_armv7_mmu.o(ARM_MMU)
    dcache_inval_region                      0x080067fc   ARM Code       0  boot_armv7_mmu.o(ARM_MMU)
    dcache_clean_region                      0x08006878   ARM Code       0  boot_armv7_mmu.o(ARM_MMU)
    mmu_flush_cache                          0x080068e0   ARM Code       0  boot_armv7_mmu.o(ARM_MMU)
    mmu_flush_cache_and_disable              0x08006904   ARM Code       0  boot_armv7_mmu.o(ARM_MMU)
    mmu_relocate_page_table_base             0x0800699c   ARM Code       0  boot_armv7_mmu.o(ARM_MMU)
    mmu_get_page_table_base                  0x080069dc   ARM Code       0  boot_armv7_mmu.o(ARM_MMU)
    mmu_set_dacr                             0x080069f0   ARM Code       0  boot_armv7_mmu.o(ARM_MMU)
    Inline Thumb to ARM Veneer to qmemset    0x08006a05   Thumb Code     4  boot_util_asm.o(BOOT_UTIL_ASM)
    qmemset                                  0x08006a08   ARM Code       0  boot_util_asm.o(BOOT_UTIL_ASM)
    flash_hal_asm_memcpy                     0x08006b04   ARM Code       0  flash_hal_util_asm.o(FLASH_UTIL_ASM)
    __main                                   0x08006b60   ARM Code       0  sbl1.o(SBL1_ENTRY)
    _main                                    0x08006b60   ARM Code       0  sbl1.o(SBL1_ENTRY)
    sbl_save_regs                            0x08006bb4   ARM Code       0  sbl1.o(SBL1_ENTRY)
    sbl_memcpy                               0x08006ca4   ARM Code       0  sbl1.o(SBL1_ENTRY)
    sbl_loop_here                            0x08006d28   ARM Code       0  sbl1.o(SBL1_ENTRY)
    boot_read_l2esr                          0x08006da4   ARM Code       0  sbl1.o(SBL1_ENTRY)
    sbl1_external_abort_enable               0x08006dc0   ARM Code      20  sbl1.o(SBL1_ENTRY)
    tzbsp_memzi                              0x08006e00   ARM Code     128  seccfg_memzi.o(TZBSP_MEMZI)
    Long ARM to Thumb Veneer to HAL_bimc_Init 0x08006e88   ARM Code       8  anon$$obj.o(Veneer$$Code)
    Short Thumb to ARM Veneer to memory_barrier 0x08006e91   Thumb Code     8  anon$$obj.o(Veneer$$Code)
    Short Thumb to ARM Veneer to cache_set_memory_barrier_location 0x08006e99   Thumb Code     8  anon$$obj.o(Veneer$$Code)
    Long Thumb to Thumb Veneer to boot_hw_powerdown 0x08006ea1   Thumb Code    10  anon$$obj.o(Veneer$$Code)
    Short Thumb to ARM Veneer to sbl_memcpy  0x08006ead   Thumb Code     8  anon$$obj.o(Veneer$$Code)
    Long Thumb to Thumb Veneer to boot_hw_reset 0x08006eb5   Thumb Code    10  anon$$obj.o(Veneer$$Code)
    Short Thumb to ARM Veneer to sbl_loop_here 0x08006ec1   Thumb Code     8  anon$$obj.o(Veneer$$Code)
    Long ARM to Thumb Veneer to ddr_get_size 0x08006ec8   ARM Code       8  anon$$obj.o(Veneer$$Code)
    Long ARM to Thumb Veneer to ddr_enter_deep_power_down 0x08006ed0   ARM Code       8  anon$$obj.o(Veneer$$Code)
    Long ARM to Thumb Veneer to ddr_exit_deep_power_down 0x08006ed8   ARM Code       8  anon$$obj.o(Veneer$$Code)
    Long ARM to Thumb Veneer to ddr_enter_self_refresh 0x08006ee0   ARM Code       8  anon$$obj.o(Veneer$$Code)
    Long ARM to Thumb Veneer to ddr_exit_self_refresh 0x08006ee8   ARM Code       8  anon$$obj.o(Veneer$$Code)
    Long ARM to Thumb Veneer to HAL_bimc_GetSlaveSegment 0x08006ef0   ARM Code       8  anon$$obj.o(Veneer$$Code)
    Long ARM to Thumb Veneer to HAL_bimc_SetSlaveSegment 0x08006ef8   ARM Code       8  anon$$obj.o(Veneer$$Code)
    Long ARM to Thumb Veneer to boot_switch_to_aarch64 0x08006f00   ARM Code       8  anon$$obj.o(Veneer$$Code)
    Long ARM to Thumb Veneer to boot_ddr_initialize_device 0x08006f08   ARM Code       8  anon$$obj.o(Veneer$$Code)
    Long ARM to Thumb Veneer to boot_ddr_get_info 0x08006f10   ARM Code       8  anon$$obj.o(Veneer$$Code)
    Long ARM to Thumb Veneer to boot_ddr_params_is_training_required 0x08006f18   ARM Code       8  anon$$obj.o(Veneer$$Code)
    Long ARM to Thumb Veneer to boot_ddr_do_ddr_training 0x08006f20   ARM Code       8  anon$$obj.o(Veneer$$Code)
    Long ARM to Thumb Veneer to boot_ddr_test 0x08006f28   ARM Code       8  anon$$obj.o(Veneer$$Code)
    Long ARM to Thumb Veneer to boot_ddr_set_params 0x08006f30   ARM Code       8  anon$$obj.o(Veneer$$Code)
    Long ARM to Thumb Veneer to boot_ddr_params_get_training_data 0x08006f38   ARM Code       8  anon$$obj.o(Veneer$$Code)
    Long ARM to Thumb Veneer to boot_ddr_params_set_training_data 0x08006f40   ARM Code       8  anon$$obj.o(Veneer$$Code)
    Long ARM to Thumb Veneer to boot_ddr_get_size 0x08006f48   ARM Code       8  anon$$obj.o(Veneer$$Code)
    Long ARM to Thumb Veneer to boot_ddr_get_partition 0x08006f50   ARM Code       8  anon$$obj.o(Veneer$$Code)
    Long ARM to Thumb Veneer to boot_ddr_post_init 0x08006f58   ARM Code       8  anon$$obj.o(Veneer$$Code)
    Short Thumb to ARM Veneer to mmu_flush_cache 0x08006f61   Thumb Code     8  anon$$obj.o(Veneer$$Code)
    AdcBoot_GetChannel                       0x08006f69   Thumb Code    72  AdcBoot.o(i.AdcBoot_GetChannel)
    AdcBoot_Init                             0x08006fb5   Thumb Code   240  AdcBoot.o(i.AdcBoot_Init)
    AdcBoot_Read                             0x080070ed   Thumb Code   136  AdcBoot.o(i.AdcBoot_Read)
    AdcMapLinearInt32toInt32                 0x08007179   Thumb Code   138  AdcScalingUtil.o(i.AdcMapLinearInt32toInt32)
    BootTempCheck                            0x08007205   Thumb Code   104  BootTempCheck.o(i.BootTempCheck)
    CeCLIOCtlCipherRegXfer                   0x08007295   Thumb Code   176  CeCL.o(i.CeCLIOCtlCipherRegXfer)
    CeCLIOCtlGetCipherCntx                   0x08007349   Thumb Code    64  CeCL.o(i.CeCLIOCtlGetCipherCntx)
    CeCLIOCtlGetHashCntx                     0x0800738d   Thumb Code   106  CeCL.o(i.CeCLIOCtlGetHashCntx)
    CeCLIOCtlHashRegXfer                     0x080073fd   Thumb Code   244  CeCL.o(i.CeCLIOCtlHashRegXfer)
    CeCLIOCtlSetCipherCntx                   0x080074f9   Thumb Code   298  CeCL.o(i.CeCLIOCtlSetCipherCntx)
    CeCLIOCtlSetHashCntx                     0x08007631   Thumb Code   238  CeCL.o(i.CeCLIOCtlSetHashCntx)
    CeClClockDisable                         0x08007725   Thumb Code     4  CeCL_Ce0.o(i.CeClClockDisable)
    CeClClockEnable                          0x08007729   Thumb Code     4  CeCL_Ce0.o(i.CeClClockEnable)
    CeClIOCtlCipher                          0x0800772d   Thumb Code    98  CeCL.o(i.CeClIOCtlCipher)
    CeClIOCtlHash                            0x0800778f   Thumb Code    98  CeCL.o(i.CeClIOCtlHash)
    CeClInit                                 0x080077f1   Thumb Code    46  CeCL.o(i.CeClInit)
    CeELCipherRegXfer                        0x08007825   Thumb Code    40  CeEL_Reg.o(i.CeELCipherRegXfer)
    CeELHashRegXfer                          0x0800784d   Thumb Code    34  CeEL_Reg.o(i.CeELHashRegXfer)
    CeElBamXferFunction                      0x0800786f   Thumb Code     4  CeEL.o(i.CeElBamXferFunction)
    CeElDisableClock                         0x08007873   Thumb Code     4  CeEL.o(i.CeElDisableClock)
    CeElEnableClock                          0x08007877   Thumb Code     4  CeEL.o(i.CeElEnableClock)
    CeElGetXferModeList                      0x0800787b   Thumb Code     8  CeEL.o(i.CeElGetXferModeList)
    CeElGetXferfunction                      0x08007885   Thumb Code    22  CeEL.o(i.CeElGetXferfunction)
    CeElInit                                 0x080078a5   Thumb Code     4  CeEL.o(i.CeElInit)
    CeElMemcpy                               0x080078a9   Thumb Code    10  CeEL.o(i.CeElMemcpy)
    CeElMemoryBarrier                        0x080078b3   Thumb Code    10  CeEL.o(i.CeElMemoryBarrier)
    CeElMemset                               0x080078bd   Thumb Code    16  CeEL.o(i.CeElMemset)
    CeElRegXferFunction                      0x080078cd   Thumb Code   128  CeEL.o(i.CeElRegXferFunction)
    CeElfree                                 0x0800794d   Thumb Code    10  CeEL.o(i.CeElfree)
    CeElfree_Env                             0x08007959   Thumb Code    32  CeEL_Env.o(i.CeElfree_Env)
    CeElmalloc                               0x0800797d   Thumb Code    10  CeEL.o(i.CeElmalloc)
    CeElmalloc_Env                           0x08007989   Thumb Code    72  CeEL_Env.o(i.CeElmalloc_Env)
    CeMLDeInit                               0x080079d9   Thumb Code     4  CeML.o(i.CeMLDeInit)
    CeMLHashAtomic                           0x080079dd   Thumb Code   204  CeML.o(i.CeMLHashAtomic)
    CeMLHashDeInit                           0x08007aad   Thumb Code    42  CeML.o(i.CeMLHashDeInit)
    CeMLHashFinal                            0x08007ad9   Thumb Code   328  CeML.o(i.CeMLHashFinal)
    CeMLHashInit                             0x08007c29   Thumb Code   324  CeML.o(i.CeMLHashInit)
    CeMLHashUpdate                           0x08007d9d   Thumb Code   732  CeML.o(i.CeMLHashUpdate)
    CeMLInit                                 0x08008089   Thumb Code    48  CeML.o(i.CeMLInit)
    CeMlHashUpdate                           0x080080bd   Thumb Code   248  CeML.o(i.CeMlHashUpdate)
    ChipInfo_Close                           0x080081b5   Thumb Code     4  DalChipInfo.o(i.ChipInfo_Close)
    ChipInfo_DalChipInfo_Attach              0x080081b9   Thumb Code    48  DalChipInfoFwk.o(i.ChipInfo_DalChipInfo_Attach)
    ChipInfo_DeviceDeInit                    0x0800827b   Thumb Code     4  DalChipInfo.o(i.ChipInfo_DeviceDeInit)
    ChipInfo_DeviceInit                      0x0800827f   Thumb Code     4  DalChipInfo.o(i.ChipInfo_DeviceInit)
    ChipInfo_DriverDeInit                    0x08008283   Thumb Code    22  DalChipInfoLocal.o(i.ChipInfo_DriverDeInit)
    ChipInfo_DriverInit                      0x08008299   Thumb Code   410  DalChipInfoLocal.o(i.ChipInfo_DriverInit)
    ChipInfo_GetChipFamily                   0x080084e1   Thumb Code    12  DalChipInfo.o(i.ChipInfo_GetChipFamily)
    ChipInfo_GetChipId                       0x080084ed   Thumb Code    12  DalChipInfo.o(i.ChipInfo_GetChipId)
    ChipInfo_GetChipIdString                 0x080084f9   Thumb Code    20  DalChipInfo.o(i.ChipInfo_GetChipIdString)
    ChipInfo_GetChipVersion                  0x0800850d   Thumb Code    12  DalChipInfo.o(i.ChipInfo_GetChipVersion)
    ChipInfo_GetFamily                       0x08008519   Thumb Code    68  DalChipInfoLocal.o(i.ChipInfo_GetFamily)
    ChipInfo_GetFamilyByPart                 0x08008565   Thumb Code    62  DalChipInfoLocal.o(i.ChipInfo_GetFamilyByPart)
    ChipInfo_GetFoundry                      0x080085ad   Thumb Code    56  DalChipInfoLocal.o(i.ChipInfo_GetFoundry)
    ChipInfo_GetFoundryId                    0x08008605   Thumb Code    12  DalChipInfo.o(i.ChipInfo_GetFoundryId)
    ChipInfo_GetModemSupport                 0x08008611   Thumb Code    14  DalChipInfo.o(i.ChipInfo_GetModemSupport)
    ChipInfo_GetPart                         0x08008621   Thumb Code    50  DalChipInfoLocal.o(i.ChipInfo_GetPart)
    ChipInfo_GetRawChipId                    0x08008659   Thumb Code    14  DalChipInfo.o(i.ChipInfo_GetRawChipId)
    ChipInfo_GetRawChipVersion               0x08008667   Thumb Code    14  DalChipInfo.o(i.ChipInfo_GetRawChipVersion)
    ChipInfo_GetRawPart                      0x08008675   Thumb Code    44  DalChipInfoLocal.o(i.ChipInfo_GetRawPart)
    ChipInfo_GetRawVersion                   0x080086c1   Thumb Code    44  DalChipInfoLocal.o(i.ChipInfo_GetRawVersion)
    ChipInfo_GetSerialNumber                 0x0800870d   Thumb Code    14  DalChipInfo.o(i.ChipInfo_GetSerialNumber)
    ChipInfo_GetVersion                      0x0800871d   Thumb Code    92  DalChipInfoLocal.o(i.ChipInfo_GetVersion)
    ChipInfo_Info                            0x080087c9   Thumb Code     4  DalChipInfo.o(i.ChipInfo_Info)
    ChipInfo_Open                            0x080087cd   Thumb Code     4  DalChipInfo.o(i.ChipInfo_Open)
    ChipInfo_PowerEvent                      0x080087d1   Thumb Code     4  DalChipInfo.o(i.ChipInfo_PowerEvent)
    Clock_BIMCConfigFSM                      0x080087d5   Thumb Code    18  ClockSBL.o(i.Clock_BIMCConfigFSM)
    Clock_ConfigMux                          0x080087f5   Thumb Code   132  ClockSBLCommon.o(i.Clock_ConfigMux)
    Clock_ConfigurePLL                       0x08008879   Thumb Code   228  ClockSBLCommon.o(i.Clock_ConfigurePLL)
    Clock_ConfigureSource                    0x08008965   Thumb Code   176  ClockSBLConfig.o(i.Clock_ConfigureSource)
    Clock_DDRSpeed                           0x08008a2d   Thumb Code     6  ClockSBL.o(i.Clock_DDRSpeed)
    Clock_DebugInit                          0x08008a39   Thumb Code    36  ClockSBL.o(i.Clock_DebugInit)
    Clock_DisableI2CClock                    0x08008a6d   Thumb Code    28  ClockSBL.o(i.Clock_DisableI2CClock)
    Clock_DisableUARTClock                   0x08008a8d   Thumb Code    32  ClockSBL.o(i.Clock_DisableUARTClock)
    Clock_DisableUSB                         0x08008ab5   Thumb Code    70  ClockTools.o(i.Clock_DisableUSB)
    Clock_EnablePLL                          0x08008b05   Thumb Code   206  ClockSBLCommon.o(i.Clock_EnablePLL)
    Clock_EnableSource                       0x08008bd5   Thumb Code   144  ClockSBLConfig.o(i.Clock_EnableSource)
    Clock_ExitBoot                           0x08008c79   Thumb Code    58  ClockSBL.o(i.Clock_ExitBoot)
    Clock_ExtBuckGPIOMisc                    0x08008cc1   Thumb Code    56  ClockTLMMSpare.o(i.Clock_ExtBuckGPIOMisc)
    Clock_GetChipId                          0x08008d05   Thumb Code    68  ClockTLMMSpare.o(i.Clock_GetChipId)
    Clock_I2CInit                            0x08008d51   Thumb Code     4  ClockSBL.o(i.Clock_I2CInit)
    Clock_Init                               0x08008d55   Thumb Code   142  ClockSBL.o(i.Clock_Init)
    Clock_InitCrypto                         0x08008df1   Thumb Code    68  ClockSBL.o(i.Clock_InitCrypto)
    Clock_InitForDownloadMode                0x08008e3d   Thumb Code    80  ClockSBL.o(i.Clock_InitForDownloadMode)
    Clock_InitUSB                            0x08008ea9   Thumb Code    72  ClockTools.o(i.Clock_InitUSB)
    Clock_InitVotes                          0x08008ef5   Thumb Code    42  ClockSBL.o(i.Clock_InitVotes)
    Clock_PreDDRInit                         0x08008f39   Thumb Code     4  ClockSBL.o(i.Clock_PreDDRInit)
    Clock_PreDDRInitEx                       0x08008f3d   Thumb Code   302  ClockSBL.o(i.Clock_PreDDRInitEx)
    Clock_QPICConfig                         0x0800908d   Thumb Code    24  ClockSBL.o(i.Clock_QPICConfig)
    Clock_ReplaceUSBBootClockEnable          0x080090a9   Thumb Code    48  ClockSBL.o(i.Clock_ReplaceUSBBootClockEnable)
    Clock_SBLConfig                          0x080090e5   Thumb Code     4  ClockSBLConfig.o(i.Clock_SBLConfig)
    Clock_SetCPUPerfLevel                    0x080090ed   Thumb Code   110  ClockSBLCPU.o(i.Clock_SetCPUPerfLevel)
    Clock_SetI2CClockFrequency               0x08009165   Thumb Code   114  ClockSBL.o(i.Clock_SetI2CClockFrequency)
    Clock_SetL2PerfLevel                     0x080091e5   Thumb Code     4  ClockSBLCPU.o(i.Clock_SetL2PerfLevel)
    Clock_SetSysPerfLevel                    0x080091e9   Thumb Code    78  ClockSBL.o(i.Clock_SetSysPerfLevel)
    Clock_SetUARTClockFrequency              0x08009239   Thumb Code   134  ClockSBL.o(i.Clock_SetUARTClockFrequency)
    Clock_SourceMapToAPCS                    0x080092d1   Thumb Code    26  ClockSBLConfig.o(i.Clock_SourceMapToAPCS)
    Clock_SourceMapToGCC                     0x080092eb   Thumb Code    24  ClockSBLConfig.o(i.Clock_SourceMapToGCC)
    Clock_SourceMapToMux                     0x08009305   Thumb Code    24  ClockSBLConfig.o(i.Clock_SourceMapToMux)
    Clock_ToggleClock                        0x08009321   Thumb Code    38  ClockSBLCommon.o(i.Clock_ToggleClock)
    Clock_TriggerUpdate                      0x08009347   Thumb Code    52  ClockSBLCommon.o(i.Clock_TriggerUpdate)
    DALFW_AddRef                             0x0800937b   Thumb Code    28  dalfwkbase.o(i.DALFW_AddRef)
    DALFW_AllocPhysForMemDescBufs            0x08009399   Thumb Code   126  DALMemDesc.o(i.DALFW_AllocPhysForMemDescBufs)
    DALFW_AttachToDevice                     0x0800941d   Thumb Code   128  dalfwkbase.o(i.DALFW_AttachToDevice)
    DALFW_AttachToStringDevice               0x0800949d   Thumb Code   164  dalfwkbase.o(i.DALFW_AttachToStringDevice)
    DALFW_MemDescBufPtr                      0x08009591   Thumb Code    20  DALMemDesc.o(i.DALFW_MemDescBufPtr)
    DALFW_MemDescInit                        0x080095a5   Thumb Code    94  DALMemDesc.o(i.DALFW_MemDescInit)
    DALFW_MemDescListCopyBufs                0x08009609   Thumb Code   166  DALMemDesc.o(i.DALFW_MemDescListCopyBufs)
    DALFW_Release                            0x080096b9   Thumb Code    74  dalfwkbase.o(i.DALFW_Release)
    DALGLBCTXT_AllocCtxt                     0x08009705   Thumb Code   104  DALGlbCtxt.o(i.DALGLBCTXT_AllocCtxt)
    DALGLBCTXT_Init                          0x080097a1   Thumb Code   166  DALGlbCtxt.o(i.DALGLBCTXT_Init)
    DALSYS_BusyWait                          0x080098c7   Thumb Code     4  DALModEnv.o(i.DALSYS_BusyWait)
    DALSYS_CacheCommand                      0x080098cb   Thumb Code    52  DALModEnv.o(i.DALSYS_CacheCommand)
    DALSYS_DeInitMod                         0x080098ff   Thumb Code     2  DALModEnv.o(i.DALSYS_DeInitMod)
    DALSYS_DestroyObject                     0x08009901   Thumb Code     4  DALModEnv.o(i.DALSYS_DestroyObject)
    DALSYS_EventCreate                       0x08009905   Thumb Code    26  DALModEnv.o(i.DALSYS_EventCreate)
    DALSYS_EventMultipleWait                 0x0800991f   Thumb Code     6  DALModEnv.o(i.DALSYS_EventMultipleWait)
    DALSYS_Free                              0x08009925   Thumb Code    18  DALModEnv.o(i.DALSYS_Free)
    DALSYS_GetDALPropertyHandle              0x0800993d   Thumb Code     4  DALModEnv.o(i.DALSYS_GetDALPropertyHandle)
    DALSYS_GetDALPropertyHandleStr           0x08009941   Thumb Code    46  DALProps.o(i.DALSYS_GetDALPropertyHandleStr)
    DALSYS_GetPropDir                        0x08009975   Thumb Code     8  DALModEnv.o(i.DALSYS_GetPropDir)
    DALSYS_GetPropStructPtrArray             0x08009981   Thumb Code     6  DALModEnv.o(i.DALSYS_GetPropStructPtrArray)
    DALSYS_GetPropertyValue                  0x0800998d   Thumb Code     4  DALModEnv.o(i.DALSYS_GetPropertyValue)
    DALSYS_HeapInit                          0x08009991   Thumb Code    32  DALHeap.o(i.DALSYS_HeapInit)
    DALSYS_InitMod                           0x080099b5   Thumb Code     8  DALModEnv.o(i.DALSYS_InitMod)
    DALSYS_LogEvent                          0x080099c5   Thumb Code    10  DALModEnv.o(i.DALSYS_LogEvent)
    DALSYS_Malloc                            0x080099cf   Thumb Code    22  DALModEnv.o(i.DALSYS_Malloc)
    DALSYS_MemInfo                           0x080099e5   Thumb Code    40  DALModEnv.o(i.DALSYS_MemInfo)
    DALSYS_MemRegionAlloc                    0x08009a11   Thumb Code   130  DALModEnv.o(i.DALSYS_MemRegionAlloc)
    DALSYS_SyncCreate                        0x08009a95   Thumb Code    14  DALModEnv.o(i.DALSYS_SyncCreate)
    DALSYS_SyncEnter                         0x08009aa9   Thumb Code     2  DALModEnv.o(i.DALSYS_SyncEnter)
    DALSYS_SyncLeave                         0x08009aab   Thumb Code     2  DALModEnv.o(i.DALSYS_SyncLeave)
    DALTLMMState_Init                        0x08009aad   Thumb Code   240  DALTLMMState.o(i.DALTLMMState_Init)
    DALTLMMState_MacroToStruct               0x08009bcd   Thumb Code    26  DALTLMMState.o(i.DALTLMMState_MacroToStruct)
    DALTLMMState_StructToMacro               0x08009be7   Thumb Code    46  DALTLMMState.o(i.DALTLMMState_StructToMacro)
    DAL_DeviceAttach                         0x08009c15   Thumb Code    54  DALModEnv.o(i.DAL_DeviceAttach)
    DAL_DeviceAttachEx                       0x08009c4b   Thumb Code    68  DALModEnv.o(i.DAL_DeviceAttachEx)
    DAL_DeviceAttachLocal                    0x08009c91   Thumb Code    64  DALModEnv.o(i.DAL_DeviceAttachLocal)
    DAL_DeviceDetach                         0x08009cd5   Thumb Code    48  DALModEnv.o(i.DAL_DeviceDetach)
    DAL_StringDeviceAttachEx                 0x08009d05   Thumb Code    68  DALModEnv.o(i.DAL_StringDeviceAttachEx)
    DAL_StringDeviceAttachLocal              0x08009d49   Thumb Code    84  DALModEnv.o(i.DAL_StringDeviceAttachLocal)
    DAL_StringDeviceObjectLookup             0x08009da5   Thumb Code   216  DALProps.o(i.DAL_StringDeviceObjectLookup)
    HAL_tlmm_ConfigGpio                      0x0800a015   Thumb Code    82  HALtlmm.o(i.HAL_tlmm_ConfigGpio)
    HAL_tlmm_Init                            0x0800a06d   Thumb Code    16  HALtlmm.o(i.HAL_tlmm_Init)
    HAL_tlmm_SetPort                         0x0800a081   Thumb Code    22  HALtlmm.o(i.HAL_tlmm_SetPort)
    HAL_tlmm_WriteConfig                     0x0800a09d   Thumb Code    18  HALtlmm.o(i.HAL_tlmm_WriteConfig)
    HAL_tlmm_WriteGpio                       0x0800a0b5   Thumb Code    50  HALtlmm.o(i.HAL_tlmm_WriteGpio)
    HAL_tsens_CalSelect                      0x0800a0ed   Thumb Code    10  HALtsens.o(i.HAL_tsens_CalSelect)
    HAL_tsens_ConfigSensor                   0x0800a0fd   Thumb Code    30  HALtsens.o(i.HAL_tsens_ConfigSensor)
    HAL_tsens_DisableInterrupt               0x0800a11d   Thumb Code    80  HALtsens.o(i.HAL_tsens_DisableInterrupt)
    HAL_tsens_EnableInterrupt                0x0800a171   Thumb Code    64  HALtsens.o(i.HAL_tsens_EnableInterrupt)
    HAL_tsens_GetBaseX1                      0x0800a1b9   Thumb Code    14  HALtsens.o(i.HAL_tsens_GetBaseX1)
    HAL_tsens_GetBaseX2                      0x0800a1cd   Thumb Code    14  HALtsens.o(i.HAL_tsens_GetBaseX2)
    HAL_tsens_GetMaxCode                     0x0800a1e1   Thumb Code     6  HALtsens.o(i.HAL_tsens_GetMaxCode)
    HAL_tsens_GetPointX1                     0x0800a1e7   Thumb Code    82  HALtsens.o(i.HAL_tsens_GetPointX1)
    HAL_tsens_GetPointX2                     0x0800a239   Thumb Code    98  HALtsens.o(i.HAL_tsens_GetPointX2)
    HAL_tsens_GetSensorPrevTemp              0x0800a29d   Thumb Code    18  HALtsens.o(i.HAL_tsens_GetSensorPrevTemp)
    HAL_tsens_Init                           0x0800a2b5   Thumb Code    14  HALtsens.o(i.HAL_tsens_Init)
    HAL_tsens_Reset                          0x0800a2c5   Thumb Code    26  HALtsens.o(i.HAL_tsens_Reset)
    HAL_tsens_SelectADCClkSrc                0x0800a2e5   Thumb Code    34  HALtsens.o(i.HAL_tsens_SelectADCClkSrc)
    HAL_tsens_SetPeriod                      0x0800a30d   Thumb Code    20  HALtsens.o(i.HAL_tsens_SetPeriod)
    HAL_tsens_SetSensorsEnabled              0x0800a325   Thumb Code    28  HALtsens.o(i.HAL_tsens_SetSensorsEnabled)
    HAL_tsens_SetState                       0x0800a345   Thumb Code    34  HALtsens.o(i.HAL_tsens_SetState)
    HAL_tsens_SetThreshold                   0x0800a36d   Thumb Code    84  HALtsens.o(i.HAL_tsens_SetThreshold)
    HAL_tsens_TempMeasurementIsComplete      0x0800a3d1   Thumb Code    14  HALtsens.o(i.HAL_tsens_TempMeasurementIsComplete)
    HAL_tsens_UseRedundant                   0x0800a3e5   Thumb Code     4  HALtsens.o(i.HAL_tsens_UseRedundant)
    HALuart_DisableInterrupts                0x0800a3e9   Thumb Code    20  Uart_hal.o(i.HALuart_DisableInterrupts)
    HALuart_GetFifoSize                      0x0800a3fd   Thumb Code    14  Uart_hal.o(i.HALuart_GetFifoSize)
    HALuart_GetInterruptStatus               0x0800a40b   Thumb Code    10  Uart_hal.o(i.HALuart_GetInterruptStatus)
    HALuart_GetStatus                        0x0800a415   Thumb Code    10  Uart_hal.o(i.HALuart_GetStatus)
    HALuart_GetTxFifoSize                    0x0800a41f   Thumb Code     8  Uart_hal.o(i.HALuart_GetTxFifoSize)
    HALuart_ResetErrorStatus                 0x0800a427   Thumb Code     8  Uart_hal.o(i.HALuart_ResetErrorStatus)
    HALuart_ResetReceiver                    0x0800a42f   Thumb Code     8  Uart_hal.o(i.HALuart_ResetReceiver)
    HALuart_ResetTransmitter                 0x0800a437   Thumb Code     8  Uart_hal.o(i.HALuart_ResetTransmitter)
    HALuart_SetAutoInboundFlowCtl            0x0800a43f   Thumb Code    18  Uart_hal.o(i.HALuart_SetAutoInboundFlowCtl)
    HALuart_SetCharFormat                    0x0800a451   Thumb Code    22  Uart_hal.o(i.HALuart_SetCharFormat)
    HALuart_SetCmdSynchronization            0x0800a467   Thumb Code    18  Uart_hal.o(i.HALuart_SetCmdSynchronization)
    HALuart_SetDivider                       0x0800a479   Thumb Code     6  Uart_hal.o(i.HALuart_SetDivider)
    HALuart_SetDmaEnable                     0x0800a47f   Thumb Code    22  Uart_hal.o(i.HALuart_SetDmaEnable)
    HALuart_SetIrdaEnable                    0x0800a495   Thumb Code    26  Uart_hal.o(i.HALuart_SetIrdaEnable)
    HALuart_SetLoopback                      0x0800a4af   Thumb Code    22  Uart_hal.o(i.HALuart_SetLoopback)
    HALuart_SetOutboundFlowCtl               0x0800a4c5   Thumb Code    18  Uart_hal.o(i.HALuart_SetOutboundFlowCtl)
    HALuart_SetRxEnable                      0x0800a4d7   Thumb Code    14  Uart_hal.o(i.HALuart_SetRxEnable)
    HALuart_SetRxSCEnable                    0x0800a4e5   Thumb Code    22  Uart_hal.o(i.HALuart_SetRxSCEnable)
    HALuart_SetRxWatermark                   0x0800a4fb   Thumb Code    26  Uart_hal.o(i.HALuart_SetRxWatermark)
    HALuart_SetStaleEvent                    0x0800a515   Thumb Code    18  Uart_hal.o(i.HALuart_SetStaleEvent)
    HALuart_SetStaleTimeout                  0x0800a527   Thumb Code    26  Uart_hal.o(i.HALuart_SetStaleTimeout)
    HALuart_SetTxEnable                      0x0800a541   Thumb Code    14  Uart_hal.o(i.HALuart_SetTxEnable)
    HALuart_SetTxFifoSize                    0x0800a54f   Thumb Code     8  Uart_hal.o(i.HALuart_SetTxFifoSize)
    HALuart_SetTxSCEnable                    0x0800a557   Thumb Code    22  Uart_hal.o(i.HALuart_SetTxSCEnable)
    HALuart_SetTxWatermark                   0x0800a56d   Thumb Code    16  Uart_hal.o(i.HALuart_SetTxWatermark)
    HALuart_SetupDmaRx                       0x0800a57d   Thumb Code     4  Uart_hal.o(i.HALuart_SetupDmaRx)
    HALuart_WriteTxFifo                      0x0800a581   Thumb Code    70  Uart_hal.o(i.HALuart_WriteTxFifo)
    I2CDEVQUP_CalcTransferInOutSize          0x0800a5c7   Thumb Code    52  I2cDeviceQup.o(i.I2CDEVQUP_CalcTransferInOutSize)
    I2CDEVQUP_ConfigureQupIo                 0x0800a6f5   Thumb Code   346  I2cDeviceQup.o(i.I2CDEVQUP_ConfigureQupIo)
    I2CDEVQUP_ConfigureSequenceTransferIo    0x0800a855   Thumb Code   198  I2cDeviceQup.o(i.I2CDEVQUP_ConfigureSequenceTransferIo)
    I2CDEVQUP_InitInSeqInfo                  0x0800a92f   Thumb Code    22  I2cDeviceQup.o(i.I2CDEVQUP_InitInSeqInfo)
    I2CDEVQUP_InitOutSeqInfo                 0x0800a945   Thumb Code    22  I2cDeviceQup.o(i.I2CDEVQUP_InitOutSeqInfo)
    I2CDEVQUP_ProcesQupHwEvts                0x0800a97f   Thumb Code    64  I2cDeviceQup.o(i.I2CDEVQUP_ProcesQupHwEvts)
    I2CDEV_BatchTransfer                     0x0800ab99   Thumb Code   166  I2cDeviceQup.o(i.I2CDEV_BatchTransfer)
    I2CDEV_DeInit                            0x0800ac45   Thumb Code   150  I2cDeviceQup.o(i.I2CDEV_DeInit)
    I2CDEV_Init                              0x0800ace1   Thumb Code   260  I2cDeviceQup.o(i.I2CDEV_Init)
    I2CDEV_SetPowerState                     0x0800ade9   Thumb Code    30  I2cDeviceQup.o(i.I2CDEV_SetPowerState)
    I2CDEV_Write                             0x0800ae0d   Thumb Code    74  I2cDeviceQup.o(i.I2CDEV_Write)
    I2CPLATDEV_DeInitTarget                  0x0800ae5d   Thumb Code   106  I2cPlatSvc.o(i.I2CPLATDEV_DeInitTarget)
    I2CPLATDEV_InitTarget                    0x0800af51   Thumb Code    72  I2cPlatSvc.o(i.I2CPLATDEV_InitTarget)
    I2CPLATDEV_ReadPlatConfig                0x0800af99   Thumb Code   114  I2cPlatSvc.o(i.I2CPLATDEV_ReadPlatConfig)
    I2CPLATDEV_ReadProperties                0x0800b065   Thumb Code    16  I2cPlatSvc.o(i.I2CPLATDEV_ReadProperties)
    I2CPLATDEV_SetPowerState                 0x0800b075   Thumb Code    60  I2cPlatSvc.o(i.I2CPLATDEV_SetPowerState)
    I2CSYS_BusyWait                          0x0800b0b5   Thumb Code     4  I2cSys.o(i.I2CSYS_BusyWait)
    I2CSYS_ClearEvent                        0x0800b0b9   Thumb Code     4  I2cSys.o(i.I2CSYS_ClearEvent)
    I2CSYS_CloseHandle                       0x0800b0bd   Thumb Code    20  I2cSys.o(i.I2CSYS_CloseHandle)
    I2CSYS_CreateCriticalSection             0x0800b0d5   Thumb Code    54  I2cSys.o(i.I2CSYS_CreateCriticalSection)
    I2CSYS_CreateEvent                       0x0800b111   Thumb Code     4  I2cSys.o(i.I2CSYS_CreateEvent)
    I2CSYS_DestroyCriticalSection            0x0800b115   Thumb Code    34  I2cSys.o(i.I2CSYS_DestroyCriticalSection)
    I2CSYS_EnterCriticalSection              0x0800b13d   Thumb Code    12  I2cSys.o(i.I2CSYS_EnterCriticalSection)
    I2CSYS_Free                              0x0800b149   Thumb Code    14  I2cSys.o(i.I2CSYS_Free)
    I2CSYS_LeaveCriticalSection              0x0800b15d   Thumb Code    12  I2cSys.o(i.I2CSYS_LeaveCriticalSection)
    I2CSYS_Malloc                            0x0800b169   Thumb Code    28  I2cSys.o(i.I2CSYS_Malloc)
    I2CSYS_Memset                            0x0800b189   Thumb Code    16  I2cSys.o(i.I2CSYS_Memset)
    I2CSYS_RegisterISTHooks                  0x0800b199   Thumb Code     4  I2cPlatSvc.o(i.I2CSYS_RegisterISTHooks)
    I2CSYS_SetEvent                          0x0800b19d   Thumb Code     4  I2cSys.o(i.I2CSYS_SetEvent)
    I2CSYS_UnRegisterISTHooks                0x0800b1a1   Thumb Code     4  I2cPlatSvc.o(i.I2CSYS_UnRegisterISTHooks)
    I2CSYS_Wait                              0x0800b1a5   Thumb Code     4  I2cSys.o(i.I2CSYS_Wait)
    I2C_DalI2C_Attach                        0x0800b1a9   Thumb Code     4  I2cDriverDalInfo.o(i.I2C_DalI2C_Attach)
    ICB_Config_Init                          0x0800b1ad   Thumb Code   150  icbcfg.o(i.ICB_Config_Init)
    ICB_Get_Memmap                           0x0800b337   Thumb Code    50  icbcfg.o(i.ICB_Get_Memmap)
    ICB_Segments_Init                        0x0800b369   Thumb Code    78  icbcfg.o(i.ICB_Segments_Init)
    IsExternalMemReady                       0x0800b411   Thumb Code    12  DALHeap.o(i.IsExternalMemReady)
    PlatformInfo_CDTConfigPostDDR            0x0800b421   Thumb Code    94  PlatformInfo.o(i.PlatformInfo_CDTConfigPostDDR)
    PlatformInfo_CDTConfigPreDDR             0x0800b495   Thumb Code    26  PlatformInfo.o(i.PlatformInfo_CDTConfigPreDDR)
    PlatformInfo_DeviceAttach                0x0800b56d   Thumb Code    48  PlatformInfoFwk.o(i.PlatformInfo_DeviceAttach)
    PlatformInfo_DriverInit                  0x0800b5d9   Thumb Code     4  PlatformInfo.o(i.PlatformInfo_DriverInit)
    PlatformInfo_GetKeyValue                 0x0800b5dd   Thumb Code    52  PlatformInfo.o(i.PlatformInfo_GetKeyValue)
    PlatformInfo_GetPlatform                 0x0800b611   Thumb Code    16  PlatformInfo.o(i.PlatformInfo_GetPlatform)
    PlatformInfo_GetPlatformInfo             0x0800b621   Thumb Code    28  PlatformInfo.o(i.PlatformInfo_GetPlatformInfo)
    PmicArb_AddCacheEntry                    0x0800b7ed   Thumb Code   266  PmicArb.o(i.PmicArb_AddCacheEntry)
    PmicArb_ConfigHW                         0x0800b901   Thumb Code     4  PmicArb.o(i.PmicArb_ConfigHW)
    PmicArb_ExecuteCommand                   0x0800b905   Thumb Code   406  PmicArb.o(i.PmicArb_ExecuteCommand)
    PmicArb_FindChannel                      0x0800baa5   Thumb Code    58  PmicArb.o(i.PmicArb_FindChannel)
    PmicArb_GetHwStatus                      0x0800bae9   Thumb Code    32  PmicArb.o(i.PmicArb_GetHwStatus)
    PmicArb_GetMaxChannelSupport             0x0800bb0d   Thumb Code     4  PmicArb.o(i.PmicArb_GetMaxChannelSupport)
    PmicArb_HasInterruptSupport              0x0800bb11   Thumb Code     6  PmicArb.o(i.PmicArb_HasInterruptSupport)
    PmicArb_Init                             0x0800bb1d   Thumb Code    50  PmicArb.o(i.PmicArb_Init)
    PmicArb_InvalidateCache                  0x0800bb59   Thumb Code    64  PmicArb.o(i.PmicArb_InvalidateCache)
    PmicArb_UpdateCache                      0x0800bba1   Thumb Code    46  PmicArb.o(i.PmicArb_UpdateCache)
    PrngCL_getdata                           0x0800bbd5   Thumb Code   118  PrngCL.o(i.PrngCL_getdata)
    PrngCL_lite_deinit                       0x0800bc4b   Thumb Code     4  PrngCL.o(i.PrngCL_lite_deinit)
    PrngCL_lite_init                         0x0800bc51   Thumb Code    20  PrngCL.o(i.PrngCL_lite_init)
    PrngEL_ClkDisable                        0x0800bc69   Thumb Code     4  PrngEL.o(i.PrngEL_ClkDisable)
    PrngEL_ClkEnable                         0x0800bc6d   Thumb Code     4  PrngEL.o(i.PrngEL_ClkEnable)
    PrngML_getdata_lite                      0x0800bc71   Thumb Code    38  PrngML.o(i.PrngML_getdata_lite)
    SpmiBus_DeInit                           0x0800c2f9   Thumb Code    58  SpmiBus.o(i.SpmiBus_DeInit)
    SpmiBus_Init                             0x0800c339   Thumb Code    62  SpmiBus.o(i.SpmiBus_Init)
    SpmiBus_ReadLong                         0x0800c381   Thumb Code    22  SpmiBus.o(i.SpmiBus_ReadLong)
    SpmiBus_WriteLong                        0x0800c397   Thumb Code    26  SpmiBus.o(i.SpmiBus_WriteLong)
    SpmiCfg_ConfigureChannel                 0x0800c3b1   Thumb Code    86  SpmiCfg.o(i.SpmiCfg_ConfigureChannel)
    SpmiCfg_ConfigureChannels                0x0800c411   Thumb Code    20  SpmiCfg.o(i.SpmiCfg_ConfigureChannels)
    SpmiCfg_InDynamicChannelMode             0x0800c425   Thumb Code     6  SpmiCfg.o(i.SpmiCfg_InDynamicChannelMode)
    SpmiCfg_Init                             0x0800c431   Thumb Code    50  SpmiCfg.o(i.SpmiCfg_Init)
    SpmiHal_Init                             0x0800c469   Thumb Code    16  SpmiHal.o(i.SpmiHal_Init)
    SpmiMaster_ConfigHW                      0x0800c47d   Thumb Code    68  SpmiMaster.o(i.SpmiMaster_ConfigHW)
    SpmiMaster_LoadFirmware                  0x0800c60d   Thumb Code   168  GeniImage.o(i.SpmiMaster_LoadFirmware)
    SpmiMaster_LoadRadixTree                 0x0800c6f5   Thumb Code   102  SpmiRadixTree.o(i.SpmiMaster_LoadRadixTree)
    SpmiOsNhlos_GetDalProp                   0x0800c79d   Thumb Code    68  SpmiOs.o(i.SpmiOsNhlos_GetDalProp)
    SpmiOs_Free                              0x0800c831   Thumb Code     4  SpmiOsImage.o(i.SpmiOs_Free)
    SpmiOs_GetAhbClkState                    0x0800c835   Thumb Code    34  SpmiOsImage.o(i.SpmiOs_GetAhbClkState)
    SpmiOs_GetOwnerId                        0x0800c85d   Thumb Code    22  SpmiOs.o(i.SpmiOs_GetOwnerId)
    SpmiOs_GetPmicArbBaseAddr                0x0800c87d   Thumb Code    96  SpmiOs.o(i.SpmiOs_GetPmicArbBaseAddr)
    SpmiOs_GetSerialClkState                 0x0800c901   Thumb Code    34  SpmiOsImage.o(i.SpmiOs_GetSerialClkState)
    SpmiOs_GetTimeTick                       0x0800c929   Thumb Code     6  SpmiOsImage.o(i.SpmiOs_GetTimeTick)
    SpmiOs_HandleTransactionError            0x0800c92f   Thumb Code    72  SpmiOsImage.o(i.SpmiOs_HandleTransactionError)
    SpmiOs_Malloc                            0x0800c977   Thumb Code     4  SpmiOsImage.o(i.SpmiOs_Malloc)
    SpmiOs_RegisterISR                       0x0800c97b   Thumb Code     4  SpmiOsImage.o(i.SpmiOs_RegisterISR)
    SpmiOs_Wait                              0x0800c97f   Thumb Code     4  SpmiOs.o(i.SpmiOs_Wait)
    System_DalSystem_Attach                  0x0800c983   Thumb Code     8  DALModEnv.o(i.System_DalSystem_Attach)
    TLMM_Close                               0x0800c98b   Thumb Code     4  DALTLMM.o(i.TLMM_Close)
    TLMM_ConfigGpio                          0x0800c98f   Thumb Code    14  DALTLMM.o(i.TLMM_ConfigGpio)
    TLMM_ConfigGpioGroup                     0x0800c99d   Thumb Code   198  DALTLMM.o(i.TLMM_ConfigGpioGroup)
    TLMM_DalTlmm_Attach                      0x0800ca6d   Thumb Code    48  DALTLMMFwk.o(i.TLMM_DalTlmm_Attach)
    TLMM_DeviceDeInit                        0x0800cb21   Thumb Code    22  DALTLMM.o(i.TLMM_DeviceDeInit)
    TLMM_DeviceInit                          0x0800cb39   Thumb Code   306  DALTLMM.o(i.TLMM_DeviceInit)
    TLMM_DriverDeInit                        0x0800ccfd   Thumb Code     4  DALTLMM.o(i.TLMM_DriverDeInit)
    TLMM_DriverInit                          0x0800cd01   Thumb Code     4  DALTLMM.o(i.TLMM_DriverInit)
    TLMM_GpioOut                             0x0800cd05   Thumb Code    14  DALTLMM.o(i.TLMM_GpioOut)
    TLMM_Info                                0x0800cd13   Thumb Code     4  DALTLMM.o(i.TLMM_Info)
    TLMM_Open                                0x0800cd17   Thumb Code     4  DALTLMM.o(i.TLMM_Open)
    TLMM_PostInit                            0x0800cd1d   Thumb Code    68  DALTLMM.o(i.TLMM_PostInit)
    TLMM_PowerEvent                          0x0800cd71   Thumb Code     4  DALTLMM.o(i.TLMM_PowerEvent)
    TLMM_SetInactiveConfig                   0x0800cd75   Thumb Code    56  DALTLMM.o(i.TLMM_SetInactiveConfig)
    TLMM_SetPort                             0x0800cdb5   Thumb Code    88  DALTLMM.o(i.TLMM_SetPort)
    Tlmm_ConfigGpioGroup                     0x0800ce11   Thumb Code   146  DALTLMM.o(i.Tlmm_ConfigGpioGroup)
    Tlmm_Init                                0x0800cec9   Thumb Code    90  DALTLMM.o(i.Tlmm_Init)
    Tsens_GetTemp                            0x0800cf51   Thumb Code   184  TsensBoot.o(i.Tsens_GetTemp)
    Tsens_Init                               0x0800d00d   Thumb Code   278  TsensBoot.o(i.Tsens_Init)
    Tsensi_Apply_D30_Correction              0x0800d141   Thumb Code    32  TsensiConversion.o(i.Tsensi_Apply_D30_Correction)
    Tsensi_Apply_D30_D120_Correction         0x0800d161   Thumb Code    50  TsensiConversion.o(i.Tsensi_Apply_D30_D120_Correction)
    Tsensi_CalibrationInit                   0x0800d195   Thumb Code   398  TsensiConversion.o(i.Tsensi_CalibrationInit)
    Tsensi_ConvertFromDegC                   0x0800d32d   Thumb Code    82  TsensiConversion.o(i.Tsensi_ConvertFromDegC)
    Tsensi_ConvertToDegC                     0x0800d389   Thumb Code    68  TsensiConversion.o(i.Tsensi_ConvertToDegC)
    Uart_busy_wait                           0x0800d3e5   Thumb Code     4  Uart_sbl_os.o(i.Uart_busy_wait)
    Uart_clock_close                         0x0800d3e9   Thumb Code    54  Uart_sbl_os.o(i.Uart_clock_close)
    Uart_clock_open                          0x0800d425   Thumb Code   102  Uart_sbl_os.o(i.Uart_clock_open)
    Uart_deinit                              0x0800d491   Thumb Code   216  Uart.o(i.Uart_deinit)
    Uart_get_driver_properties               0x0800d56d   Thumb Code    68  Uart_sbl_os.o(i.Uart_get_driver_properties)
    Uart_get_properties                      0x0800d5d9   Thumb Code   156  Uart_sbl_os.o(i.Uart_get_properties)
    Uart_init                                0x0800d6d5   Thumb Code   202  Uart.o(i.Uart_init)
    Uart_tlmm_close                          0x0800d7a5   Thumb Code    84  Uart_sbl_os.o(i.Uart_tlmm_close)
    Uart_tlmm_open                           0x0800d7f9   Thumb Code   106  Uart_sbl_os.o(i.Uart_tlmm_open)
    Uart_transmit                            0x0800d863   Thumb Code    74  Uart.o(i.Uart_transmit)
    VAdcHalGetConversionCode                 0x0800d8ad   Thumb Code    68  VAdcHal.o(i.VAdcHalGetConversionCode)
    VAdcHalGetRevisionInfo                   0x0800d8f5   Thumb Code    98  VAdcHal.o(i.VAdcHalGetRevisionInfo)
    VAdcHalGetStatus                         0x0800d95d   Thumb Code   138  VAdcHal.o(i.VAdcHalGetStatus)
    VAdcHalRequestConversion                 0x0800d9ed   Thumb Code    42  VAdcHal.o(i.VAdcHalRequestConversion)
    VAdcHalSetConversionParameters           0x0800da1d   Thumb Code   150  VAdcHal.o(i.VAdcHalSetConversionParameters)
    VAdcHalSetEnable                         0x0800dab9   Thumb Code    48  VAdcHal.o(i.VAdcHalSetEnable)
    VAdcHalSetOpMode                         0x0800daed   Thumb Code    48  VAdcHal.o(i.VAdcHalSetOpMode)
    VAdcHalSetSequencerParameters            0x0800db21   Thumb Code    90  VAdcHal.o(i.VAdcHalSetSequencerParameters)
    VAdcHalStoreFabID                        0x0800db81   Thumb Code    84  VAdcHal.o(i.VAdcHalStoreFabID)
    VAdcScalePmicTherm                       0x0800dbd9   Thumb Code    14  AdcScalingUtil.o(i.VAdcScalePmicTherm)
    VAdcScaleTdkNTCGTherm                    0x0800dbed   Thumb Code    52  AdcScalingUtil.o(i.VAdcScaleTdkNTCGTherm)
    VAdc_Calibrate                           0x0800dc21   Thumb Code     6  DalVAdc.o(i.VAdc_Calibrate)
    VAdc_Close                               0x0800dd03   Thumb Code    30  DalVAdc.o(i.VAdc_Close)
    VAdc_DalAdcDevice_Attach                 0x0800dd21   Thumb Code   136  DalVAdcFwk.o(i.VAdc_DalAdcDevice_Attach)
    VAdc_DeviceDeInit                        0x0800de1b   Thumb Code    34  DalVAdc.o(i.VAdc_DeviceDeInit)
    VAdc_DeviceInit                          0x0800de3d   Thumb Code   298  DalVAdc.o(i.VAdc_DeviceInit)
    VAdc_DriverDeInit                        0x0800df7d   Thumb Code     4  DalVAdc.o(i.VAdc_DriverDeInit)
    VAdc_DriverInit                          0x0800df81   Thumb Code     4  DalVAdc.o(i.VAdc_DriverInit)
    VAdc_GetChannel                          0x0800df85   Thumb Code    68  DalVAdc.o(i.VAdc_GetChannel)
    VAdc_GetChannelStatus                    0x0800dfc9   Thumb Code     6  DalVAdc.o(i.VAdc_GetChannelStatus)
    VAdc_GetDeviceProperties                 0x0800dfcf   Thumb Code    12  DalVAdc.o(i.VAdc_GetDeviceProperties)
    VAdc_Info                                0x0800dfdb   Thumb Code     4  DalVAdc.o(i.VAdc_Info)
    VAdc_Open                                0x0800dfdf   Thumb Code    30  DalVAdc.o(i.VAdc_Open)
    VAdc_PowerEvent                          0x0800dffd   Thumb Code     4  DalVAdc.o(i.VAdc_PowerEvent)
    VAdc_ReadChannelSync                     0x0800e207   Thumb Code    64  DalVAdc.o(i.VAdc_ReadChannelSync)
    VAdc_RecalibrateChannel                  0x0800e247   Thumb Code     6  DalVAdc.o(i.VAdc_RecalibrateChannel)
    VAdc_RecalibrateChannelSync              0x0800e24d   Thumb Code   162  DalVAdc.o(i.VAdc_RecalibrateChannelSync)
    VAdc_ScaleResult                         0x0800e2ef   Thumb Code    88  DalVAdc.o(i.VAdc_ScaleResult)
    VAdc_ScaleResultAbsolute                 0x0800e349   Thumb Code    58  DalVAdc.o(i.VAdc_ScaleResultAbsolute)
    VAdc_StartConversion                     0x0800e389   Thumb Code     6  DalVAdc.o(i.VAdc_StartConversion)
    _DALSYS_GetDALPropertyHandle             0x0800e4fd   Thumb Code    66  DALProps.o(i._DALSYS_GetDALPropertyHandle)
    _DALSYS_GetPropertyValue                 0x0800e53f   Thumb Code   226  DALProps.o(i._DALSYS_GetPropertyValue)
    _DALSYS_memscpy                          0x0800e621   Thumb Code     4  DALModEnv.o(i._DALSYS_memscpy)
    __rt_raise                               0x0800e9cd   Thumb Code    18  boot_error_handler.o(i.__rt_raise)
    __stack_chk_fail                         0x0800e9fd   Thumb Code     2  boot_error_handler.o(i.__stack_chk_fail)
    _is_digit                                0x0800e9ff   Thumb Code    14  __printf_wp.o(i._is_digit)
    add                                      0x0800ea0d   Thumb Code    46  secmath_montmul_utils.o(i.add)
    apt_test                                 0x0800ed61   Thumb Code    16  boot_apt_test.o(i.apt_test)
    bByteCompare                             0x0800eda1   Thumb Code    46  boot_util.o(i.bByteCompare)
    bLoad8                                   0x0800edcf   Thumb Code    16  boot_util.o(i.bLoad8)
    bStor8                                   0x0800eddf   Thumb Code    26  boot_util.o(i.bStor8)
    bam_deinit                               0x0800edf9   Thumb Code   206  bams.o(i.bam_deinit)
    bam_drv_init                             0x0800eecd   Thumb Code    30  bams.o(i.bam_drv_init)
    bam_init                                 0x0800eef1   Thumb Code   802  bams.o(i.bam_init)
    bam_isr                                  0x0800f21d   Thumb Code     2  bams.o(i.bam_isr)
    bam_osal_cachecmd                        0x0800f255   Thumb Code    24  bamosal.o(i.bam_osal_cachecmd)
    bam_osal_free                            0x0800f26d   Thumb Code     4  bamosal.o(i.bam_osal_free)
    bam_osal_freememregion                   0x0800f271   Thumb Code    16  bamosal.o(i.bam_osal_freememregion)
    bam_osal_init                            0x0800f281   Thumb Code     2  bamosal.o(i.bam_osal_init)
    bam_osal_isrinstall                      0x0800f283   Thumb Code     4  bamosal.o(i.bam_osal_isrinstall)
    bam_osal_isruninstall                    0x0800f287   Thumb Code     2  bamosal.o(i.bam_osal_isruninstall)
    bam_osal_malloc                          0x0800f289   Thumb Code    18  bamosal.o(i.bam_osal_malloc)
    bam_osal_mallocmemregion                 0x0800f29d   Thumb Code    76  bamosal.o(i.bam_osal_mallocmemregion)
    bam_osal_memorybarrier                   0x0800f2ed   Thumb Code     4  bamosal.o(i.bam_osal_memorybarrier)
    bam_osal_syncdestroy                     0x0800f2f1   Thumb Code     4  bamosal.o(i.bam_osal_syncdestroy)
    bam_osal_syncenter                       0x0800f2f5   Thumb Code     2  bamosal.o(i.bam_osal_syncenter)
    bam_osal_syncinit                        0x0800f2f7   Thumb Code     4  bamosal.o(i.bam_osal_syncinit)
    bam_osal_syncleave                       0x0800f2fb   Thumb Code     2  bamosal.o(i.bam_osal_syncleave)
    bam_pipe_deinit                          0x0800f2fd   Thumb Code   134  bams.o(i.bam_pipe_deinit)
    bam_pipe_disable                         0x0800f383   Thumb Code    84  bams.o(i.bam_pipe_disable)
    bam_pipe_enable                          0x0800f3d7   Thumb Code   124  bams.o(i.bam_pipe_enable)
    bam_pipe_eot_handler                     0x0800f453   Thumb Code   398  bams.o(i.bam_pipe_eot_handler)
    bam_pipe_init                            0x0800f5e1   Thumb Code   334  bams.o(i.bam_pipe_init)
    bam_pipe_poll                            0x0800f72f   Thumb Code   100  bams.o(i.bam_pipe_poll)
    bam_pipe_setirqmode                      0x0800f793   Thumb Code    92  bams.o(i.bam_pipe_setirqmode)
    bam_pipe_transfer                        0x0800f7ef   Thumb Code    70  bams.o(i.bam_pipe_transfer)
    bam_secure_init                          0x0800f835   Thumb Code    56  bams.o(i.bam_secure_init)
    bam_tgt_getcfg                           0x0800f86d   Thumb Code    50  bamtgtcfg.o(i.bam_tgt_getcfg)
    bam_tgt_getnumdevs                       0x0800f8a5   Thumb Code    50  bamtgtcfg.o(i.bam_tgt_getnumdevs)
    bamcore_bam_enabled                      0x0800f8dd   Thumb Code    90  bamcore.o(i.bamcore_bam_enabled)
    bamcore_check                            0x0800f937   Thumb Code   290  bamcore.o(i.bamcore_check)
    bamcore_deinit                           0x0800fa59   Thumb Code    18  bamcore.o(i.bamcore_deinit)
    bamcore_getirqmode                       0x0800fa6b   Thumb Code     4  bamcore.o(i.bamcore_getirqmode)
    bamcore_init                             0x0800fa6f   Thumb Code   122  bamcore.o(i.bamcore_init)
    bamcore_lpae_supported                   0x0800fae9   Thumb Code     4  bamcore.o(i.bamcore_lpae_supported)
    bamcore_pipe_deinit                      0x0800faed   Thumb Code    66  bamcore.o(i.bamcore_pipe_deinit)
    bamcore_pipe_get_toggle                  0x0800fb35   Thumb Code    24  bamcore.o(i.bamcore_pipe_get_toggle)
    bamcore_pipe_getandclearirqstatus        0x0800fb51   Thumb Code    22  bamcore.o(i.bamcore_pipe_getandclearirqstatus)
    bamcore_pipe_getdescreadoffset           0x0800fb6d   Thumb Code    18  bamcore.o(i.bamcore_pipe_getdescreadoffset)
    bamcore_pipe_init                        0x0800fb81   Thumb Code   214  bamcore.o(i.bamcore_pipe_init)
    bamcore_pipe_nwd_done                    0x0800fc61   Thumb Code    26  bamcore.o(i.bamcore_pipe_nwd_done)
    bamcore_pipe_secure_init                 0x0800fc81   Thumb Code   176  bamcore.o(i.bamcore_pipe_secure_init)
    bamcore_pipe_setdescwriteoffset          0x0800fd35   Thumb Code    14  bamcore.o(i.bamcore_pipe_setdescwriteoffset)
    bamcore_pipe_setirqmode                  0x0800fd49   Thumb Code   112  bamcore.o(i.bamcore_pipe_setirqmode)
    bamcore_pipe_setlockgroup                0x0800fdbd   Thumb Code    26  bamcore.o(i.bamcore_pipe_setlockgroup)
    bamcore_secure_init                      0x0800fdd9   Thumb Code   106  bamcore.o(i.bamcore_secure_init)
    bamcore_secure_set_sg                    0x0800fe49   Thumb Code    96  bamcore.o(i.bamcore_secure_set_sg)
    bamcore_setirqmode                       0x0800fea9   Thumb Code    56  bamcore.o(i.bamcore_setirqmode)
    bamdev_write_reg_field                   0x0800fee9   Thumb Code    24  bamcore.o(i.bamdev_write_reg_field)
    bami_pipe_transfer_no_lock               0x0800ff01   Thumb Code   196  bams.o(i.bami_pipe_transfer_no_lock)
    boot_BootTempCheck                       0x0800ffc5   Thumb Code     4  boot_extern_tsensor_interface.o(i.boot_BootTempCheck)
    boot_CeMLDeInit                          0x0800ffc9   Thumb Code     4  boot_extern_crypto_interface.o(i.boot_CeMLDeInit)
    boot_CeMLHashDeInit                      0x0800ffcd   Thumb Code     4  boot_extern_crypto_interface.o(i.boot_CeMLHashDeInit)
    boot_CeMLHashFinal                       0x0800ffd1   Thumb Code     4  boot_extern_crypto_interface.o(i.boot_CeMLHashFinal)
    boot_CeMLHashInit                        0x0800ffd5   Thumb Code     4  boot_extern_crypto_interface.o(i.boot_CeMLHashInit)
    boot_CeMLHashUpdate                      0x0800ffd9   Thumb Code     4  boot_extern_crypto_interface.o(i.boot_CeMLHashUpdate)
    boot_CeMLInit                            0x0800ffdd   Thumb Code     4  boot_extern_crypto_interface.o(i.boot_CeMLInit)
    boot_DALFW_MemDescBufPtr                 0x0800ffe1   Thumb Code     4  boot_extern_dal_interface.o(i.boot_DALFW_MemDescBufPtr)
    boot_DALFW_MemDescInit                   0x0800ffe5   Thumb Code     4  boot_extern_dal_interface.o(i.boot_DALFW_MemDescInit)
    boot_DALSYS_HeapInit                     0x0800ffe9   Thumb Code     4  boot_extern_dal_interface.o(i.boot_DALSYS_HeapInit)
    boot_DALSYS_InitMod                      0x0800ffed   Thumb Code     4  boot_extern_dal_interface.o(i.boot_DALSYS_InitMod)
    boot_DALSYS_MemInfo                      0x0800fff1   Thumb Code     4  boot_extern_dal_interface.o(i.boot_DALSYS_MemInfo)
    boot_DALSYS_MemRegionAlloc               0x0800fff5   Thumb Code    16  boot_extern_dal_interface.o(i.boot_DALSYS_MemRegionAlloc)
    boot_DAL_DeviceAttach                    0x08010005   Thumb Code     4  boot_extern_dal_interface.o(i.boot_DAL_DeviceAttach)
    boot_DAL_DeviceAttachEx                  0x08010009   Thumb Code     4  boot_extern_dal_interface.o(i.boot_DAL_DeviceAttachEx)
    boot_DAL_DeviceDetach                    0x0801000d   Thumb Code     4  boot_extern_dal_interface.o(i.boot_DAL_DeviceDetach)
    boot_DalDevice_Close                     0x08010011   Thumb Code    10  boot_extern_dal_interface.o(i.boot_DalDevice_Close)
    boot_DalPlatformInfo_CDTConfigPostDDR    0x0801001b   Thumb Code     6  boot_extern_platforminfo_interface.o(i.boot_DalPlatformInfo_CDTConfigPostDDR)
    boot_DalPlatformInfo_CDTConfigPreDDR     0x08010021   Thumb Code     6  boot_extern_platforminfo_interface.o(i.boot_DalPlatformInfo_CDTConfigPreDDR)
    boot_ICB_Config_Init                     0x08010027   Thumb Code     4  boot_extern_bus_interface.o(i.boot_ICB_Config_Init)
    boot_ICB_Segments_Init                   0x0801002b   Thumb Code     4  boot_extern_bus_interface.o(i.boot_ICB_Segments_Init)
    boot_PrngML_getdata_lite                 0x0801002f   Thumb Code     4  boot_extern_crypto_interface.o(i.boot_PrngML_getdata_lite)
    boot_Tsens_Init                          0x08010033   Thumb Code     4  boot_extern_tsensor_interface.o(i.boot_Tsens_Init)
    boot_apt_test                            0x08010037   Thumb Code     4  boot_extern_apt_interface.o(i.boot_apt_test)
    boot_auth_image                          0x0801003d   Thumb Code   166  boot_authenticator.o(i.boot_auth_image)
    boot_auth_load_header                    0x080100e9   Thumb Code   192  boot_authenticator.o(i.boot_auth_load_header)
    boot_bam_drv_init                        0x080101c9   Thumb Code     4  boot_extern_bam_interface.o(i.boot_bam_drv_init)
    boot_busywait                            0x080101cd   Thumb Code     4  boot_extern_busywait_interface.o(i.boot_busywait)
    boot_busywait_init                       0x080101d1   Thumb Code     4  boot_extern_busywait_interface.o(i.boot_busywait_init)
    boot_cache_set_memory_barrier            0x080101d5   Thumb Code    36  boot_smem.o(i.boot_cache_set_memory_barrier)
    boot_check_device_temp                   0x08010209   Thumb Code    46  boot_thermal_management.o(i.boot_check_device_temp)
    boot_clobber_add_global_protection_region 0x0801023d   Thumb Code   106  boot_clobber_prot.o(i.boot_clobber_add_global_protection_region)
    boot_clobber_add_local_hole              0x080102c5   Thumb Code    66  boot_clobber_prot_local.o(i.boot_clobber_add_local_hole)
    boot_clobber_check_global_address_range  0x08010329   Thumb Code    90  boot_clobber_prot.o(i.boot_clobber_check_global_address_range)
    boot_clobber_check_global_whitelist_range 0x080103a1   Thumb Code    96  boot_clobber_prot.o(i.boot_clobber_check_global_whitelist_range)
    boot_clobber_check_local_address_range   0x0801041d   Thumb Code   102  boot_clobber_prot_local.o(i.boot_clobber_check_local_address_range)
    boot_clobber_clear_whitelist_table       0x080104a5   Thumb Code    60  boot_clobber_prot.o(i.boot_clobber_clear_whitelist_table)
    boot_clobber_import_whitelist_table      0x080104e9   Thumb Code     6  boot_clobber_prot.o(i.boot_clobber_import_whitelist_table)
    boot_clobber_local_init                  0x080104f5   Thumb Code    10  boot_clobber_prot_local.o(i.boot_clobber_local_init)
    boot_clobber_remove_global_whitelist_region 0x08010501   Thumb Code    86  boot_clobber_prot.o(i.boot_clobber_remove_global_whitelist_region)
    boot_clobber_remove_local_hole           0x0801055d   Thumb Code    54  boot_clobber_prot_local.o(i.boot_clobber_remove_local_hole)
    boot_clock_SetUARTClockFrequency         0x080105b5   Thumb Code     4  boot_extern_clk_interface.o(i.boot_clock_SetUARTClockFrequency)
    boot_clock_debug_init                    0x080105b9   Thumb Code     4  boot_extern_clk_interface.o(i.boot_clock_debug_init)
    boot_clock_disable_UARTClock             0x080105bd   Thumb Code     4  boot_extern_clk_interface.o(i.boot_clock_disable_UARTClock)
    boot_clock_exit_boot                     0x080105c1   Thumb Code     4  boot_extern_clk_interface.o(i.boot_clock_exit_boot)
    boot_clock_get_ddr_speed                 0x080105c5   Thumb Code     4  boot_extern_clk_interface.o(i.boot_clock_get_ddr_speed)
    boot_clock_init                          0x080105c9   Thumb Code     8  boot_extern_clk_interface.o(i.boot_clock_init)
    boot_clock_set_L2_perf_level             0x080105d1   Thumb Code     4  boot_extern_clk_interface.o(i.boot_clock_set_L2_perf_level)
    boot_clock_set_cpu_perf_level            0x080105d5   Thumb Code     4  boot_extern_clk_interface.o(i.boot_clock_set_cpu_perf_level)
    boot_config_data_table_init              0x080105d9   Thumb Code    92  boot_config_data.o(i.boot_config_data_table_init)
    boot_config_process_bl                   0x08010699   Thumb Code    54  boot_config.o(i.boot_config_process_bl)
    boot_copy_config_data_block              0x080109e9   Thumb Code    40  boot_config_data.o(i.boot_copy_config_data_block)
    boot_count_set_bits                      0x08010a23   Thumb Code    18  boot_util.o(i.boot_count_set_bits)
    boot_data_abort_c_handler                0x08010a35   Thumb Code    14  boot_error_handler.o(i.boot_data_abort_c_handler)
    boot_dload_check                         0x08010a5d   Thumb Code   116  boot_dload.o(i.boot_dload_check)
    boot_dload_clock_init                    0x08010aed   Thumb Code     4  boot_extern_clk_interface.o(i.boot_dload_clock_init)
    boot_dload_dump_security_regions         0x08010af1   Thumb Code    72  boot_dload_debug.o(i.boot_dload_dump_security_regions)
    boot_dload_entry                         0x08010b49   Thumb Code    28  boot_dload.o(i.boot_dload_entry)
    boot_dload_is_dload_mode_set             0x08010b69   Thumb Code    16  boot_dload.o(i.boot_dload_is_dload_mode_set)
    boot_dload_set_cookie                    0x08010b7d   Thumb Code    12  boot_dload.o(i.boot_dload_set_cookie)
    boot_dload_transition_enter_sahara       0x08010b8d   Thumb Code   184  sbl1_target.o(i.boot_dload_transition_enter_sahara)
    boot_dload_transition_pbl_forced_dload   0x08010c6d   Thumb Code    22  boot_dload.o(i.boot_dload_transition_pbl_forced_dload)
    boot_do_procedures                       0x08010c89   Thumb Code    44  boot_mc.o(i.boot_do_procedures)
    boot_elf_load_init_hash_segment          0x08010f15   Thumb Code   410  boot_elf_loader.o(i.boot_elf_load_init_hash_segment)
    boot_elf_set_auth_and_ssa_enable         0x080114ad   Thumb Code     8  boot_elf_loader.o(i.boot_elf_set_auth_and_ssa_enable)
    boot_elf_verify_elf_hdr                  0x080114b9   Thumb Code   310  boot_elf_loader.o(i.boot_elf_verify_elf_hdr)
    boot_elf_ziinit_structures               0x080118a9   Thumb Code    92  boot_elf_loader.o(i.boot_elf_ziinit_structures)
    boot_err_fatal                           0x08011915   Thumb Code    18  boot_error_handler.o(i.boot_err_fatal)
    boot_error_handler                       0x08011945   Thumb Code   154  boot_error_handler.o(i.boot_error_handler)
    Inline ARM to Thumb Veneer to boot_fiq_c_handler 0x08011a20   ARM Code       8  boot_error_handler.o(i.boot_fiq_c_handler)
    boot_fiq_c_handler                       0x08011a29   Thumb Code    18  boot_error_handler.o(i.boot_fiq_c_handler)
    boot_flash_block_get_state               0x08011a59   Thumb Code     6  boot_extern_flash_interface.o(i.boot_flash_block_get_state)
    boot_flash_boot_ops_get_parti_tbl        0x08011a5f   Thumb Code     4  boot_extern_flash_interface.o(i.boot_flash_boot_ops_get_parti_tbl)
    boot_flash_configure_target_image        0x08011a63   Thumb Code    20  sbl1_mc.o(i.boot_flash_configure_target_image)
    boot_flash_copy_pages                    0x08011a77   Thumb Code     6  boot_extern_flash_interface.o(i.boot_flash_copy_pages)
    boot_flash_dev_close_image               0x08011a7d   Thumb Code    20  sbl1_mc.o(i.boot_flash_dev_close_image)
    boot_flash_dev_default_stub              0x08011a91   Thumb Code     4  boot_flash_dev_nand.o(i.boot_flash_dev_default_stub)
    boot_flash_dev_if_get_singleton          0x08011a95   Thumb Code    28  boot_flash_dev_if.o(i.boot_flash_dev_if_get_singleton)
    boot_flash_dev_if_lock_singleton         0x08011acd   Thumb Code    30  boot_flash_dev_if.o(i.boot_flash_dev_if_lock_singleton)
    boot_flash_dev_if_register_singleton     0x08011b09   Thumb Code    30  boot_flash_dev_if.o(i.boot_flash_dev_if_register_singleton)
    boot_flash_dev_nand_if_get_singleton     0x08011b45   Thumb Code    28  boot_flash_dev_nand_if.o(i.boot_flash_dev_nand_if_get_singleton)
    boot_flash_dev_nand_if_register_singleton 0x08011b85   Thumb Code    30  boot_flash_dev_nand_if.o(i.boot_flash_dev_nand_if_register_singleton)
    boot_flash_dev_nand_init_and_register    0x08011bc9   Thumb Code   132  boot_flash_dev_nand.o(i.boot_flash_dev_nand_init_and_register)
    boot_flash_dev_nand_store_partition_table 0x08011c7d   Thumb Code    60  boot_flash_dev_nand.o(i.boot_flash_dev_nand_store_partition_table)
    boot_flash_dev_open_image                0x08011cd5   Thumb Code    20  sbl1_mc.o(i.boot_flash_dev_open_image)
    boot_flash_erase_blocks                  0x08011ce9   Thumb Code     6  boot_extern_flash_interface.o(i.boot_flash_erase_blocks)
    boot_flash_find_partition_entry          0x08011cf1   Thumb Code   106  boot_flash_partition.o(i.boot_flash_find_partition_entry)
    boot_flash_get_info                      0x08011d79   Thumb Code     6  boot_extern_flash_interface.o(i.boot_flash_get_info)
    boot_flash_init                          0x08011d81   Thumb Code    30  boot_flash.o(i.boot_flash_init)
    boot_flash_open_partition                0x08011dd1   Thumb Code     6  boot_extern_flash_interface.o(i.boot_flash_open_partition)
    boot_flash_read_pages                    0x08011dd7   Thumb Code    12  boot_extern_flash_interface.o(i.boot_flash_read_pages)
    boot_flash_target_init                   0x08011de5   Thumb Code    58  boot_flash_target.o(i.boot_flash_target_init)
    boot_flash_trans_factory_open            0x08011e3d   Thumb Code    12  boot_flash_dev_nand.o(i.boot_flash_trans_factory_open)
    boot_flash_trans_nand_factory_init       0x08011ec5   Thumb Code    30  boot_flash_trans_nand.o(i.boot_flash_trans_nand_factory_init)
    boot_flash_trans_read                    0x08012231   Thumb Code    48  sbl1_mc.o(i.boot_flash_trans_read)
    boot_flash_write_pages                   0x08012261   Thumb Code    12  boot_extern_flash_interface.o(i.boot_flash_write_pages)
    boot_get_bit_set_position                0x0801226c   ARM Code      12  boot_flash_dev_nand.o(i.boot_get_bit_set_position)
    boot_get_config_data_block               0x08012279   Thumb Code   148  boot_config_data.o(i.boot_get_config_data_block)
    boot_get_ddr_info                        0x08012329   Thumb Code    32  boot_ddr_info.o(i.boot_get_ddr_info)
    boot_get_delta_time                      0x08012365   Thumb Code    30  boot_logger_timer.o(i.boot_get_delta_time)
    boot_get_elf_eident_class                0x08012385   Thumb Code     6  boot_elf_loader.o(i.boot_get_elf_eident_class)
    boot_get_elf_entry_address               0x08012391   Thumb Code    26  boot_elf_loader.o(i.boot_get_elf_entry_address)
    boot_get_hash_buffer_size                0x080123b5   Thumb Code     6  boot_hash_buffer.o(i.boot_get_hash_buffer_size)
    boot_get_hash_segment_buffer             0x080123bd   Thumb Code     4  boot_hash_buffer.o(i.boot_get_hash_segment_buffer)
    boot_get_hash_table_auth_result          0x080123c5   Thumb Code     6  boot_hash_buffer.o(i.boot_get_hash_table_auth_result)
    boot_get_sbl_auth_verified_info          0x080123d1   Thumb Code     4  boot_authenticator.o(i.boot_get_sbl_auth_verified_info)
    boot_get_time                            0x080123d9   Thumb Code    44  boot_logger_timer.o(i.boot_get_time)
    boot_gpio_init                           0x08012419   Thumb Code    42  boot_extern_tlmm_interface.o(i.boot_gpio_init)
    boot_hash                                0x0801244b   Thumb Code    52  boot_hash.o(i.boot_hash)
    boot_hashFinal                           0x08012481   Thumb Code   170  boot_hash.o(i.boot_hashFinal)
    boot_hashInit                            0x08012531   Thumb Code    86  boot_hash.o(i.boot_hashInit)
    boot_hashUpdate                          0x0801258d   Thumb Code    62  boot_hash.o(i.boot_hashUpdate)
    boot_image_populate_uuid                 0x080125cb   Thumb Code     4  boot_extern_smem_interface.o(i.boot_image_populate_uuid)
    boot_image_version_initialize_version_table 0x080125cf   Thumb Code     4  boot_extern_smem_interface.o(i.boot_image_version_initialize_version_table)
    boot_image_version_populate_version      0x080125d3   Thumb Code     4  boot_extern_smem_interface.o(i.boot_image_version_populate_version)
    boot_init_for_dload                      0x080125d7   Thumb Code     2  boot_dload.o(i.boot_init_for_dload)
    boot_init_stack_chk_canary               0x080125d9   Thumb Code    36  boot_error_handler.o(i.boot_init_stack_chk_canary)
    boot_init_timer                          0x08012619   Thumb Code    32  boot_logger_timer.o(i.boot_init_timer)
    Inline ARM to Thumb Veneer to boot_irq_c_handler 0x0801267c   ARM Code       8  boot_error_handler.o(i.boot_irq_c_handler)
    boot_irq_c_handler                       0x08012685   Thumb Code    18  boot_error_handler.o(i.boot_irq_c_handler)
    boot_is_auth_enabled                     0x080126b5   Thumb Code    26  boot_authenticator.o(i.boot_is_auth_enabled)
    boot_l2_page_table_init                  0x080126d5   Thumb Code   204  boot_page_table.o(i.boot_l2_page_table_init)
    boot_load_elf_image                      0x080127a5   Thumb Code    70  boot_elf_loader.o(i.boot_load_elf_image)
    boot_load_header_and_image               0x08012809   Thumb Code   282  boot_loader.o(i.boot_load_header_and_image)
    boot_log_boot_config_register            0x08012939   Thumb Code    62  boot_logger.o(i.boot_log_boot_config_register)
    boot_log_copy_ram                        0x08012991   Thumb Code   100  boot_logger_ram.o(i.boot_log_copy_ram)
    boot_log_ddr_frequency                   0x08012a0d   Thumb Code    64  boot_logger.o(i.boot_log_ddr_frequency)
    boot_log_deinit_uart                     0x08012a69   Thumb Code     8  boot_logger_uart.o(i.boot_log_deinit_uart)
    boot_log_delta_time                      0x08012a75   Thumb Code     6  boot_logger.o(i.boot_log_delta_time)
    boot_log_delta_time_optional_data        0x08012a7b   Thumb Code    40  boot_logger.o(i.boot_log_delta_time_optional_data)
    boot_log_dump                            0x08012aa3   Thumb Code     2  boot_logger.o(i.boot_log_dump)
    boot_log_forever_loop_check              0x08012aa5   Thumb Code    18  boot_logger.o(i.boot_log_forever_loop_check)
    boot_log_get_meta_info                   0x08012abd   Thumb Code     6  boot_logger.o(i.boot_log_get_meta_info)
    boot_log_get_time                        0x08012ac9   Thumb Code     4  boot_logger.o(i.boot_log_get_time)
    boot_log_image_version                   0x08012acd   Thumb Code   104  boot_logger.o(i.boot_log_image_version)
    boot_log_init                            0x08012b49   Thumb Code    38  boot_logger.o(i.boot_log_init)
    boot_log_init_ram                        0x08012b75   Thumb Code    92  boot_logger_ram.o(i.boot_log_init_ram)
    boot_log_init_uart                       0x08012bd5   Thumb Code     8  boot_logger_uart.o(i.boot_log_init_uart)
    boot_log_message                         0x08012be1   Thumb Code     6  boot_logger.o(i.boot_log_message)
    boot_log_message_optional_data           0x08012be7   Thumb Code    40  boot_logger.o(i.boot_log_message_optional_data)
    boot_log_message_ram                     0x08012c11   Thumb Code   238  boot_logger_ram.o(i.boot_log_message_ram)
    boot_log_message_raw                     0x08012d0d   Thumb Code    32  boot_logger.o(i.boot_log_message_raw)
    boot_log_message_uart                    0x08012d2d   Thumb Code   302  boot_logger_uart.o(i.boot_log_message_uart)
    boot_log_relocate                        0x08012e89   Thumb Code    24  boot_logger.o(i.boot_log_relocate)
    boot_log_set_meta_info                   0x08012ea5   Thumb Code     6  boot_logger.o(i.boot_log_set_meta_info)
    boot_log_set_ref_time                    0x08012eb1   Thumb Code    12  boot_logger.o(i.boot_log_set_ref_time)
    boot_log_start_timer                     0x08012ec1   Thumb Code     4  boot_logger.o(i.boot_log_start_timer)
    boot_log_stop_timer                      0x08012ec5   Thumb Code     6  boot_logger.o(i.boot_log_stop_timer)
    boot_log_stop_timer_optional_data        0x08012ecb   Thumb Code    40  boot_logger.o(i.boot_log_stop_timer_optional_data)
    boot_mmu_copy_page_table                 0x08012f11   Thumb Code   132  boot_page_table.o(i.boot_mmu_copy_page_table)
    boot_mmu_page_table_map_mem_block_list   0x08012f99   Thumb Code   104  boot_page_table.o(i.boot_mmu_page_table_map_mem_block_list)
    boot_mmu_page_table_map_single_mem_block 0x08013005   Thumb Code    66  boot_page_table.o(i.boot_mmu_page_table_map_single_mem_block)
    boot_nested_exception_c_handler          0x0801304d   Thumb Code     4  boot_error_handler.o(i.boot_nested_exception_c_handler)
    boot_pbl_get_flash_type                  0x08013051   Thumb Code    28  boot_pbl_v1.o(i.boot_pbl_get_flash_type)
    boot_pbl_interface_init                  0x08013085   Thumb Code    20  boot_pbl_v1.o(i.boot_pbl_interface_init)
    boot_pbl_is_auth_enabled                 0x0801309d   Thumb Code    22  boot_pbl_v1.o(i.boot_pbl_is_auth_enabled)
    boot_pbl_log_milestones                  0x080130b9   Thumb Code    72  boot_pbl_v1.o(i.boot_pbl_log_milestones)
    boot_pm_dev_get_power_on_reason          0x08013115   Thumb Code     6  boot_extern_pmic_interface.o(i.boot_pm_dev_get_power_on_reason)
    boot_pm_device_init                      0x0801311b   Thumb Code     4  boot_extern_pmic_interface.o(i.boot_pm_device_init)
    boot_pm_driver_init                      0x0801311f   Thumb Code     4  boot_extern_pmic_interface.o(i.boot_pm_driver_init)
    boot_pm_init_smem                        0x08013123   Thumb Code     4  boot_extern_pmic_interface.o(i.boot_pm_init_smem)
    boot_pm_oem_init                         0x08013127   Thumb Code     4  boot_extern_pmic_interface.o(i.boot_pm_oem_init)
    boot_pm_pon_ps_hold_cfg                  0x0801312b   Thumb Code     4  boot_extern_pmic_interface.o(i.boot_pm_pon_ps_hold_cfg)
    boot_pm_pon_warm_reset_status            0x0801312f   Thumb Code     6  boot_extern_pmic_interface.o(i.boot_pm_pon_warm_reset_status)
    boot_pm_pon_warm_reset_status_clear      0x08013135   Thumb Code     6  boot_extern_pmic_interface.o(i.boot_pm_pon_warm_reset_status_clear)
    boot_populate_ram_partition_table        0x0801313d   Thumb Code   104  boot_ram_partition.o(i.boot_populate_ram_partition_table)
    boot_pre_ddr_clock_init                  0x080131d1   Thumb Code     4  boot_extern_clk_interface.o(i.boot_pre_ddr_clock_init)
    boot_pre_i2c_clock_init                  0x080131d5   Thumb Code     4  boot_extern_clk_interface.o(i.boot_pre_i2c_clock_init)
    boot_prefetch_abort_c_handler            0x080131d9   Thumb Code    14  boot_error_handler.o(i.boot_prefetch_abort_c_handler)
    boot_qhsusb_al_bulk_init                 0x08013201   Thumb Code     4  boot_extern_hsusb_interface.o(i.boot_qhsusb_al_bulk_init)
    boot_qsee_cond_zero_peripheral_memory    0x08013205   Thumb Code    20  boot_extern_seccfg_interface.o(i.boot_qsee_cond_zero_peripheral_memory)
    boot_qsee_is_memory_dump_allowed         0x08013219   Thumb Code     4  boot_extern_seccfg_interface.o(i.boot_qsee_is_memory_dump_allowed)
    boot_qsee_is_retail_unlocked             0x0801321d   Thumb Code     4  boot_extern_seccfg_interface.o(i.boot_qsee_is_retail_unlocked)
    boot_qsee_zero_peripheral_memory         0x08013221   Thumb Code     4  boot_extern_seccfg_interface.o(i.boot_qsee_zero_peripheral_memory)
    boot_ram_init                            0x08013225   Thumb Code    32  boot_ram_init.o(i.boot_ram_init)
    Inline ARM to Thumb Veneer to boot_reserved_c_handler 0x08013244   ARM Code       8  boot_error_handler.o(i.boot_reserved_c_handler)
    boot_reserved_c_handler                  0x0801324d   Thumb Code    18  boot_error_handler.o(i.boot_reserved_c_handler)
    boot_rollback_get_fuse_version           0x08013301   Thumb Code    52  boot_rollback_version.o(i.boot_rollback_get_fuse_version)
    boot_rollback_init_img_set_table         0x08013379   Thumb Code    38  boot_rollback_version.o(i.boot_rollback_init_img_set_table)
    boot_rollback_update_img_version         0x080133d9   Thumb Code    48  boot_rollback_version.o(i.boot_rollback_update_img_version)
    boot_sahara_elf_segment_is_loadable      0x0801340d   Thumb Code    36  boot_sahara.o(i.boot_sahara_elf_segment_is_loadable)
    boot_sahara_entry                        0x08013491   Thumb Code    34  boot_sahara.o(i.boot_sahara_entry)
    boot_sahara_get_elf_eident_class         0x08013503   Thumb Code     4  boot_sahara.o(i.boot_sahara_get_elf_eident_class)
    boot_sahara_get_elf_entry_address        0x08013509   Thumb Code     8  boot_sahara.o(i.boot_sahara_get_elf_entry_address)
    boot_sahara_set_is_ssa_enabled           0x08014509   Thumb Code     6  boot_sahara.o(i.boot_sahara_set_is_ssa_enabled)
    boot_save_reset_register_log             0x08014659   Thumb Code     2  boot_mc.o(i.boot_save_reset_register_log)
    boot_sbl_qsee_interface_get_eident       0x0801465b   Thumb Code    42  boot_sbl_qsee_interface.o(i.boot_sbl_qsee_interface_get_eident)
    boot_sbl_qsee_interface_get_entry_point  0x08014685   Thumb Code    42  boot_sbl_qsee_interface.o(i.boot_sbl_qsee_interface_get_entry_point)
    boot_sbl_qsee_interface_get_secboot_info 0x080146af   Thumb Code    42  boot_sbl_qsee_interface.o(i.boot_sbl_qsee_interface_get_secboot_info)
    boot_secboot_ftbl_init                   0x080146d9   Thumb Code    30  boot_authenticator.o(i.boot_secboot_ftbl_init)
    boot_secboot_get_ftbl                    0x080146fd   Thumb Code     4  boot_extern_secboot_interface.o(i.boot_secboot_get_ftbl)
    boot_secboot_hw_get_ftbl                 0x08014701   Thumb Code     4  boot_extern_secboot_interface.o(i.boot_secboot_hw_get_ftbl)
    boot_secure_watchdog_init                0x08014705   Thumb Code    60  boot_secure_watchdog.o(i.boot_secure_watchdog_init)
    boot_set_ddr_info                        0x08014819   Thumb Code    50  boot_ddr_info.o(i.boot_set_ddr_info)
    boot_set_hash_algo                       0x08014869   Thumb Code    34  boot_hash.o(i.boot_set_hash_algo)
    boot_set_hash_table_auth_result          0x08014891   Thumb Code     6  boot_hash_buffer.o(i.boot_set_hash_table_auth_result)
    boot_share_extended_ddr_info             0x0801489d   Thumb Code   334  boot_ddr_info.o(i.boot_share_extended_ddr_info)
    boot_share_flash_data                    0x08014a05   Thumb Code     2  boot_flash.o(i.boot_share_flash_data)
    boot_shared_imem_init                    0x08014a09   Thumb Code    36  boot_ram_init.o(i.boot_shared_imem_init)
    boot_smem_alloc                          0x08014a35   Thumb Code     4  boot_extern_smem_interface.o(i.boot_smem_alloc)
    boot_smem_boot_debug_init                0x08014a39   Thumb Code     4  boot_extern_smem_interface.o(i.boot_smem_boot_debug_init)
    boot_smem_boot_init                      0x08014a3d   Thumb Code     4  boot_extern_smem_interface.o(i.boot_smem_boot_init)
    boot_smem_debug_init                     0x08014a41   Thumb Code     4  boot_smem.o(i.boot_smem_debug_init)
    boot_smem_init                           0x08014a45   Thumb Code    58  boot_smem.o(i.boot_smem_init)
    boot_smem_store_pon_status               0x08014a91   Thumb Code    28  boot_smem.o(i.boot_smem_store_pon_status)
    boot_start_timer                         0x08014abd   Thumb Code    22  boot_logger_timer.o(i.boot_start_timer)
    boot_statistics_flash_read_start         0x08014ad5   Thumb Code    12  boot_statistics.o(i.boot_statistics_flash_read_start)
    boot_statistics_flash_read_stop          0x08014ae5   Thumb Code    46  boot_statistics.o(i.boot_statistics_flash_read_stop)
    boot_statistics_get_flash_byte_counter   0x08014b19   Thumb Code     6  boot_statistics.o(i.boot_statistics_get_flash_byte_counter)
    boot_statistics_log_flash                0x08014b35   Thumb Code    84  boot_statistics.o(i.boot_statistics_log_flash)
    boot_statistics_reset_flash_byte_counter 0x08014bbd   Thumb Code     8  boot_statistics.o(i.boot_statistics_reset_flash_byte_counter)
    boot_stop_timer                          0x08014bc9   Thumb Code    64  boot_logger_timer.o(i.boot_stop_timer)
    boot_store_tpm_hash_block                0x08014c0d   Thumb Code   180  boot_authenticator.o(i.boot_store_tpm_hash_block)
    boot_strlen                              0x08014ce1   Thumb Code    16  boot_util.o(i.boot_strlen)
    Inline ARM to Thumb Veneer to boot_swi_c_handler 0x08014cf0   ARM Code       8  boot_error_handler.o(i.boot_swi_c_handler)
    boot_swi_c_handler                       0x08014cf9   Thumb Code    18  boot_error_handler.o(i.boot_swi_c_handler)
    boot_uart_deinit                         0x08014d29   Thumb Code     4  boot_uart.o(i.boot_uart_deinit)
    boot_uart_init                           0x08014d2d   Thumb Code     4  boot_uart.o(i.boot_uart_init)
    boot_uart_tx                             0x08014d31   Thumb Code     4  boot_uart.o(i.boot_uart_tx)
    boot_undefined_instruction_c_handler     0x08014d35   Thumb Code    18  boot_error_handler.o(i.boot_undefined_instruction_c_handler)
    boot_update_auth_image_info              0x08014d65   Thumb Code    98  boot_authenticator.o(i.boot_update_auth_image_info)
    boot_update_config_data_table            0x08014de9   Thumb Code   400  boot_config_eeprom.o(i.boot_update_config_data_table)
    boot_usb_al_bulk_get_max_packet_size     0x08014fe9   Thumb Code     4  boot_extern_hsusb_interface.o(i.boot_usb_al_bulk_get_max_packet_size)
    boot_usb_al_bulk_get_max_raw_data_size   0x08014fed   Thumb Code     4  boot_extern_hsusb_interface.o(i.boot_usb_al_bulk_get_max_raw_data_size)
    boot_usb_al_bulk_poll                    0x08014ff1   Thumb Code     4  boot_extern_hsusb_interface.o(i.boot_usb_al_bulk_poll)
    boot_usb_al_bulk_receive                 0x08014ff5   Thumb Code     4  boot_extern_hsusb_interface.o(i.boot_usb_al_bulk_receive)
    boot_usb_al_bulk_shutdown                0x08014ff9   Thumb Code     4  boot_extern_hsusb_interface.o(i.boot_usb_al_bulk_shutdown)
    boot_usb_al_bulk_transmit                0x08014ffd   Thumb Code     4  boot_extern_hsusb_interface.o(i.boot_usb_al_bulk_transmit)
    boot_usb_al_check_for_pbl_dload          0x08015001   Thumb Code     4  boot_extern_hsusb_interface.o(i.boot_usb_al_check_for_pbl_dload)
    booting_from_storage_media               0x08015005   Thumb Code    30  boot_util.o(i.booting_from_storage_media)
    bric_lock                                0x08015025   Thumb Code    42  icbcfg.o(i.bric_lock)
    busywait                                 0x08015061   Thumb Code    44  busywait_hw_qtimer.o(i.busywait)
    busywait_init                            0x08015091   Thumb Code    80  busywait_hw_qtimer.o(i.busywait_init)
    check_fec_error                          0x0801511d   Thumb Code    32  secboot_hw.o(i.check_fec_error)
    compare                                  0x08015209   Thumb Code    38  secmath_montmul_utils.o(i.compare)
    compress_regions                         0x0801522f   Thumb Code   560  icbcfg.o(i.compress_regions)
    convert_ddr_regions                      0x080156ed   Thumb Code   162  icbcfg.o(i.convert_ddr_regions)
    count_leading_zeroes                     0x0801578f   Thumb Code    18  icbcfg.o(i.count_leading_zeroes)
    count_set_bits                           0x080157a1   Thumb Code    96  icbcfg.o(i.count_set_bits)
    count_trailing_zeroes                    0x08015801   Thumb Code    32  icbcfg.o(i.count_trailing_zeroes)
    crc_32_calc                              0x08015821   Thumb Code    94  crc.o(i.crc_32_calc)
    dci_clk_regime_msm_reset_assert          0x080159c5   Thumb Code    32  qhsusb_dci_8909.o(i.dci_clk_regime_msm_reset_assert)
    dci_clk_regime_msm_reset_deassert        0x080159e9   Thumb Code    32  qhsusb_dci_8909.o(i.dci_clk_regime_msm_reset_deassert)
    dci_dcache_flush                         0x08015a0d   Thumb Code     4  qhsusb_dci_8909.o(i.dci_dcache_flush)
    dci_dcache_inval                         0x08015a11   Thumb Code     4  qhsusb_dci_8909.o(i.dci_dcache_inval)
    dci_detect_charger_type                  0x08015a15   Thumb Code   536  qhsusb_dci_8909.o(i.dci_detect_charger_type)
    dci_init_phy                             0x08015f41   Thumb Code    24  qhsusb_dci_8909.o(i.dci_init_phy)
    dci_is_streaming_mode_disable_required   0x08015f5d   Thumb Code     4  qhsusb_dci_8909.o(i.dci_is_streaming_mode_disable_required)
    dci_set_bulk_progress                    0x08015fb9   Thumb Code     6  qhsusb_dci.o(i.dci_set_bulk_progress)
    dci_skip_enumeration                     0x08016001   Thumb Code   118  qhsusb_dci.o(i.dci_skip_enumeration)
    ddr_test                                 0x08016085   Thumb Code   364  ddr_test.o(i.ddr_test)
    ddr_test_all                             0x08016305   Thumb Code    76  ddr_test.o(i.ddr_test_all)
    ddr_test_exit                            0x08016521   Thumb Code     2  ddr_test.o(i.ddr_test_exit)
    dload_debug_add_region                   0x08016de1   Thumb Code   110  boot_dload_debug.o(i.dload_debug_add_region)
    dload_debug_add_restricted_region        0x08016e59   Thumb Code    38  boot_dload_debug.o(i.dload_debug_add_restricted_region)
    dload_mem_debug_init                     0x08016e89   Thumb Code   180  boot_dload_debug.o(i.dload_mem_debug_init)
    dload_mem_debug_is_device_retail_unlocked 0x08016fdd   Thumb Code    12  boot_dload_debug.o(i.dload_mem_debug_is_device_retail_unlocked)
    dload_mem_debug_is_restricted_addr       0x08016fed   Thumb Code    96  boot_dload_debug.o(i.dload_mem_debug_is_restricted_addr)
    dload_mem_debug_len                      0x08017055   Thumb Code    82  boot_dload_debug.o(i.dload_mem_debug_len)
    dload_mem_debug_len_init                 0x080170b1   Thumb Code     8  boot_dload_debug.o(i.dload_mem_debug_len_init)
    dload_mem_debug_supported                0x080170bd   Thumb Code    62  boot_dload_debug.o(i.dload_mem_debug_supported)
    dload_mem_debug_table_addr               0x08017119   Thumb Code     4  boot_dload_debug.o(i.dload_mem_debug_table_addr)
    dload_mem_debug_target_init              0x08017121   Thumb Code   308  boot_dload_debug_target.o(i.dload_mem_debug_target_init)
    dload_mem_debug_verify_addr              0x080172dd   Thumb Code   104  boot_dload_debug.o(i.dload_mem_debug_verify_addr)
    dload_mem_debug_zero_peripheral_memory   0x0801734d   Thumb Code     4  boot_dload_debug.o(i.dload_mem_debug_zero_peripheral_memory)
    find_bn_MSB1                             0x08017351   Thumb Code    94  secmath_montmul_utils.o(i.find_bn_MSB1)
    flash_allocate_device_structure          0x080173b1   Thumb Code    60  boot_flash_dev_dal.o(i.flash_allocate_device_structure)
    flash_bam_deinit                         0x080173f5   Thumb Code    76  flash_bam_wrapper.o(i.flash_bam_deinit)
    flash_bam_exec_op                        0x08017445   Thumb Code   110  flash_hal_nandc_predef_bam_exec.o(i.flash_bam_exec_op)
    flash_bam_init                           0x080174b5   Thumb Code   278  flash_bam_wrapper.o(i.flash_bam_init)
    flash_bam_pipe_deinit                    0x080175e1   Thumb Code    30  flash_bam_wrapper.o(i.flash_bam_pipe_deinit)
    flash_bam_pipe_init                      0x08017601   Thumb Code    48  flash_bam_wrapper.o(i.flash_bam_pipe_init)
    flash_bam_poll_pipe                      0x08017635   Thumb Code   104  flash_bam_wrapper.o(i.flash_bam_poll_pipe)
    flash_bam_queue_desc                     0x080176c9   Thumb Code    54  flash_bam_wrapper.o(i.flash_bam_queue_desc)
    flash_bam_transfer                       0x08017701   Thumb Code    88  flash_bam_wrapper.o(i.flash_bam_transfer)
    flash_bam_wait_for_xfer_completion       0x0801775d   Thumb Code    56  flash_bam_wrapper.o(i.flash_bam_wait_for_xfer_completion)
    flash_boot_ops_get_parti_tbl             0x08017799   Thumb Code    72  flash_boot_ops_setup.o(i.flash_boot_ops_get_parti_tbl)
    flash_busy_wait                          0x080177ed   Thumb Code     4  flash_dal_util.o(i.flash_busy_wait)
    flash_close                              0x080177f1   Thumb Code    26  boot_flash_dev_dal.o(i.flash_close)
    flash_dal_device_deinit                  0x0801782d   Thumb Code    32  flash_dal.o(i.flash_dal_device_deinit)
    flash_dal_device_init                    0x0801784d   Thumb Code   104  flash_dal.o(i.flash_dal_device_init)
    flash_dal_driver_deinit                  0x080178b5   Thumb Code     4  flash_dal.o(i.flash_dal_driver_deinit)
    flash_dal_driver_init                    0x080178b9   Thumb Code     4  flash_dal.o(i.flash_dal_driver_init)
    flash_dcache_clean                       0x080178bd   Thumb Code    10  flash_dal_util.o(i.flash_dcache_clean)
    flash_dcache_inval                       0x080178c7   Thumb Code    10  flash_dal_util.o(i.flash_dcache_inval)
    flash_fwk_attach                         0x080178d9   Thumb Code   110  flash_dal_fwk.o(i.flash_fwk_attach)
    flash_get_property                       0x08017bf1   Thumb Code    98  flash_properties.o(i.flash_get_property)
    flash_hal_cache_clean                    0x08017c59   Thumb Code    12  flash_hal_properties.o(i.flash_hal_cache_clean)
    flash_hal_cache_inval                    0x08017c69   Thumb Code    12  flash_hal_properties.o(i.flash_hal_cache_inval)
    flash_hal_dev_deinit                     0x08017c79   Thumb Code    28  flash_hal_main.o(i.flash_hal_dev_deinit)
    flash_hal_dev_init                       0x08017c99   Thumb Code    16  flash_hal_main.o(i.flash_hal_dev_init)
    flash_hal_get_page_layout                0x08017cad   Thumb Code    24  flash_hal_main.o(i.flash_hal_get_page_layout)
    flash_hal_get_predef_mem_usage           0x08017cc9   Thumb Code    24  flash_hal_main.o(i.flash_hal_get_predef_mem_usage)
    flash_hal_handle_opti_memcpy             0x08017ce5   Thumb Code    12  flash_hal_properties.o(i.flash_hal_handle_opti_memcpy)
    flash_hal_handle_unc_memcpy              0x08017cf1   Thumb Code    68  flash_hal_properties.o(i.flash_hal_handle_unc_memcpy)
    flash_hal_handle_unc_memset              0x08017d35   Thumb Code    20  flash_hal_properties.o(i.flash_hal_handle_unc_memset)
    flash_hal_predef_init                    0x08017d49   Thumb Code    24  flash_hal_main.o(i.flash_hal_predef_init)
    flash_hal_read_bb_marker                 0x08017d65   Thumb Code    30  flash_hal_main.o(i.flash_hal_read_bb_marker)
    flash_hal_read_id                        0x08017d8d   Thumb Code    30  flash_hal_main.o(i.flash_hal_read_id)
    flash_hal_read_onfi_id                   0x08017db5   Thumb Code    30  flash_hal_main.o(i.flash_hal_read_onfi_id)
    flash_hal_read_page                      0x08017ddd   Thumb Code    30  flash_hal_main.o(i.flash_hal_read_page)
    flash_hal_read_param_page                0x08017e05   Thumb Code    30  flash_hal_main.o(i.flash_hal_read_param_page)
    flash_hal_set_address_cycles             0x08017e2d   Thumb Code    20  flash_hal_main.o(i.flash_hal_set_address_cycles)
    flash_hal_set_clk_cycle_gap              0x08017e45   Thumb Code    68  flash_hal_main.o(i.flash_hal_set_clk_cycle_gap)
    flash_hal_set_dev_width                  0x08017e9d   Thumb Code    24  flash_hal_main.o(i.flash_hal_set_dev_width)
    flash_hal_set_ecc_length                 0x08017eb9   Thumb Code    24  flash_hal_main.o(i.flash_hal_set_ecc_length)
    flash_hal_set_ecc_state                  0x08017ed5   Thumb Code    24  flash_hal_main.o(i.flash_hal_set_ecc_state)
    flash_hal_set_page_size                  0x08017ef1   Thumb Code    24  flash_hal_main.o(i.flash_hal_set_page_size)
    flash_hal_set_property                   0x08017f0d   Thumb Code    56  flash_hal_properties.o(i.flash_hal_set_property)
    flash_hal_set_spare_size                 0x08017f5d   Thumb Code    24  flash_hal_main.o(i.flash_hal_set_spare_size)
    flash_hal_set_xfer_cfg                   0x08017f79   Thumb Code    40  flash_hal_main.o(i.flash_hal_set_xfer_cfg)
    flash_i2c_configure                      0x08017fa9   Thumb Code    18  flash_extdrv_i2c_v2.o(i.flash_i2c_configure)
    flash_i2c_init                           0x08017fc9   Thumb Code    30  flash_extdrv_i2c_v2.o(i.flash_i2c_init)
    flash_i2c_read                           0x08017fed   Thumb Code   244  flash_extdrv_i2c_v2.o(i.flash_i2c_read)
    flash_i2c_write                          0x080180e9   Thumb Code   268  flash_extdrv_i2c_v2.o(i.flash_i2c_write)
    flash_initialize_device_structure        0x08018335   Thumb Code    38  boot_flash_dev_dal.o(i.flash_initialize_device_structure)
    flash_nand_block_count                   0x080183ad   Thumb Code     4  boot_flash_dev_dal.o(i.flash_nand_block_count)
    flash_nand_block_size                    0x080183b1   Thumb Code     4  boot_flash_dev_dal.o(i.flash_nand_block_size)
    flash_nand_copy_page                     0x08018405   Thumb Code    48  boot_flash_dev_dal.o(i.flash_nand_copy_page)
    flash_nand_device_id                     0x08018435   Thumb Code     4  boot_flash_dev_dal.o(i.flash_nand_device_id)
    flash_nand_device_name                   0x08018439   Thumb Code     4  boot_flash_dev_dal.o(i.flash_nand_device_name)
    flash_nand_device_type                   0x0801843d   Thumb Code     4  boot_flash_dev_dal.o(i.flash_nand_device_type)
    flash_nand_device_width                  0x08018441   Thumb Code     4  boot_flash_dev_dal.o(i.flash_nand_device_width)
    flash_nand_erase_block                   0x08018445   Thumb Code    26  boot_flash_dev_dal.o(i.flash_nand_erase_block)
    flash_nand_get_configs                   0x08018461   Thumb Code     6  flash_nand_config.o(i.flash_nand_get_configs)
    flash_nand_get_partition_attribs         0x0801846d   Thumb Code    20  boot_flash_dev_dal.o(i.flash_nand_get_partition_attribs)
    flash_nand_get_partition_phy_limits      0x08018481   Thumb Code    34  boot_flash_dev_dal.o(i.flash_nand_get_partition_phy_limits)
    flash_nand_get_spare_corrected_bcount    0x080184a3   Thumb Code     4  boot_flash_dev_dal.o(i.flash_nand_get_spare_corrected_bcount)
    flash_nand_is_block_erased               0x080184a7   Thumb Code    64  boot_flash_dev_dal.o(i.flash_nand_is_block_erased)
    flash_nand_is_page_erased                0x080184e9   Thumb Code    94  boot_flash_dev_dal.o(i.flash_nand_is_page_erased)
    flash_nand_lock_ops                      0x08018569   Thumb Code     4  boot_flash_dev_dal.o(i.flash_nand_lock_ops)
    flash_nand_maker_id                      0x0801856d   Thumb Code     4  boot_flash_dev_dal.o(i.flash_nand_maker_id)
    flash_nand_page_size                     0x08018571   Thumb Code     4  boot_flash_dev_dal.o(i.flash_nand_page_size)
    flash_nand_read_mpages                   0x08018575   Thumb Code    84  boot_flash_dev_dal.o(i.flash_nand_read_mpages)
    flash_nand_read_page                     0x080185cd   Thumb Code    84  boot_flash_dev_dal.o(i.flash_nand_read_page)
    flash_nand_read_page_and_udata           0x08018625   Thumb Code    74  boot_flash_dev_dal.o(i.flash_nand_read_page_and_udata)
    flash_nand_read_spare_bytes              0x08018675   Thumb Code    66  boot_flash_dev_dal.o(i.flash_nand_read_spare_bytes)
    flash_nand_read_spare_udata              0x080186bd   Thumb Code   100  boot_flash_dev_dal.o(i.flash_nand_read_spare_udata)
    flash_nand_total_page_size               0x08018741   Thumb Code     4  boot_flash_dev_dal.o(i.flash_nand_total_page_size)
    flash_nand_write_page                    0x08018745   Thumb Code    52  boot_flash_dev_dal.o(i.flash_nand_write_page)
    flash_nand_write_page_and_udata          0x0801877d   Thumb Code    64  boot_flash_dev_dal.o(i.flash_nand_write_page_and_udata)
    flash_nor_i2c_get_configs                0x080187c1   Thumb Code     6  flash_nor_i2c_config.o(i.flash_nor_i2c_get_configs)
    flash_nor_i2c_get_probe_table            0x080187cd   Thumb Code     6  flash_nor_i2c_config.o(i.flash_nor_i2c_get_probe_table)
    flash_open                               0x080187d9   Thumb Code   266  boot_flash_dev_dal.o(i.flash_open)
    flash_release_device_structure           0x080189c9   Thumb Code    68  boot_flash_dev_dal.o(i.flash_release_device_structure)
    flash_smem_alloc                         0x08018a15   Thumb Code     4  flash_boot_ops_setup.o(i.flash_smem_alloc)
    flash_strcpy                             0x08018a19   Thumb Code    26  flash_dal_util.o(i.flash_strcpy)
    flash_vtop_add_item                      0x08018a35   Thumb Code    32  flash_dal_util.o(i.flash_vtop_add_item)
    flash_vtop_get_physical                  0x08018a59   Thumb Code    58  flash_dal_util.o(i.flash_vtop_get_physical)
    flash_vtop_init_list                     0x08018a99   Thumb Code     8  flash_dal_util.o(i.flash_vtop_init_list)
    free                                     0x08018aa5   Thumb Code     2  DALHeap.o(i.free)
    gen_crc                                  0x08018aa7   Thumb Code    68  flash_onfi.o(i.gen_crc)
    get_device_configuration                 0x08018aed   Thumb Code   172  icbcfg.o(i.get_device_configuration)
    get_largest_valid_size                   0x08018c57   Thumb Code    48  icbcfg.o(i.get_largest_valid_size)
    get_partition_category                   0x08018cd5   Thumb Code    76  boot_ram_partition.o(i.get_partition_category)
    get_system_memory_map                    0x08018de1   Thumb Code   584  icbcfg.o(i.get_system_memory_map)
    hal_nand_bam_reg_read_buff_alloc         0x08019029   Thumb Code   106  flash_hal_nandc_predef_bam_init.o(i.hal_nand_bam_reg_read_buff_alloc)
    hal_nandc_bam_00_30_bb_marker_exec       0x08019099   Thumb Code   258  flash_hal_nandc_predef_bam_exec.o(i.hal_nandc_bam_00_30_bb_marker_exec)
    hal_nandc_bam_00_30_bb_marker_init       0x080191a5   Thumb Code   280  flash_hal_nandc_predef_bam_init.o(i.hal_nandc_bam_00_30_bb_marker_init)
    hal_nandc_bam_00_30_bb_marker_pprocess   0x080192c1   Thumb Code    10  flash_hal_nandc_predef_bam_pprocess.o(i.hal_nandc_bam_00_30_bb_marker_pprocess)
    hal_nandc_bam_00_30_x1_exec              0x080192d1   Thumb Code   202  flash_hal_nandc_predef_bam_exec.o(i.hal_nandc_bam_00_30_x1_exec)
    hal_nandc_bam_00_30_x1_init              0x080193a1   Thumb Code   438  flash_hal_nandc_predef_bam_init.o(i.hal_nandc_bam_00_30_x1_init)
    hal_nandc_bam_00_30_x1_pprocess          0x0801955d   Thumb Code    84  flash_hal_nandc_predef_bam_pprocess.o(i.hal_nandc_bam_00_30_x1_pprocess)
    hal_nandc_bam_00_EC_exec                 0x080195b5   Thumb Code   176  flash_hal_nandc_predef_bam_exec.o(i.hal_nandc_bam_00_EC_exec)
    hal_nandc_bam_00_EC_init                 0x08019669   Thumb Code   280  flash_hal_nandc_predef_bam_init.o(i.hal_nandc_bam_00_EC_init)
    hal_nandc_bam_00_EC_pprocess             0x08019785   Thumb Code    10  flash_hal_nandc_predef_bam_pprocess.o(i.hal_nandc_bam_00_EC_pprocess)
    hal_nandc_bam_90_onfi_id_exec            0x08019795   Thumb Code   160  flash_hal_nandc_predef_bam_exec.o(i.hal_nandc_bam_90_onfi_id_exec)
    hal_nandc_bam_90_onfi_id_init            0x0801983d   Thumb Code   280  flash_hal_nandc_predef_bam_init.o(i.hal_nandc_bam_90_onfi_id_init)
    hal_nandc_bam_90_onfi_id_pprocess        0x08019959   Thumb Code    10  flash_hal_nandc_predef_bam_pprocess.o(i.hal_nandc_bam_90_onfi_id_pprocess)
    hal_nandc_bam_FF_90_exec                 0x08019969   Thumb Code   200  flash_hal_nandc_predef_bam_exec.o(i.hal_nandc_bam_FF_90_exec)
    hal_nandc_bam_FF_90_init                 0x08019a39   Thumb Code   430  flash_hal_nandc_predef_bam_init.o(i.hal_nandc_bam_FF_90_init)
    hal_nandc_bam_FF_90_pprocess             0x08019bed   Thumb Code    10  flash_hal_nandc_predef_bam_pprocess.o(i.hal_nandc_bam_FF_90_pprocess)
    hal_nandc_bam_xfer_steps_init            0x08019c39   Thumb Code   162  flash_hal_nandc_predef_bam_init.o(i.hal_nandc_bam_xfer_steps_init)
    hal_nandc_close                          0x08019ce1   Thumb Code    12  flash_hal_nandc_common.o(i.hal_nandc_close)
    hal_nandc_deinit                         0x08019f5d   Thumb Code     4  flash_hal_nandc_common.o(i.hal_nandc_deinit)
    hal_nandc_fptrs_init                     0x08019f61   Thumb Code     4  flash_hal_nandc_reduced.o(i.hal_nandc_fptrs_init)
    hal_nandc_fptrs_init_reduced             0x08019f65   Thumb Code    38  flash_hal_nandc_predef_bam_core.o(i.hal_nandc_fptrs_init_reduced)
    hal_nandc_get_cache_info                 0x08019fad   Thumb Code    18  flash_hal_nandc_predef_bam_exec.o(i.hal_nandc_get_cache_info)
    hal_nandc_get_memory_usage               0x08019fc5   Thumb Code    62  flash_hal_nandc_common.o(i.hal_nandc_get_memory_usage)
    hal_nandc_get_page_layout                0x0801a005   Thumb Code    92  flash_hal_nandc_common.o(i.hal_nandc_get_page_layout)
    hal_nandc_iface_deinit                   0x0801a065   Thumb Code     2  flash_hal_nandc_predef_bam_core.o(i.hal_nandc_iface_deinit)
    hal_nandc_iface_init                     0x0801a069   Thumb Code    30  flash_hal_nandc_predef_bam_core.o(i.hal_nandc_iface_init)
    hal_nandc_init                           0x0801a091   Thumb Code   118  flash_hal_nandc_common.o(i.hal_nandc_init)
    hal_nandc_predef_bam_deinit              0x0801a125   Thumb Code     2  flash_hal_nandc_predef_bam_init.o(i.hal_nandc_predef_bam_deinit)
    hal_nandc_predef_bam_init                0x0801a129   Thumb Code   252  flash_hal_nandc_predef_bam_core.o(i.hal_nandc_predef_bam_init)
    hal_nandc_predef_cmd_blk_buff_alloc      0x0801a229   Thumb Code   122  flash_hal_nandc_predef_bam_init.o(i.hal_nandc_predef_cmd_blk_buff_alloc)
    hal_nandc_predef_cmd_list_init           0x0801a2a9   Thumb Code   654  flash_hal_nandc_predef_bam_init.o(i.hal_nandc_predef_cmd_list_init)
    hal_nandc_predef_cmd_ptrs_init           0x0801a545   Thumb Code     4  flash_hal_nandc_reduced.o(i.hal_nandc_predef_cmd_ptrs_init)
    hal_nandc_predef_cmd_ptrs_init_reduced   0x0801a549   Thumb Code   126  flash_hal_nandc_predef_bam_core.o(i.hal_nandc_predef_cmd_ptrs_init_reduced)
    hal_nandc_predef_desc_buff_alloc         0x0801a5e1   Thumb Code    60  flash_hal_nandc_predef_bam_init.o(i.hal_nandc_predef_desc_buff_alloc)
    hal_nandc_predef_desc_list_init          0x0801a621   Thumb Code    78  flash_hal_nandc_predef_bam_init.o(i.hal_nandc_predef_desc_list_init)
    hal_nandc_set_memory_region              0x0801a689   Thumb Code    20  flash_hal_nandc_predef_bam_init.o(i.hal_nandc_set_memory_region)
    hal_nandc_set_xfer_cfg_exec              0x0801a6a1   Thumb Code    74  flash_hal_nandc_predef_bam_exec.o(i.hal_nandc_set_xfer_cfg_exec)
    i2c_io_init                              0x0801ac01   Thumb Code    20  flash_extdrv_i2c_v2.o(i.i2c_io_init)
    i2c_qup_init                             0x0801ac69   Thumb Code    56  flash_extdrv_i2c_v2.o(i.i2c_qup_init)
    image_uuid                               0x0801ace5   Thumb Code    24  image_uuid.o(i.image_uuid)
    image_version_initialize_version_table   0x0801ad05   Thumb Code    30  image_version.o(i.image_version_initialize_version_table)
    image_version_populate_version           0x0801ad25   Thumb Code   202  image_version.o(i.image_version_populate_version)
    inverse32                                0x0801ae85   Thumb Code    34  secmath_montmul_utils.o(i.inverse32)
    kick_watchdog                            0x0801aea7   Thumb Code     2  flash_properties.o(i.kick_watchdog)
    malloc                                   0x0801af99   Thumb Code    62  DALHeap.o(i.malloc)
    map_segments                             0x0801afdd   Thumb Code  1108  icbcfg.o(i.map_segments)
    memscpy                                  0x0801b431   Thumb Code    26  memscpy.o(i.memscpy)
    mod_exp                                  0x0801b529   Thumb Code   438  secmath_mod_exp.o(i.mod_exp)
    montmul_one_ref                          0x0801b6df   Thumb Code   130  secmath_montmul_ref.o(i.montmul_one_ref)
    montmul_ref1                             0x0801b761   Thumb Code   202  secmath_montmul_ref.o(i.montmul_ref1)
    mult_R_mod_m                             0x0801b82b   Thumb Code   156  secmath_barrett_reduce.o(i.mult_R_mod_m)
    mult_base_mod_m                          0x0801b8c7   Thumb Code   208  secmath_barrett_reduce.o(i.mult_base_mod_m)
    nand_close                               0x0801ba7d   Thumb Code    34  flash_nand_init.o(i.nand_close)
    nand_deinit                              0x0801bbe5   Thumb Code    72  flash_nand_init.o(i.nand_deinit)
    nand_entry_block_get_state               0x0801bc31   Thumb Code    44  flash_nand_entry.o(i.nand_entry_block_get_state)
    nand_entry_device_probe                  0x0801bcb1   Thumb Code    82  flash_nand_entry.o(i.nand_entry_device_probe)
    nand_entry_mem_alloc                     0x0801be65   Thumb Code   174  flash_nand_entry.o(i.nand_entry_mem_alloc)
    nand_entry_read_pages                    0x0801bf95   Thumb Code   122  flash_nand_entry.o(i.nand_entry_read_pages)
    nand_get_block_state                     0x0801c015   Thumb Code     4  flash_nand_core.o(i.nand_get_block_state)
    nand_get_entry_vtbl                      0x0801c1bb   Thumb Code     4  flash_dal_nand_reduced.o(i.nand_get_entry_vtbl)
    nand_get_entry_vtbl_reduced              0x0801c1c1   Thumb Code    28  flash_nand_entry.o(i.nand_get_entry_vtbl_reduced)
    nand_onfi_probe                          0x0801c52d   Thumb Code   492  flash_onfi.o(i.nand_onfi_probe)
    nand_open_partition                      0x0801c721   Thumb Code     4  flash_nand_init.o(i.nand_open_partition)
    nand_partition_update_limits             0x0801c725   Thumb Code    54  flash_nand_partition.o(i.nand_partition_update_limits)
    nand_predef_init                         0x0801c765   Thumb Code    98  flash_nand_init.o(i.nand_predef_init)
    nand_probe                               0x0801c7d1   Thumb Code   212  flash_nand_init.o(i.nand_probe)
    nand_read_id                             0x0801c969   Thumb Code    34  flash_nand_core.o(i.nand_read_id)
    nand_read_pages                          0x0801ca6d   Thumb Code   170  flash_nand_core.o(i.nand_read_pages)
    nand_retrieve_mibib                      0x0801cb19   Thumb Code   352  flash_nand_partition.o(i.nand_retrieve_mibib)
    nor_entry_device_probe_reduced           0x0801cea9   Thumb Code    60  flash_nor_entry_reduced.o(i.nor_entry_device_probe_reduced)
    nor_i2c_init_client_info                 0x0801d129   Thumb Code   110  flash_nor_i2c_init.o(i.nor_i2c_init_client_info)
    nor_i2c_probe                            0x0801d1b9   Thumb Code   192  flash_nor_i2c_init.o(i.nor_i2c_probe)
    nor_i2c_read_op                          0x0801d281   Thumb Code    18  flash_nor_i2c_init.o(i.nor_i2c_read_op)
    nor_i2c_write_op                         0x0801d2f9   Thumb Code    18  flash_nor_i2c_init.o(i.nor_i2c_write_op)
    pbl_clk_julian_to_secs                   0x0801d393   Thumb Code   260  secboot_asn1.o(i.pbl_clk_julian_to_secs)
    pbl_secasn1_close_sequence               0x0801d497   Thumb Code    30  secboot_asn1.o(i.pbl_secasn1_close_sequence)
    pbl_secasn1_decode_bit_string            0x0801d4b5   Thumb Code    68  secboot_asn1.o(i.pbl_secasn1_decode_bit_string)
    pbl_secasn1_decode_boolean               0x0801d4f9   Thumb Code    54  secboot_asn1.o(i.pbl_secasn1_decode_boolean)
    pbl_secasn1_decode_length                0x0801d52f   Thumb Code   120  secboot_asn1.o(i.pbl_secasn1_decode_length)
    pbl_secasn1_decode_tag                   0x0801d5a7   Thumb Code    68  secboot_asn1.o(i.pbl_secasn1_decode_tag)
    pbl_secasn1_decode_time                  0x0801d5ed   Thumb Code   278  secboot_asn1.o(i.pbl_secasn1_decode_time)
    pbl_secasn1_end                          0x0801d70d   Thumb Code    30  secboot_asn1.o(i.pbl_secasn1_end)
    pbl_secasn1_next_field                   0x0801d72b   Thumb Code   206  secboot_asn1.o(i.pbl_secasn1_next_field)
    pbl_secasn1_start                        0x0801d7f9   Thumb Code    96  secboot_asn1.o(i.pbl_secasn1_start)
    pbl_secx509_check_cert_list              0x0801d859   Thumb Code   142  secboot_x509.o(i.pbl_secx509_check_cert_list)
    pbl_secx509_check_issued                 0x0801d8e7   Thumb Code   144  secboot_x509.o(i.pbl_secx509_check_issued)
    pbl_secx509_check_purpose                0x0801d977   Thumb Code    34  secboot_x509.o(i.pbl_secx509_check_purpose)
    pbl_secx509_get_asn1_cert_size           0x0801d999   Thumb Code    72  secboot_x509.o(i.pbl_secx509_get_asn1_cert_size)
    pbl_secx509_name_cmp                     0x0801d9e1   Thumb Code    30  secboot_x509.o(i.pbl_secx509_name_cmp)
    pbl_secx509_parse_auth_key_id            0x0801d9ff   Thumb Code   110  secboot_x509.o(i.pbl_secx509_parse_auth_key_id)
    pbl_secx509_parse_basic_constraint       0x0801da6d   Thumb Code   166  secboot_x509.o(i.pbl_secx509_parse_basic_constraint)
    pbl_secx509_parse_cert_buffer            0x0801db15   Thumb Code   288  secboot_x509.o(i.pbl_secx509_parse_cert_buffer)
    pbl_secx509_parse_certificate            0x0801dc39   Thumb Code   322  secboot_x509.o(i.pbl_secx509_parse_certificate)
    pbl_secx509_parse_dn                     0x0801dd7d   Thumb Code   750  secboot_x509.o(i.pbl_secx509_parse_dn)
    pbl_secx509_parse_ex_key_usage           0x0801e075   Thumb Code   278  secboot_x509.o(i.pbl_secx509_parse_ex_key_usage)
    pbl_secx509_parse_extensions             0x0801e191   Thumb Code   506  secboot_x509.o(i.pbl_secx509_parse_extensions)
    pbl_secx509_parse_gen_name_for_dir       0x0801e391   Thumb Code    68  secboot_x509.o(i.pbl_secx509_parse_gen_name_for_dir)
    pbl_secx509_parse_key_usage              0x0801e3d5   Thumb Code    90  secboot_x509.o(i.pbl_secx509_parse_key_usage)
    pbl_secx509_parse_pub_key                0x0801e431   Thumb Code   326  secboot_x509.o(i.pbl_secx509_parse_pub_key)
    pbl_secx509_parse_sig_algorithm          0x0801e57d   Thumb Code   174  secboot_x509.o(i.pbl_secx509_parse_sig_algorithm)
    pbl_secx509_parse_signature              0x0801e631   Thumb Code   118  secboot_x509.o(i.pbl_secx509_parse_signature)
    pbl_secx509_parse_unique_id              0x0801e6a7   Thumb Code    34  secboot_x509.o(i.pbl_secx509_parse_unique_id)
    pbl_secx509_parse_validity               0x0801e6c9   Thumb Code   156  secboot_x509.o(i.pbl_secx509_parse_validity)
    pbl_secx509_parse_version                0x0801e765   Thumb Code    66  secboot_x509.o(i.pbl_secx509_parse_version)
    pbl_secx509_skip_num_certs               0x0801e7a7   Thumb Code    64  secboot_x509.o(i.pbl_secx509_skip_num_certs)
    pm_cfg_device_index                      0x0801e7e9   Thumb Code    10  pm_app_chg_alg.o(i.pm_cfg_device_index)
    pm_chg_battery_and_debug_board_detect_state 0x0801e7f9   Thumb Code   162  pm_app_chg_alg.o(i.pm_chg_battery_and_debug_board_detect_state)
    pm_chg_bootup_ok_state                   0x0801e8cd   Thumb Code    78  pm_app_chg_alg.o(i.pm_chg_bootup_ok_state)
    pm_chg_cdp_charging_state                0x0801e935   Thumb Code    80  pm_app_chg_alg.o(i.pm_chg_cdp_charging_state)
    pm_chg_charger_detect_state              0x0801e9a9   Thumb Code   230  pm_app_chg_alg.o(i.pm_chg_charger_detect_state)
    pm_chg_dcp_charging_state                0x0801eb2d   Thumb Code    90  pm_app_chg_alg.o(i.pm_chg_dcp_charging_state)
    pm_chg_driver_init                       0x0801ebc1   Thumb Code    84  pm_chg_driver.o(i.pm_chg_driver_init)
    pm_chg_enable_usb_charging               0x0801ec19   Thumb Code   344  pm_app_chg_alg.o(i.pm_chg_enable_usb_charging)
    pm_chg_float_charging_state              0x0801ee11   Thumb Code    80  pm_app_chg_alg.o(i.pm_chg_float_charging_state)
    pm_chg_get_battery_volt_level            0x0801ee85   Thumb Code    70  pm_app_chg_util.o(i.pm_chg_get_battery_volt_level)
    pm_chg_get_chg_option                    0x0801eed5   Thumb Code    40  pm_app_chg_util.o(i.pm_chg_get_chg_option)
    pm_chg_get_enum_timer_expired            0x0801eefd   Thumb Code    40  pm_app_chg_util.o(i.pm_chg_get_enum_timer_expired)
    pm_chg_get_enum_timer_status             0x0801ef25   Thumb Code    40  pm_app_chg_util.o(i.pm_chg_get_enum_timer_status)
    pm_chg_get_peripheral_sub_type           0x0801ef4d   Thumb Code    16  pm_chg_driver.o(i.pm_chg_get_peripheral_sub_type)
    pm_chg_is_battery_present                0x0801ef61   Thumb Code    82  pm_app_chg_util.o(i.pm_chg_is_battery_present)
    pm_chg_is_battery_weak                   0x0801efb5   Thumb Code    60  pm_app_chg_alg.o(i.pm_chg_is_battery_weak)
    pm_chg_is_charger_present                0x0801f005   Thumb Code    90  pm_app_chg_util.o(i.pm_chg_is_charger_present)
    pm_chg_is_debug_board_present            0x0801f05f   Thumb Code    96  pm_app_chg_util.o(i.pm_chg_is_debug_board_present)
    pm_chg_sbl_charging_state_entry          0x0801f1ad   Thumb Code    54  pm_app_chg_alg.o(i.pm_chg_sbl_charging_state_entry)
    pm_chg_sdp_charging_state                0x0801f1e9   Thumb Code   180  pm_app_chg_alg.o(i.pm_chg_sdp_charging_state)
    pm_chg_set_atc_led                       0x0801f2fd   Thumb Code    48  pm_chg.o(i.pm_chg_set_atc_led)
    pm_chg_set_battery_threshold             0x0801f32d   Thumb Code    58  pm_app_chg_util.o(i.pm_chg_set_battery_threshold)
    pm_chg_set_boot_done                     0x0801f367   Thumb Code    36  pm_app_chg_util.o(i.pm_chg_set_boot_done)
    pm_chg_set_comp_override                 0x0801f38b   Thumb Code    48  pm_app_chg_util.o(i.pm_chg_set_comp_override)
    pm_chg_set_ibat_atc_b                    0x0801f3bb   Thumb Code    40  pm_app_chg_util.o(i.pm_chg_set_ibat_atc_b)
    pm_chg_set_ibat_max                      0x0801f3e3   Thumb Code    48  pm_app_chg_util.o(i.pm_chg_set_ibat_max)
    pm_chg_set_ibat_safe                     0x0801f413   Thumb Code    40  pm_app_chg_util.o(i.pm_chg_set_ibat_safe)
    pm_chg_set_itrkl                         0x0801f43b   Thumb Code    40  pm_app_chg_util.o(i.pm_chg_set_itrkl)
    pm_chg_set_iusb_max                      0x0801f463   Thumb Code    40  pm_app_chg_util.o(i.pm_chg_set_iusb_max)
    pm_chg_set_mode                          0x0801f48b   Thumb Code    48  pm_app_chg_util.o(i.pm_chg_set_mode)
    pm_chg_set_vin_min                       0x0801f4bb   Thumb Code    40  pm_app_chg_util.o(i.pm_chg_set_vin_min)
    pm_chg_shutdown_state                    0x0801f4e5   Thumb Code    90  pm_app_chg_alg.o(i.pm_chg_shutdown_state)
    pm_chg_stop_enum_timer                   0x0801f591   Thumb Code    36  pm_app_chg_util.o(i.pm_chg_stop_enum_timer)
    pm_clk_busy_wait                         0x0801f5b5   Thumb Code    18  pm_utils.o(i.pm_clk_busy_wait)
    pm_clk_driver_init                       0x0801f5c9   Thumb Code   284  pm_clk_driver.o(i.pm_clk_driver_init)
    pm_coincell_driver_init                  0x0801f6fd   Thumb Code   118  pm_coincell_driver.o(i.pm_coincell_driver_init)
    pm_comm_get_comm_info                    0x0801f799   Thumb Code    28  pm_comm.o(i.pm_comm_get_comm_info)
    pm_comm_info_init                        0x0801f7b9   Thumb Code    82  pm_comm.o(i.pm_comm_info_init)
    pm_comm_read_byte                        0x0801f811   Thumb Code    38  pm_comm_spmi_lite.o(i.pm_comm_read_byte)
    pm_comm_read_byte_array                  0x0801f837   Thumb Code    30  pm_comm_spmi_lite.o(i.pm_comm_read_byte_array)
    pm_comm_read_byte_mask                   0x0801f855   Thumb Code    28  pm_comm_spmi_lite.o(i.pm_comm_read_byte_mask)
    pm_comm_write_byte                       0x0801f871   Thumb Code    34  pm_comm_spmi_lite.o(i.pm_comm_write_byte)
    pm_comm_write_byte_array                 0x0801f893   Thumb Code    24  pm_comm_spmi_lite.o(i.pm_comm_write_byte_array)
    pm_comm_write_byte_mask                  0x0801f8ab   Thumb Code    86  pm_comm_spmi_lite.o(i.pm_comm_write_byte_mask)
    pm_device_init                           0x0801f901   Thumb Code   450  pm_sbl_boot.o(i.pm_device_init)
    pm_driver_init                           0x0801fc09   Thumb Code    16  pm_init.o(i.pm_driver_init)
    pm_driver_post_init                      0x0801fc19   Thumb Code    32  pm_sbl_boot.o(i.pm_driver_post_init)
    pm_get_num_slaves_per_pmic               0x0801fc39   Thumb Code     4  pm_version.o(i.pm_get_num_slaves_per_pmic)
    pm_get_pbs_info                          0x0801fc3d   Thumb Code   114  pm_pbs_info.o(i.pm_get_pbs_info)
    pm_get_pmic_info                         0x0801fcb9   Thumb Code    44  pm_version.o(i.pm_get_pmic_info)
    pm_get_pmic_model                        0x0801fced   Thumb Code    30  pm_version.o(i.pm_get_pmic_model)
    pm_get_slave_id                          0x0801fd15   Thumb Code    44  pm_version.o(i.pm_get_slave_id)
    pm_gpio_driver_init                      0x0801fdd1   Thumb Code   126  pm_gpio_driver.o(i.pm_gpio_driver_init)
    pm_ibb_driver_init                       0x0801fe71   Thumb Code    96  pm_ibb_driver.o(i.pm_ibb_driver_init)
    pm_lab_driver_init                       0x0801fee9   Thumb Code    96  pm_lab_driver.o(i.pm_lab_driver_init)
    pm_lbc_chg_get_battery_present           0x0801ff61   Thumb Code    92  pm_lbc.o(i.pm_lbc_chg_get_battery_present)
    pm_lbc_chg_get_charger_present           0x0801ffbd   Thumb Code   168  pm_lbc.o(i.pm_lbc_chg_get_charger_present)
    pm_lbc_chg_get_chg_option                0x08020065   Thumb Code    76  pm_lbc.o(i.pm_lbc_chg_get_chg_option)
    pm_lbc_chg_get_enum_timer_expired        0x080200b1   Thumb Code    82  pm_lbc.o(i.pm_lbc_chg_get_enum_timer_expired)
    pm_lbc_chg_get_enum_timer_staus          0x08020103   Thumb Code    78  pm_lbc.o(i.pm_lbc_chg_get_enum_timer_staus)
    pm_lbc_chg_set_atc_led                   0x08020151   Thumb Code    56  pm_lbc.o(i.pm_lbc_chg_set_atc_led)
    pm_lbc_chg_set_battery_threshold         0x08020189   Thumb Code   202  pm_lbc.o(i.pm_lbc_chg_set_battery_threshold)
    pm_lbc_chg_set_boot_done                 0x08020253   Thumb Code    62  pm_lbc.o(i.pm_lbc_chg_set_boot_done)
    pm_lbc_chg_set_comp_override             0x08020291   Thumb Code    96  pm_lbc.o(i.pm_lbc_chg_set_comp_override)
    pm_lbc_chg_set_ibat_atc_b                0x080202f1   Thumb Code    68  pm_lbc.o(i.pm_lbc_chg_set_ibat_atc_b)
    pm_lbc_chg_set_ibat_max                  0x08020335   Thumb Code   100  pm_lbc.o(i.pm_lbc_chg_set_ibat_max)
    pm_lbc_chg_set_ibat_safe                 0x08020399   Thumb Code   100  pm_lbc.o(i.pm_lbc_chg_set_ibat_safe)
    pm_lbc_chg_set_mode                      0x080203fd   Thumb Code    84  pm_lbc.o(i.pm_lbc_chg_set_mode)
    pm_lbc_chg_set_vin_min                   0x08020451   Thumb Code    78  pm_lbc.o(i.pm_lbc_chg_set_vin_min)
    pm_lbc_chg_stop_enum_timer               0x0802049f   Thumb Code    62  pm_lbc.o(i.pm_lbc_chg_stop_enum_timer)
    pm_lbc_driver_init                       0x080204dd   Thumb Code   126  pm_lbc_driver.o(i.pm_lbc_driver_init)
    pm_lbc_get_data                          0x08020579   Thumb Code    16  pm_lbc_driver.o(i.pm_lbc_get_data)
    pm_ldo_driver_init                       0x0802058d   Thumb Code   334  pm_ldo_driver.o(i.pm_ldo_driver_init)
    pm_led_config                            0x08020865   Thumb Code   272  pm_app_led.o(i.pm_led_config)
    pm_led_enable                            0x08020989   Thumb Code   102  pm_app_led.o(i.pm_led_enable)
    pm_led_get_default_led                   0x08020a05   Thumb Code    16  pm_app_led.o(i.pm_led_get_default_led)
    pm_led_get_led_info                      0x08020a15   Thumb Code    24  pm_app_led.o(i.pm_led_get_led_info)
    pm_lpg_config_pwm_type                   0x08020a31   Thumb Code    92  pm_lpg.o(i.pm_lpg_config_pwm_type)
    pm_lpg_driver_init                       0x08020a8d   Thumb Code   126  pm_lpg_driver.o(i.pm_lpg_driver_init)
    pm_lpg_get_data                          0x08020b29   Thumb Code    16  pm_lpg_driver.o(i.pm_lpg_get_data)
    pm_lpg_pattern_config                    0x08020b3d   Thumb Code    92  pm_lpg.o(i.pm_lpg_pattern_config)
    pm_lpg_pwm_clock_sel                     0x08020b99   Thumb Code    62  pm_lpg.o(i.pm_lpg_pwm_clock_sel)
    pm_lpg_pwm_enable                        0x08020bd7   Thumb Code    68  pm_lpg.o(i.pm_lpg_pwm_enable)
    pm_lpg_pwm_set_pre_divide                0x08020c1b   Thumb Code    68  pm_lpg.o(i.pm_lpg_pwm_set_pre_divide)
    pm_lpg_pwm_set_pwm_value                 0x08020c5f   Thumb Code   110  pm_lpg.o(i.pm_lpg_pwm_set_pwm_value)
    pm_lpg_set_pwm_bit_size                  0x08020ccd   Thumb Code    96  pm_lpg.o(i.pm_lpg_set_pwm_bit_size)
    pm_malloc                                0x08020d2d   Thumb Code    52  pm_utils.o(i.pm_malloc)
    pm_mpp_config_analog_input               0x08020e1f   Thumb Code   152  pm_mpp.o(i.pm_mpp_config_analog_input)
    pm_mpp_config_i_sink                     0x08020eb7   Thumb Code   166  pm_mpp.o(i.pm_mpp_config_i_sink)
    pm_mpp_driver_init                       0x08020f95   Thumb Code   230  pm_mpp_driver.o(i.pm_mpp_driver_init)
    pm_mpp_enable                            0x08021099   Thumb Code    62  pm_mpp.o(i.pm_mpp_enable)
    pm_mpp_get_data                          0x080210d9   Thumb Code    16  pm_mpp_driver.o(i.pm_mpp_get_data)
    pm_oem_init                              0x080210ed   Thumb Code     4  pm_init.o(i.pm_oem_init)
    pm_pbs_client_driver_init                0x080210f1   Thumb Code   136  pm_pbs_client_driver.o(i.pm_pbs_client_driver_init)
    pm_pbs_config_access                     0x0802119d   Thumb Code    78  pm_pbs_driver.o(i.pm_pbs_config_access)
    pm_pbs_disable_access                    0x080211eb   Thumb Code    12  pm_pbs_driver.o(i.pm_pbs_disable_access)
    pm_pbs_enable_access                     0x080211f7   Thumb Code    12  pm_pbs_driver.o(i.pm_pbs_enable_access)
    pm_pbs_info_init                         0x08021205   Thumb Code   158  pm_pbs_info.o(i.pm_pbs_info_init)
    pm_pbs_info_store_glb_ctxt               0x08021599   Thumb Code    84  pm_pbs_info.o(i.pm_pbs_info_store_glb_ctxt)
    pm_pbs_ram_image_load                    0x08021601   Thumb Code    94  pm_pbs_driver.o(i.pm_pbs_ram_image_load)
    pm_pbs_ram_image_verify                  0x0802165f   Thumb Code    88  pm_pbs_driver.o(i.pm_pbs_ram_image_verify)
    pm_pbs_ram_version_validation_test       0x080216b9   Thumb Code    74  pm_config_sbl.o(i.pm_pbs_ram_version_validation_test)
    pm_pon_get_all_pon_reasons               0x0802171d   Thumb Code    62  pm_pon.o(i.pm_pon_get_all_pon_reasons)
    pm_pon_init                              0x08021761   Thumb Code   190  pm_pon.o(i.pm_pon_init)
    pm_pon_ps_hold_cfg                       0x08021829   Thumb Code   162  pm_pon.o(i.pm_pon_ps_hold_cfg)
    pm_pon_reset_source_cfg                  0x080218d1   Thumb Code   418  pm_pon.o(i.pm_pon_reset_source_cfg)
    pm_pon_warm_reset_status                 0x08021a79   Thumb Code    78  pm_pon.o(i.pm_pon_warm_reset_status)
    pm_pon_warm_reset_status_clear           0x08021acd   Thumb Code    40  pm_pon.o(i.pm_pon_warm_reset_status_clear)
    pm_pwm_driver_init                       0x08021af9   Thumb Code    96  pm_pwm_driver.o(i.pm_pwm_driver_init)
    pm_resolve_chip_revision                 0x08021b71   Thumb Code    56  pm_version.o(i.pm_resolve_chip_revision)
    pm_resource_manager_init                 0x08021c5b   Thumb Code    92  pm_resource_manager.o(i.pm_resource_manager_init)
    pm_rgb_driver_init                       0x08021cb9   Thumb Code   126  pm_rgb_driver.o(i.pm_rgb_driver_init)
    pm_rgb_enable                            0x08021d55   Thumb Code   166  pm_rgb.o(i.pm_rgb_enable)
    pm_rgb_get_data                          0x08021dfd   Thumb Code    16  pm_rgb_driver.o(i.pm_rgb_get_data)
    pm_rgb_led_config                        0x08021e11   Thumb Code   208  pm_app_rgb.o(i.pm_rgb_led_config)
    pm_rgb_set_voltage_source                0x08021ee1   Thumb Code    78  pm_rgb.o(i.pm_rgb_set_voltage_source)
    pm_rtc_driver_init                       0x08021f31   Thumb Code    44  pm_rtc_driver.o(i.pm_rtc_driver_init)
    pm_sbl_config                            0x08021f61   Thumb Code   210  pm_config_sbl.o(i.pm_sbl_config)
    pm_sbl_config_test                       0x08022039   Thumb Code   272  pm_config_sbl.o(i.pm_sbl_config_test)
    pm_sbl_validate_reg_config               0x080221dd   Thumb Code    62  pm_config_sbl.o(i.pm_sbl_validate_reg_config)
    pm_smb_deinit                            0x08022261   Thumb Code    36  pm_smb.o(i.pm_smb_deinit)
    pm_smb_driver_init                       0x08022289   Thumb Code    62  pm_smb_driver.o(i.pm_smb_driver_init)
    pm_smb_get_feature_list                  0x080222e1   Thumb Code    16  pm_smb_driver.o(i.pm_smb_get_feature_list)
    pm_smb_get_info                          0x080222f5   Thumb Code     6  pm_smb_driver.o(i.pm_smb_get_info)
    pm_smb_init                              0x08022301   Thumb Code    94  pm_smb.o(i.pm_smb_init)
    pm_smb_set_ibat_fast                     0x08022365   Thumb Code   146  pm_smb.o(i.pm_smb_set_ibat_fast)
    pm_smb_set_icl                           0x08022429   Thumb Code   146  pm_smb.o(i.pm_smb_set_icl)
    pm_smb_set_icl_mode                      0x080224ed   Thumb Code   278  pm_smb.o(i.pm_smb_set_icl_mode)
    pm_smbb_chg_get_attached_charger         0x08022635   Thumb Code   162  pm_smbb.o(i.pm_smbb_chg_get_attached_charger)
    pm_smbb_chg_get_battery_present          0x080226d7   Thumb Code   138  pm_smbb.o(i.pm_smbb_chg_get_battery_present)
    pm_smbb_chg_set_atc_led                  0x08022761   Thumb Code    56  pm_smbb.o(i.pm_smbb_chg_set_atc_led)
    pm_smbb_chg_set_battery_threshold        0x08022799   Thumb Code   204  pm_smbb.o(i.pm_smbb_chg_set_battery_threshold)
    pm_smbb_chg_set_comp_override            0x08022865   Thumb Code   108  pm_smbb.o(i.pm_smbb_chg_set_comp_override)
    pm_smbb_chg_set_ibat_max                 0x080228d1   Thumb Code    94  pm_smbb.o(i.pm_smbb_chg_set_ibat_max)
    pm_smbb_chg_set_itrkl                    0x0802292f   Thumb Code    90  pm_smbb.o(i.pm_smbb_chg_set_itrkl)
    pm_smbb_chg_set_iusb_max                 0x08022989   Thumb Code   188  pm_smbb.o(i.pm_smbb_chg_set_iusb_max)
    pm_smbb_chg_set_mode                     0x08022a45   Thumb Code   174  pm_smbb.o(i.pm_smbb_chg_set_mode)
    pm_smbb_driver_init                      0x08022af5   Thumb Code   126  pm_smbb_driver.o(i.pm_smbb_driver_init)
    pm_smbb_get_data                         0x08022b95   Thumb Code    16  pm_smbb_driver.o(i.pm_smbb_get_data)
    pm_smem_init                             0x08022ba9   Thumb Code    52  pm_sbl_smem.o(i.pm_smem_init)
    pm_smps_driver_init                      0x08022bdd   Thumb Code   550  pm_smps_driver.o(i.pm_smps_driver_init)
    pm_target_information_get_common_info    0x08022e25   Thumb Code    26  pm_target_information.o(i.pm_target_information_get_common_info)
    pm_target_information_get_periph_count_info 0x08022e49   Thumb Code    28  pm_target_information.o(i.pm_target_information_get_periph_count_info)
    pm_target_information_get_specific_info  0x08022e6d   Thumb Code    26  pm_target_information.o(i.pm_target_information_get_specific_info)
    pm_target_information_init               0x08022e91   Thumb Code   122  pm_target_information.o(i.pm_target_information_init)
    pm_target_information_read_peripheral_rev 0x08022ff1   Thumb Code   128  pm_target_information.o(i.pm_target_information_read_peripheral_rev)
    pm_target_information_spmi_chnl_cfg      0x08023075   Thumb Code   116  pm_target_information.o(i.pm_target_information_spmi_chnl_cfg)
    pm_version_detect                        0x0802314d   Thumb Code   250  pm_version.o(i.pm_version_detect)
    pm_vib_driver_init                       0x08023255   Thumb Code   146  pm_vib_driver.o(i.pm_vib_driver_init)
    pm_vs_driver_init                        0x08023305   Thumb Code   248  pm_vs_driver.o(i.pm_vs_driver_init)
    pm_wled_driver_init                      0x08023419   Thumb Code    96  pm_wled_driver.o(i.pm_wled_driver_init)
    pmapp_ps_hold_cfg                        0x08023495   Thumb Code    30  pm_app_pon.o(i.pmapp_ps_hold_cfg)
    qhsusb_al_bulk_get_max_packet_size       0x080236d9   Thumb Code     6  qhsusb_al_bulk.o(i.qhsusb_al_bulk_get_max_packet_size)
    qhsusb_al_bulk_get_max_raw_data_size     0x080236df   Thumb Code     6  qhsusb_al_bulk.o(i.qhsusb_al_bulk_get_max_raw_data_size)
    qhsusb_al_bulk_handle_rx_zlp_mode        0x080236e5   Thumb Code    42  qhsusb_al_bulk.o(i.qhsusb_al_bulk_handle_rx_zlp_mode)
    qhsusb_al_bulk_init                      0x08023715   Thumb Code   174  qhsusb_al_bulk.o(i.qhsusb_al_bulk_init)
    qhsusb_al_bulk_poll                      0x080237d9   Thumb Code   112  qhsusb_al_bulk.o(i.qhsusb_al_bulk_poll)
    qhsusb_al_bulk_receive                   0x0802384d   Thumb Code   184  qhsusb_al_bulk.o(i.qhsusb_al_bulk_receive)
    qhsusb_al_bulk_receive_zlp               0x0802390d   Thumb Code    52  qhsusb_al_bulk.o(i.qhsusb_al_bulk_receive_zlp)
    qhsusb_al_bulk_setup_timer               0x08023ac1   Thumb Code    44  qhsusb_al_bulk.o(i.qhsusb_al_bulk_setup_timer)
    qhsusb_al_bulk_shutdown                  0x08023af1   Thumb Code    58  qhsusb_al_bulk.o(i.qhsusb_al_bulk_shutdown)
    qhsusb_al_bulk_start_timer               0x08023b35   Thumb Code    34  qhsusb_al_bulk.o(i.qhsusb_al_bulk_start_timer)
    qhsusb_al_bulk_stop_timer                0x08023b5d   Thumb Code    20  qhsusb_al_bulk.o(i.qhsusb_al_bulk_stop_timer)
    qhsusb_al_bulk_transmit                  0x08023b75   Thumb Code   130  qhsusb_al_bulk.o(i.qhsusb_al_bulk_transmit)
    qhsusb_al_check_for_pbl_dload            0x08023c15   Thumb Code     4  qhsusb_al_bulk.o(i.qhsusb_al_check_for_pbl_dload)
    qhsusb_al_check_timer_for_expiry         0x08023c19   Thumb Code    52  qhsusb_al_bulk.o(i.qhsusb_al_check_timer_for_expiry)
    qhsusb_al_chg_deinit                     0x08023c51   Thumb Code    20  qhsusb_al_charger.o(i.qhsusb_al_chg_deinit)
    qhsusb_al_chg_disconnect_from_host       0x08023c65   Thumb Code    22  qhsusb_al_charger.o(i.qhsusb_al_chg_disconnect_from_host)
    qhsusb_al_chg_enumerate_usb              0x08023c7b   Thumb Code   132  qhsusb_al_charger.o(i.qhsusb_al_chg_enumerate_usb)
    qhsusb_al_chg_get_charger_port_type      0x08023cff   Thumb Code    20  qhsusb_al_charger.o(i.qhsusb_al_chg_get_charger_port_type)
    qhsusb_al_chg_init                       0x08023d15   Thumb Code    40  qhsusb_al_charger.o(i.qhsusb_al_chg_init)
    qhsusb_al_chg_is_vbus_present            0x08023d41   Thumb Code    26  qhsusb_al_charger.o(i.qhsusb_al_chg_is_vbus_present)
    qhsusb_al_chg_poll                       0x08023d5d   Thumb Code   116  qhsusb_al_charger.o(i.qhsusb_al_chg_poll)
    qhsusb_al_chg_should_chg_be_on           0x08023dd5   Thumb Code     4  qhsusb_al_charger.o(i.qhsusb_al_chg_should_chg_be_on)
    qhsusb_boot_dload_get_dload_info_ptr     0x08023dfd   Thumb Code     4  qhsusb_boot_dload.o(i.qhsusb_boot_dload_get_dload_info_ptr)
    qhsusb_boot_dload_is_dload_info_pid_valid 0x08023e01   Thumb Code    22  qhsusb_boot_dload.o(i.qhsusb_boot_dload_is_dload_info_pid_valid)
    qhsusb_boot_dload_is_dload_info_serial_num_valid 0x08023e1d   Thumb Code    22  qhsusb_boot_dload.o(i.qhsusb_boot_dload_is_dload_info_serial_num_valid)
    qhsusb_dcd_control_transfer              0x08023e39   Thumb Code    42  qhsusb_dcd_ch9.o(i.qhsusb_dcd_control_transfer)
    qhsusb_dcd_init                          0x08023e65   Thumb Code    88  qhsusb_dcd_ch9.o(i.qhsusb_dcd_init)
    qhsusb_dcd_poll                          0x08023ec5   Thumb Code    12  qhsusb_dcd_ch9.o(i.qhsusb_dcd_poll)
    qhsusb_dcd_port_status_changed           0x08023ed1   Thumb Code   184  qhsusb_dcd_ch9.o(i.qhsusb_dcd_port_status_changed)
    qhsusb_dcd_set_config                    0x08023f89   Thumb Code   220  qhsusb_dcd_ch9.o(i.qhsusb_dcd_set_config)
    qhsusb_dcd_shutdown                      0x08024065   Thumb Code    56  qhsusb_dcd_ch9.o(i.qhsusb_dcd_shutdown)
    qhsusb_dci_cancel_transfer               0x080240a1   Thumb Code   158  qhsusb_dci.o(i.qhsusb_dci_cancel_transfer)
    qhsusb_dci_cancel_transfer_wo_dqh_dtd    0x08024151   Thumb Code    72  qhsusb_dci.o(i.qhsusb_dci_cancel_transfer_wo_dqh_dtd)
    qhsusb_dci_check_for_pbl_dload           0x080241a1   Thumb Code   236  qhsusb_dci_8909.o(i.qhsusb_dci_check_for_pbl_dload)
    qhsusb_dci_clk_disable                   0x08024291   Thumb Code     4  qhsusb_dci_8909_hw_apis_sbl1.o(i.qhsusb_dci_clk_disable)
    qhsusb_dci_clk_enable                    0x08024295   Thumb Code     4  qhsusb_dci_8909_hw_apis_sbl1.o(i.qhsusb_dci_clk_enable)
    qhsusb_dci_clk_is_usb_system_clk_on      0x08024299   Thumb Code    10  qhsusb_dci_8909_hw_apis_sbl1.o(i.qhsusb_dci_clk_is_usb_system_clk_on)
    qhsusb_dci_config_endpoint               0x080242a5   Thumb Code   152  qhsusb_dci.o(i.qhsusb_dci_config_endpoint)
    qhsusb_dci_connect                       0x08024349   Thumb Code    18  qhsusb_dci_8909.o(i.qhsusb_dci_connect)
    qhsusb_dci_dcache_flush                  0x08024365   Thumb Code     2  qhsusb_dci_8909_hw_apis_sbl1.o(i.qhsusb_dci_dcache_flush)
    qhsusb_dci_dcache_inval                  0x08024367   Thumb Code     2  qhsusb_dci_8909_hw_apis_sbl1.o(i.qhsusb_dci_dcache_inval)
    qhsusb_dci_delay_ms                      0x08024369   Thumb Code    26  qhsusb_dci_8909_hw_apis_sbl1.o(i.qhsusb_dci_delay_ms)
    qhsusb_dci_delay_us                      0x08024383   Thumb Code     4  qhsusb_dci_8909_hw_apis_sbl1.o(i.qhsusb_dci_delay_us)
    qhsusb_dci_detect_charger_type           0x08024387   Thumb Code    10  qhsusb_dci.o(i.qhsusb_dci_detect_charger_type)
    qhsusb_dci_disconnect                    0x08024391   Thumb Code    18  qhsusb_dci_8909.o(i.qhsusb_dci_disconnect)
    qhsusb_dci_enable_test_mode              0x080243ad   Thumb Code    70  qhsusb_dci.o(i.qhsusb_dci_enable_test_mode)
    qhsusb_dci_get_line_state                0x080243f9   Thumb Code    10  qhsusb_dci.o(i.qhsusb_dci_get_line_state)
    qhsusb_dci_get_speed                     0x08024409   Thumb Code    10  qhsusb_dci.o(i.qhsusb_dci_get_speed)
    qhsusb_dci_init                          0x08024419   Thumb Code   164  qhsusb_dci.o(i.qhsusb_dci_init)
    qhsusb_dci_is_attached                   0x080244cd   Thumb Code    20  qhsusb_dci_8909.o(i.qhsusb_dci_is_attached)
    qhsusb_dci_is_suspended                  0x080244e9   Thumb Code    16  qhsusb_dci.o(i.qhsusb_dci_is_suspended)
    qhsusb_dci_is_wall_charger               0x080244fd   Thumb Code     4  qhsusb_dci_8909.o(i.qhsusb_dci_is_wall_charger)
    qhsusb_dci_poll_events                   0x08024501   Thumb Code   214  qhsusb_dci.o(i.qhsusb_dci_poll_events)
    qhsusb_dci_read_scratch                  0x080245e5   Thumb Code    16  qhsusb_dci.o(i.qhsusb_dci_read_scratch)
    qhsusb_dci_set_address                   0x080245f9   Thumb Code    18  qhsusb_dci.o(i.qhsusb_dci_set_address)
    qhsusb_dci_set_enum_flag                 0x08024615   Thumb Code     6  qhsusb_dci.o(i.qhsusb_dci_set_enum_flag)
    qhsusb_dci_set_max_packet_size           0x08024621   Thumb Code     6  qhsusb_dci.o(i.qhsusb_dci_set_max_packet_size)
    qhsusb_dci_set_runstop_bit               0x0802462d   Thumb Code    12  qhsusb_dci.o(i.qhsusb_dci_set_runstop_bit)
    qhsusb_dci_shutdown                      0x0802463d   Thumb Code    90  qhsusb_dci.o(i.qhsusb_dci_shutdown)
    qhsusb_dci_stall_endpoint                0x0802469d   Thumb Code    80  qhsusb_dci.o(i.qhsusb_dci_stall_endpoint)
    qhsusb_dci_start_timer                   0x080246f5   Thumb Code    66  qhsusb_dci.o(i.qhsusb_dci_start_timer)
    qhsusb_dci_transfer_request              0x08024741   Thumb Code   178  qhsusb_dci.o(i.qhsusb_dci_transfer_request)
    qhsusb_dci_ulpi_read                     0x08024801   Thumb Code    64  qhsusb_dci.o(i.qhsusb_dci_ulpi_read)
    qhsusb_dci_ulpi_write                    0x080248a1   Thumb Code    86  qhsusb_dci.o(i.qhsusb_dci_ulpi_write)
    qhsusb_dci_unconfig_endpoint             0x080248fd   Thumb Code    68  qhsusb_dci.o(i.qhsusb_dci_unconfig_endpoint)
    qhsusb_dci_unstall_endpoint              0x08024949   Thumb Code    90  qhsusb_dci.o(i.qhsusb_dci_unstall_endpoint)
    qhsusb_dci_write_scratch                 0x080249f9   Thumb Code    12  qhsusb_dci.o(i.qhsusb_dci_write_scratch)
    qhsusb_fd_chg_detect_charger_type        0x08024a09   Thumb Code    24  qhsusb_fd_chg.o(i.qhsusb_fd_chg_detect_charger_type)
    qhsusb_fd_chg_init                       0x08024a25   Thumb Code    74  qhsusb_fd_chg.o(i.qhsusb_fd_chg_init)
    qhsusb_fd_chg_shutdown                   0x08024a75   Thumb Code     6  qhsusb_fd_chg.o(i.qhsusb_fd_chg_shutdown)
    qhsusb_fd_hdlc_bulk_in_progress          0x08024a81   Thumb Code     4  qhsusb_fd_hdlc.o(i.qhsusb_fd_hdlc_bulk_in_progress)
    qhsusb_fd_hdlc_init                      0x08024a85   Thumb Code   476  qhsusb_fd_hdlc.o(i.qhsusb_fd_hdlc_init)
    qhsusb_fd_hdlc_rx_pkt                    0x08024c79   Thumb Code    96  qhsusb_fd_hdlc.o(i.qhsusb_fd_hdlc_rx_pkt)
    qhsusb_fd_hdlc_set_core                  0x08024ce5   Thumb Code    40  qhsusb_fd_hdlc.o(i.qhsusb_fd_hdlc_set_core)
    qhsusb_fd_hdlc_shutdown                  0x08024d11   Thumb Code    22  qhsusb_fd_hdlc.o(i.qhsusb_fd_hdlc_shutdown)
    qhsusb_fd_hdlc_tx_pkt                    0x08024d2d   Thumb Code   198  qhsusb_fd_hdlc.o(i.qhsusb_fd_hdlc_tx_pkt)
    qhsusb_fd_set_bulk_mode                  0x08024e7d   Thumb Code    16  qhsusb_fd_hdlc.o(i.qhsusb_fd_set_bulk_mode)
    qhsusb_get_shared_imem_address           0x08024e91   Thumb Code     4  qhsusb_dci_8909.o(i.qhsusb_get_shared_imem_address)
    qhsusb_is_device_configured              0x08024e99   Thumb Code     6  qhsusb_dcd_ch9.o(i.qhsusb_is_device_configured)
    qhsusb_log                               0x08024ea5   Thumb Code    40  qhsusb_log.o(i.qhsusb_log)
    qhsusb_loop_here                         0x08024ed5   Thumb Code    10  qhsusb_dci.o(i.qhsusb_loop_here)
    qhsusb_submit_urb                        0x08024ee5   Thumb Code    42  qhsusb_dcd_ch9.o(i.qhsusb_submit_urb)
    qmemcpy                                  0x08024f15   Thumb Code   220  boot_util.o(i.qmemcpy)
    qsee_is_memory_dump_allowed              0x08024ff1   Thumb Code    28  seccfg.o(i.qsee_is_memory_dump_allowed)
    qsee_is_retail_unlocked                  0x0802500d   Thumb Code    20  seccfg.o(i.qsee_is_retail_unlocked)
    qsee_zero_peripheral_memory              0x0802518d   Thumb Code   174  seccfg_memset_pheripheral.o(i.qsee_zero_peripheral_memory)
    query_ddr_map                            0x08025255   Thumb Code    20  seccfg.o(i.query_ddr_map)
    sbl1_boot_logger_deinit                  0x080253b1   Thumb Code    54  sbl1_mc.o(i.sbl1_boot_logger_deinit)
    sbl1_cleanse_security_regions            0x08025409   Thumb Code    38  sbl1_mc.o(i.sbl1_cleanse_security_regions)
    sbl1_ddr_init                            0x08025441   Thumb Code   132  sbl1_hw.o(i.sbl1_ddr_init)
    sbl1_ddr_set_params                      0x0802551d   Thumb Code   208  sbl1_hw.o(i.sbl1_ddr_set_params)
    sbl1_ddr_set_params_enhance              0x080256a5   Thumb Code     2  sbl1_hw.o(i.sbl1_ddr_set_params_enhance)
    sbl1_dload_entry                         0x080256c9   Thumb Code    30  sbl1_target.o(i.sbl1_dload_entry)
    sbl1_efs_handle_cookies                  0x080256f5   Thumb Code    22  sbl1_mc.o(i.sbl1_efs_handle_cookies)
    sbl1_hw_deinit                           0x0802574d   Thumb Code    30  sbl1_hw.o(i.sbl1_hw_deinit)
    sbl1_hw_dload_init                       0x0802577d   Thumb Code     4  sbl1_hw.o(i.sbl1_hw_dload_init)
    sbl1_hw_get_reset_status                 0x08025781   Thumb Code     6  sbl1_hw.o(i.sbl1_hw_get_reset_status)
    sbl1_hw_init                             0x0802578d   Thumb Code    98  sbl1_hw.o(i.sbl1_hw_init)
    sbl1_hw_init_secondary                   0x08025835   Thumb Code   110  sbl1_hw.o(i.sbl1_hw_init_secondary)
    sbl1_hw_platform_pre_ddr                 0x080258e9   Thumb Code   120  sbl1_mc.o(i.sbl1_hw_platform_pre_ddr)
    sbl1_hw_platform_smem                    0x0802596d   Thumb Code    56  sbl1_mc.o(i.sbl1_hw_platform_smem)
    sbl1_init_sbl_qsee_interface             0x080259a9   Thumb Code    62  sbl1_mc.o(i.sbl1_init_sbl_qsee_interface)
    sbl1_load_ddr_training_data              0x080259f5   Thumb Code    70  sbl1_hw.o(i.sbl1_load_ddr_training_data)
    sbl1_load_ddr_training_data_from_partition 0x08025a51   Thumb Code   136  sbl1_mc.o(i.sbl1_load_ddr_training_data_from_partition)
    sbl1_load_sec_partition                  0x08025aed   Thumb Code   174  sbl1_mc.o(i.sbl1_load_sec_partition)
    sbl1_main_ctl                            0x08025bf5   Thumb Code   314  sbl1_mc.o(i.sbl1_main_ctl)
    sbl1_populate_initial_mem_map            0x08025d81   Thumb Code    70  sbl1_mc.o(i.sbl1_populate_initial_mem_map)
    sbl1_post_ddr_init                       0x08025ddd   Thumb Code    48  sbl1_mc.o(i.sbl1_post_ddr_init)
    sbl1_post_ddr_training_init              0x08025e19   Thumb Code    28  sbl1_mc.o(i.sbl1_post_ddr_training_init)
    sbl1_relocate_page_table_to_ddr          0x08025e35   Thumb Code   136  sbl1_mc.o(i.sbl1_relocate_page_table_to_ddr)
    sbl1_save_ddr_training_data_to_partition 0x08025f85   Thumb Code    48  sbl1_mc.o(i.sbl1_save_ddr_training_data_to_partition)
    sbl1_tlmm_init                           0x08025fc9   Thumb Code    30  sbl1_mc.o(i.sbl1_tlmm_init)
    sbl1_wait_for_ddr_training               0x08026119   Thumb Code   114  sbl1_hw.o(i.sbl1_wait_for_ddr_training)
    sbl_error_handler                        0x080261e9   Thumb Code    78  sbl1_mc.o(i.sbl_error_handler)
    sbl_sahara_check                         0x080262ad   Thumb Code    16  sbl1_sahara.o(i.sbl_sahara_check)
    sbl_sahara_entry                         0x08026419   Thumb Code   180  sbl1_sahara.o(i.sbl_sahara_entry)
    sbl_sahara_get_interface                 0x0802656d   Thumb Code     4  sbl1_sahara.o(i.sbl_sahara_get_interface)
    secboot_authenticate                     0x080266f1   Thumb Code   612  secboot.o(i.secboot_authenticate)
    secboot_authenticate_image               0x0802695d   Thumb Code   212  secboot_util.o(i.secboot_authenticate_image)
    secboot_cal_cert_num                     0x08026a31   Thumb Code    64  secboot_x509.o(i.secboot_cal_cert_num)
    secboot_deinit                           0x08026a75   Thumb Code    20  secboot.o(i.secboot_deinit)
    secboot_get_ftbl                         0x08026a89   Thumb Code    26  secboot.o(i.secboot_get_ftbl)
    secboot_hash                             0x08026b0d   Thumb Code   228  secboot.o(i.secboot_hash)
    secboot_hw_get_ftbl                      0x08026d95   Thumb Code    34  secboot_hw.o(i.secboot_hw_get_ftbl)
    secboot_hw_get_msm_hw_id                 0x08026def   Thumb Code    64  secboot_hw.o(i.secboot_hw_get_msm_hw_id)
    secboot_hw_get_root_cert_info            0x08026e2f   Thumb Code   124  secboot_hw.o(i.secboot_hw_get_root_cert_info)
    secboot_hw_get_root_cert_sel             0x08026eab   Thumb Code    22  secboot_hw_apps.o(i.secboot_hw_get_root_cert_sel)
    secboot_hw_get_root_of_trust             0x08026ec1   Thumb Code   168  secboot_hw.o(i.secboot_hw_get_root_of_trust)
    secboot_hw_get_serial_num                0x08026f6d   Thumb Code    22  secboot_hw.o(i.secboot_hw_get_serial_num)
    secboot_hw_get_use_serial_num            0x08026f83   Thumb Code    30  secboot_hw.o(i.secboot_hw_get_use_serial_num)
    secboot_hw_is_auth_enabled               0x08026fa1   Thumb Code    98  secboot_hw.o(i.secboot_hw_is_auth_enabled)
    secboot_hw_update_and_read_root_cert_sel 0x08027005   Thumb Code    46  secboot_hw.o(i.secboot_hw_update_and_read_root_cert_sel)
    secboot_init                             0x08027039   Thumb Code   124  secboot.o(i.secboot_init)
    secboot_init_fuses                       0x080270d9   Thumb Code    36  secboot.o(i.secboot_init_fuses)
    secmath_BIGINT_modexp                    0x08027959   Thumb Code    94  secmath_mod_exp.o(i.secmath_BIGINT_modexp)
    secmath_BIGINT_read_unsigned_bin         0x080279b7   Thumb Code   110  secmath_BIGINT_read_unsigned_bin.o(i.secmath_BIGINT_read_unsigned_bin)
    smem_alloc                               0x08027b91   Thumb Code    26  smem.o(i.smem_alloc)
    smem_boot_debug_init                     0x08027d45   Thumb Code    26  smem_boot.o(i.smem_boot_debug_init)
    smem_boot_init                           0x08027d65   Thumb Code   232  smem_boot.o(i.smem_boot_init)
    smem_ext_get_smem_base                   0x08027e59   Thumb Code     4  smem_ext.o(i.smem_ext_get_smem_base)
    smem_ext_get_smem_size                   0x08027e5d   Thumb Code     4  smem_ext.o(i.smem_ext_get_smem_size)
    smem_get_addr                            0x08027e61   Thumb Code   182  smem.o(i.smem_get_addr)
    smem_get_base_addr                       0x08027f21   Thumb Code    12  smem.o(i.smem_get_base_addr)
    smem_get_offset                          0x08027f31   Thumb Code    60  smem.o(i.smem_get_offset)
    smem_get_phys_base_addr                  0x08027f75   Thumb Code    22  smem.o(i.smem_get_phys_base_addr)
    smem_get_size                            0x08027f91   Thumb Code    18  smem.o(i.smem_get_size)
    smem_get_static_size                     0x08027fa9   Thumb Code    62  smem.o(i.smem_get_static_size)
    smem_init                                0x08028041   Thumb Code   120  smem.o(i.smem_init)
    smem_map_base_va                         0x080280c5   Thumb Code     4  smem_mapping_rex.o(i.smem_map_base_va)
    smem_map_memory_va                       0x080280c9   Thumb Code    12  smem_boot.o(i.smem_map_memory_va)
    smem_map_smem_targ_info                  0x080280d5   Thumb Code    20  smem_boot.o(i.smem_map_smem_targ_info)
    smem_map_spinlock_region_va              0x080280f1   Thumb Code     4  smem_boot.o(i.smem_map_spinlock_region_va)
    smem_os_ext_get_smem_base                0x080280f5   Thumb Code    28  smem_rex.o(i.smem_os_ext_get_smem_base)
    smem_os_ext_get_smem_size                0x08028119   Thumb Code    30  smem_rex.o(i.smem_os_ext_get_smem_size)
    smem_save_targ_smem_info                 0x0802813d   Thumb Code    76  smem_boot_target.o(i.smem_save_targ_smem_info)
    smem_set_base_addr                       0x08028195   Thumb Code    30  smem.o(i.smem_set_base_addr)
    smem_set_ext_mem_region                  0x080281b9   Thumb Code    40  smem.o(i.smem_set_ext_mem_region)
    smem_set_spin_lock_api                   0x08028209   Thumb Code     2  smem_boot.o(i.smem_set_spin_lock_api)
    smem_set_spinlock_base_addr              0x0802820d   Thumb Code    18  smem.o(i.smem_set_spinlock_base_addr)
    smem_spin_lock                           0x080283c1   Thumb Code     2  smem_boot.o(i.smem_spin_lock)
    smem_spin_lock_init                      0x080283c3   Thumb Code     2  smem_boot.o(i.smem_spin_lock_init)
    smem_spin_unlock                         0x080283c5   Thumb Code     2  smem_boot.o(i.smem_spin_unlock)
    smem_version_set                         0x080283c7   Thumb Code    82  smem.o(i.smem_version_set)
    strlcpy                                  0x08028419   Thumb Code    56  strlcpy.o(i.strlcpy)
    sub                                      0x08028451   Thumb Code    50  secmath_montmul_utils.o(i.sub)
    uart_log                                 0x08028579   Thumb Code   114  Uart_log.o(i.uart_log)
    sbl_initial_memory_map                   0x080286e0   Data         192  sbl1_mc.o(.constdata)
    sbl1_addtional_memory_map                0x080287a0   Data         352  sbl1_mc.o(.constdata)
    QC_IMAGE_VERSION_STRING_AUTO_UPDATED     0x080289b4   Data          47  qc_version.o(.constdata)
    IMAGE_VARIANT_STRING_AUTO_UPDATED        0x080289e3   Data          31  oem_version.o(.constdata)
    OEM_IMAGE_VERSION_STRING_AUTO_UPDATED    0x08028a02   Data          29  oem_version.o(.constdata)
    OEM_IMAGE_UUID_STRING_AUTO_UPDATED       0x08028a1f   Data          86  SBL1_nand_oem_uuid.o(.constdata)
    mob_sw_rev                               0x08028a75   Data          25  boot_dload_debug.o(.constdata)
    DALSystem_DriverInfo                     0x08028aa0   Data          12  DALModEnv.o(.constdata)
    Clock_I2CRegs                            0x08028aac   Data          56  ClockSBL.o(.constdata)
    Clock_SDCCRegs                           0x08028b44   Data          72  ClockTools.o(.constdata)
    DALPROP_PropBin                          0x08028bb4   Data        4156  DALConfig_boot.o(.constdata)
    driver_list                              0x08029bf0   Data         336  DALConfig_boot.o(.constdata)
    DALPROP_PropsInfo                        0x08029d40   Data          16  DALConfig_boot.o(.constdata)
    bam_tgt_config                           0x08029d50   Data          96  bamtgtcfg.o(.constdata)
    smem_buf_data_tbl                        0x08029db0   Data          80  smem.o(.constdata)
    pbl_secx509_ext_auth_key_id              0x08029e34   Data           3  secboot_x509.o(.constdata)
    pbl_secx509_ext_sub_key_id               0x08029e37   Data           3  secboot_x509.o(.constdata)
    pbl_secx509_ext_key_usage                0x08029e3a   Data           3  secboot_x509.o(.constdata)
    pbl_secx509_ext_sub_alt_name             0x08029e3d   Data           3  secboot_x509.o(.constdata)
    pbl_secx509_ext_basic_constraint         0x08029e40   Data           3  secboot_x509.o(.constdata)
    pbl_secx509_ext_name_constraint          0x08029e43   Data           3  secboot_x509.o(.constdata)
    pbl_secx509_ext_policy_constraint        0x08029e46   Data           3  secboot_x509.o(.constdata)
    pbl_secx509_ext_ex_key_usage             0x08029e49   Data           3  secboot_x509.o(.constdata)
    pbl_secx509_ext_cert_policies            0x08029e4c   Data           3  secboot_x509.o(.constdata)
    sha1_codehash_str                        0x08029e4f   Data           5  secboot_x509.o(.constdata)
    debug_string                             0x08029e54   Data           6  secboot_x509.o(.constdata)
    sw_id_string                             0x08029e5a   Data           6  secboot_x509.o(.constdata)
    hw_id_string                             0x08029e60   Data           6  secboot_x509.o(.constdata)
    sha256_codehash_str                      0x08029e66   Data           7  secboot_x509.o(.constdata)
    pbl_secx509_ex_key_sauth                 0x08029e6d   Data           8  secboot_x509.o(.constdata)
    pbl_secx509_ex_key_cauth                 0x08029e75   Data           8  secboot_x509.o(.constdata)
    pbl_secx509_ex_key_code                  0x08029e7d   Data           8  secboot_x509.o(.constdata)
    pbl_secx509_ex_key_email                 0x08029e85   Data           8  secboot_x509.o(.constdata)
    pbl_secx509_ex_key_time                  0x08029e8d   Data           8  secboot_x509.o(.constdata)
    pbl_secx509_asn1_rsa                     0x08029e95   Data           9  secboot_x509.o(.constdata)
    pbl_secx509_md5WithRSAEncryption         0x08029e9e   Data           9  secboot_x509.o(.constdata)
    pbl_secx509_md2WithRSAEncryption         0x08029ea7   Data           9  secboot_x509.o(.constdata)
    pbl_secx509_sha1WithRSAEncryption        0x08029eb0   Data           9  secboot_x509.o(.constdata)
    pbl_secx509_sha256WithRSAEncryption      0x08029eb9   Data           9  secboot_x509.o(.constdata)
    pbl_secx509_ex_key_ms_sgc                0x08029ec2   Data          10  secboot_x509.o(.constdata)
    pbl_secx509_ex_key_ns_sgc                0x08029ecc   Data           9  secboot_x509.o(.constdata)
    crash_dump_string                        0x08029ed5   Data          11  secboot_x509.o(.constdata)
    DALI2C_DriverInfo                        0x0802a13c   Data          12  I2cDriverDalInfo.o(.constdata)
    AdcBootBsp                               0x0802a2fc   Data           8  AdcBsp.o(.constdata)
    VAdcBsp                                  0x0802a71c   Data         100  VAdcBsp.o(.constdata)
    DALVAdc_DriverInfo                       0x0802a780   Data          12  DalVAdcInfo.o(.constdata)
    BootTempCheckBsp                         0x0802a78c   Data          12  BootTempCheckBsp.o(.constdata)
    TsensBootBsp                             0x0802a810   Data          32  TsensBootBsp.o(.constdata)
    smem_partition_toc_entries               0x0802a830   Data         128  smem_8916_structs.o(.constdata)
    DALFlash_DriverInfo                      0x0802a8b0   Data          12  flash_dal_info.o(.constdata)
    DALChipInfo_DriverInfo                   0x0802a8bc   Data          12  DalChipInfoInfo.o(.constdata)
    DALPlatformInfo_DriverInfo               0x0802a8c8   Data          12  PlatformInfoFwk.o(.constdata)
    default_led                              0x0802a90c   Data           1  pm_config_target.o(.constdata)
    pm_spmi_periph_cfg_pm8909                0x0802a90e   Data         516  pm_config_target.o(.constdata)
    pm_num_periph_pm8909                     0x0802ab14   Data           4  pm_config_target.o(.constdata)
    pm8916_default_led                       0x0802ab18   Data           1  pm_config_target.o(.constdata)
    pm8916_pm_spmi_periph_cfg                0x0802ab1a   Data         552  pm_config_target.o(.constdata)
    pm8916_pm_num_periph                     0x0802ad44   Data           4  pm_config_target.o(.constdata)
    DALTLMM_DriverInfo                       0x0802ae14   Data          12  DALTLMMInfo.o(.constdata)
    crc30_table                              0x0802ae84   Data        1024  crc.o(.constdata)
    crc16_table                              0x0802b284   Data         512  crc.o(.constdata)
    crc_16_l_table                           0x0802b484   Data         512  crc.o(.constdata)
    crc32_table                              0x0802b684   Data        1024  crc.o(.constdata)
    Image$$SBL1_SVC_STACK$$ZI$$Limit         0x08047800   Number         0  anon$$obj.o(SBL1_SVC_STACK.bss)
    Image$$SBL1_UND_STACK$$ZI$$Limit         0x08049800   Number         0  anon$$obj.o(SBL1_UND_STACK.bss)
    Image$$SBL1_ABT_STACK$$ZI$$Limit         0x0804b800   Number         0  anon$$obj.o(SBL1_ABT_STACK.bss)
    L2_parity_error_in_sbl                   0x0804c008   Data           4  sbl1_mc.o(.data)
    page_table_is_in_ddr                     0x0804c010   Data           4  sbl1_mc.o(.data)
    sbl1_ddr_mem_block                       0x0804c014   Data          32  sbl1_mc.o(.data)
    boot_crash_dump_regs_ptr                 0x0804c084   Data           4  sbl1_mc.o(.data)
    sbl_dload_entry                          0x0804c088   Data           4  sbl1_target.o(.data)
    rpm_partition_name                       0x0804c0c8   Data          20  sbl1_config.o(.data)
    appsbl_partition_name                    0x0804c0dc   Data          20  sbl1_config.o(.data)
    qsee_partition_name                      0x0804c0f0   Data          20  sbl1_config.o(.data)
    load_qsee_pre_procs                      0x0804c104   Data          72  sbl1_config.o(.data)
    load_qsee_post_procs                     0x0804c14c   Data          56  sbl1_config.o(.data)
    sbl1_pre_dload_procs                     0x0804c184   Data          12  sbl1_config.o(.data)
    sbl1_config_table                        0x0804c190   Data         400  sbl1_config.o(.data)
    config_data_table                        0x0804c320   Data        1024  boot_cdt_array.o(.data)
    config_data_table_size                   0x0804c720   Data           4  boot_cdt_array.o(.data)
    boot_rollback_version_img_set_table      0x0804c724   Data         240  boot_rollback_img_set.o(.data)
    boot_rollback_version_img_set_num        0x0804c814   Data           4  boot_rollback_img_set.o(.data)
    __stack_chk_guard                        0x0804c950   Data           4  boot_error_handler.o(.data)
    bl_err_if                                0x0804c958   Data           8  boot_error_handler.o(.data)
    sahara_start_of_segment_load             0x0804c978   Data           1  boot_sahara.o(.data)
    sahara_shared_data                       0x0804c980   Data           4  boot_sahara.o(.data)
    sahara_cmd_exec_data                     0x0804c998   Data           4  boot_sahara.o(.data)
    last_loaded_segment_end_offset           0x0804c9d4   Data           4  boot_sahara.o(.data)
    remaining_elf_segments_data              0x0804c9d8   Data           4  boot_sahara.o(.data)
    non_block_mode                           0x0804c9e4   Data           1  boot_hash.o(.data)
    sbl_hash_algorithm                       0x0804c9e8   Data           4  boot_hash.o(.data)
    sbl_hash_len                             0x0804c9ec   Data           4  boot_hash.o(.data)
    partition_name                           0x0804ca00   Data           4  boot_flash_dev_nand.o(.data)
    appsbl_partition_id                      0x0804ca34   Data          16  boot_gpt_partition_id.o(.data)
    qsee_partition_id                        0x0804ca44   Data          16  boot_gpt_partition_id.o(.data)
    rpm_partition_id                         0x0804ca54   Data          16  boot_gpt_partition_id.o(.data)
    ddr_params_partition_id                  0x0804ca64   Data          16  boot_gpt_partition_id.o(.data)
    sec_partition_id                         0x0804ca74   Data          16  boot_gpt_partition_id.o(.data)
    config_data_table_info                   0x0804ca84   Data           8  boot_config_data.o(.data)
    boot_shared_imem_cookie_ptr              0x0804ca8c   Data           4  boot_ram_init.o(.data)
    boot_ddr_info_set                        0x0804ca90   Data           1  boot_ddr_info.o(.data)
    bAdcInitialized                          0x0804caa0   Data           4  AdcBoot.o(.data)
    gDALProcessDriverModList                 0x0804cc74   Data           4  DALModEnv.o(.data)
    num_allocated_devices                    0x0804cc98   Data           4  bams.o(.data)
    bams                                     0x0804cca0   Data           4  bams.o(.data)
    bam_drv_sync                             0x0804cca4   Data           4  bams.o(.data)
    gnTsensLastTemp                          0x0804ccb4   Data           4  TsensBoot.o(.data)
    guTsensLastSensor                        0x0804ccb8   Data           4  TsensBoot.o(.data)
    Clock_platf_info                         0x0804ccd0   Data           4  ClockSBL.o(.data)
    clock_apps_speed_khz                     0x0804ccd4   Data           4  ClockSBLCPU.o(.data)
    pmicArbHwioBase                          0x0804ce70   Data           4  SpmiHal.o(.data)
    DALPROP_StructPtrs                       0x0804ce74   Data         348  DALConfig_boot.o(.data)
    gDALModDriverInfoList                    0x0804cfec   Data           8  DALModDir_boot.o(.data)
    DAL_Mod_driver_list                      0x0804cff4   Data          24  DALModDir_boot.o(.data)
    DAL_Mod_Info                             0x0804d00c   Data          16  DALModDir_boot.o(.data)
    bamcore_pipe_tzprotect                   0x0804d020   Data           4  bamcore.o(.data)
    bam_tgt_config_ptr                       0x0804d024   Data           4  bamtgtcfg.o(.data)
    bam_num_configs                          0x0804d028   Data           4  bamtgtcfg.o(.data)
    smem_hw_mutex_base_ptr                   0x0804d03c   Data           4  smem.o(.data)
    smem_init_info                           0x0804d044   Data          32  smem.o(.data)
    Clock_SBLConfigData                      0x0804d078   Data        1328  ClockSBLConfig.o(.data)
    Clock_SBL_MuxMap                         0x0804d5a8   Data          20  ClockSBLConfig.o(.data)
    g_failure_index                          0x0804d62c   Data           4  pm_config_sbl.o(.data)
    g_failed_base                            0x0804d630   Data           4  pm_config_sbl.o(.data)
    hdlc_usb_config_obex                     0x0804d66e   Data          32  qhsusb_fd_hdlc.o(.data)
    hdlc_usb_config_obex_only                0x0804d68e   Data          32  qhsusb_fd_hdlc.o(.data)
    sw_config                                0x0804d7ec   Data          16  qhsusb_fd_hdlc.o(.data)
    sw_device                                0x0804d7fc   Data         172  qhsusb_fd_hdlc.o(.data)
    sw_strings                               0x0804d8a8   Data          48  qhsusb_fd_hdlc.o(.data)
    icbcfg_boot_data                         0x0804d954   Data         640  icbcfg_data.o(.data)
    icbcfg_boot_prop                         0x0804dbd4   Data           8  icbcfg_data.o(.data)
    map_ddr_regions                          0x0804dbe0   Data          16  icbcfg_data.o(.data)
    channel_map                              0x0804dbf0   Data           4  icbcfg_data.o(.data)
    bimc_hal_info                            0x0804dbf4   Data          32  icbcfg_data.o(.data)
    safe_reset_seg                           0x0804dc18   Data          32  icbcfg_data.o(.data)
    icbcfg_lock_data                         0x0804dc38   Data          40  icbcfg_data.o(.data)
    icbcfg_lock_prop                         0x0804dc60   Data           8  icbcfg_data.o(.data)
    uart_driver_props                        0x0804dc74   Data           4  Uart.o(.data)
    static_uart_context                      0x0804dc78   Data          56  Uart.o(.data)
    hal_ws_buffer                            0x0804dcd0   Data           4  flash_nand_init.o(.data)
    hal_ws_buffer_size                       0x0804dcd4   Data           4  flash_nand_init.o(.data)
    nand_partition_table                     0x0804dcdc   Data           8  flash_nand_partition.o(.data)
    settings_test_flag_reg                   0x0804dd78   Data           2  pm_config_common.o(.data)
    fts_range                                0x0804dd7c   Data           4  pm_config_common.o(.data)
    fts_volt                                 0x0804dd80   Data          24  pm_config_common.o(.data)
    fts2p5_range                             0x0804dd98   Data           4  pm_config_common.o(.data)
    fts2p5_volt                              0x0804dd9c   Data          24  pm_config_common.o(.data)
    hfs_range                                0x0804ddb4   Data           4  pm_config_common.o(.data)
    hfs_volt                                 0x0804ddb8   Data          24  pm_config_common.o(.data)
    n1200_range                              0x0804ddd0   Data           4  pm_config_common.o(.data)
    n1200_volt                               0x0804ddd4   Data          36  pm_config_common.o(.data)
    n600_range                               0x0804ddf8   Data           4  pm_config_common.o(.data)
    n600_volt                                0x0804ddfc   Data          36  pm_config_common.o(.data)
    pmos_range                               0x0804de20   Data           4  pm_config_common.o(.data)
    pmos_volt                                0x0804de24   Data          60  pm_config_common.o(.data)
    ln_range                                 0x0804de60   Data           4  pm_config_common.o(.data)
    ln_volt                                  0x0804de64   Data          24  pm_config_common.o(.data)
    nmos_range                               0x0804de7c   Data           4  pm_config_common.o(.data)
    nmos_volt                                0x0804de80   Data          36  pm_config_common.o(.data)
    ult_buck_range_1                         0x0804dea4   Data           4  pm_config_common.o(.data)
    ult_buck_volt_1                          0x0804dea8   Data          24  pm_config_common.o(.data)
    ult_buck_range_2                         0x0804dec0   Data           4  pm_config_common.o(.data)
    ult_buck_volt_2                          0x0804dec4   Data          12  pm_config_common.o(.data)
    ult_pmos_range                           0x0804ded0   Data           4  pm_config_common.o(.data)
    ult_pmos_volt                            0x0804ded4   Data          12  pm_config_common.o(.data)
    ult_nmos_range                           0x0804dee0   Data           4  pm_config_common.o(.data)
    ult_nmos_volt                            0x0804dee4   Data          12  pm_config_common.o(.data)
    clk_reg                                  0x0804def0   Data          10  pm_config_common.o(.data)
    smps_reg                                 0x0804defa   Data          36  pm_config_common.o(.data)
    ldo_reg                                  0x0804df1e   Data          36  pm_config_common.o(.data)
    vs_reg                                   0x0804df42   Data          36  pm_config_common.o(.data)
    pwm_reg                                  0x0804df66   Data          28  pm_config_common.o(.data)
    wled_ctrl_reg                            0x0804df82   Data          84  pm_config_common.o(.data)
    wled_sink_reg                            0x0804dfd6   Data          82  pm_config_common.o(.data)
    wled_reg                                 0x0804e028   Data           8  pm_config_common.o(.data)
    ibb_reg                                  0x0804e030   Data          80  pm_config_common.o(.data)
    lab_reg                                  0x0804e080   Data          60  pm_config_common.o(.data)
    clk_sleep_reg                            0x0804e0bc   Data           4  pm_config_common.o(.data)
    clk_xo_reg                               0x0804e0c0   Data           4  pm_config_common.o(.data)
    clk_common                               0x0804e0c4   Data          14  pm_config_common.o(.data)
    gpio_reg                                 0x0804e0d2   Data          40  pm_config_common.o(.data)
    mpp_reg                                  0x0804e0fa   Data          44  pm_config_common.o(.data)
    rgb_reg                                  0x0804e126   Data          10  pm_config_common.o(.data)
    lpg_reg                                  0x0804e130   Data          44  pm_config_common.o(.data)
    vib_reg                                  0x0804e15c   Data          10  pm_config_common.o(.data)
    smbb_reg                                 0x0804e166   Data          42  pm_config_common.o(.data)
    lbc_reg                                  0x0804e190   Data          44  pm_config_common.o(.data)
    pbs_client_reg                           0x0804e1bc   Data          26  pm_config_common.o(.data)
    coincell_reg                             0x0804e1d6   Data          10  pm_config_common.o(.data)
    led_array                                0x0804e1e0   Data          12  pm_config_target.o(.data)
    rgb_configs                              0x0804e1ec   Data          24  pm_config_target.o(.data)
    led_info                                 0x0804e204   Data          12  pm_config_target.o(.data)
    smb_index_array                          0x0804e210   Data           2  pm_config_target.o(.data)
    smb_hw_info                              0x0804e214   Data          20  pm_config_target.o(.data)
    mpp_specific                             0x0804e228   Data           4  pm_config_target.o(.data)
    vib_specific                             0x0804e22c   Data           4  pm_config_target.o(.data)
    chg_app_ds                               0x0804e230   Data          50  pm_config_target.o(.data)
    pm_pbs_info_data_a                       0x0804e262   Data          22  pm_config_target.o(.data)
    pm_pbs_info_data                         0x0804e278   Data           4  pm_config_target.o(.data)
    pm_sbl_seq                               0x0804e27c   Data        2796  pm_config_target_sbl_sequence.o(.data)
    pm_pbs_seq                               0x0804ed68   Data        1024  pm_config_target_pbs_ram.o(.data)
    pm8916_led_array                         0x0804f168   Data           8  pm_config_target.o(.data)
    pm8916_rgb_configs                       0x0804f170   Data          24  pm_config_target.o(.data)
    pm8916_led_info                          0x0804f188   Data          12  pm_config_target.o(.data)
    pm8916_smb_index_array                   0x0804f194   Data           2  pm_config_target.o(.data)
    pm8916_smb_hw_info                       0x0804f198   Data          20  pm_config_target.o(.data)
    pm8916_mpp_specific                      0x0804f1ac   Data           4  pm_config_target.o(.data)
    pm8916_vib_specific                      0x0804f1b0   Data           4  pm_config_target.o(.data)
    pm8916_chg_app_ds                        0x0804f1b4   Data          50  pm_config_target.o(.data)
    pm8916_pm_pbs_info_data_a                0x0804f1e6   Data          22  pm_config_target.o(.data)
    pm8916_pm_pbs_info_data                  0x0804f1fc   Data           4  pm_config_target.o(.data)
    pm8916_pm_sbl_seq                        0x0804f200   Data        3156  pm_config_target_sbl_sequence.o(.data)
    pm8916_pm_pbs_seq                        0x0804fe54   Data        1024  pm_config_target_pbs_ram.o(.data)
    pm_smb_chip_array                        0x0805025c   Data           4  pm_smb_driver.o(.data)
    smb1360_icl_list                         0x08050260   Data          64  pm_smb_driver.o(.data)
    smb1360_ibat_list                        0x080502a0   Data          32  pm_smb_driver.o(.data)
    smb1360                                  0x080502c0   Data          44  pm_smb_driver.o(.data)
    pDevListHead                             0x08050318   Data           4  I2cDeviceQup.o(.data)
    uart_log_struct                          0x0805031c   Data         520  Uart_log.o(.data)
    gVAdcDrvCtxt                             0x08050528   Data         472  DalVAdcFwk.o(.data)
    CeMLCntxHandleBuff                       0x08050700   Data           5  CeEL_Env.o(.data)
    watchdog_table                           0x080508c8   Data           4  flash_properties.o(.data)
    TLMM_DriverCtxt                          0x08050b98   Data         160  DALTLMMFwk.o(.data)
    i2c_cfg_data                             0x080512f0   Data           8  flash_extdrv_i2c_v2.o(.data)
    i2c_reg_addr                             0x080512f8   Data          80  flash_extdrv_i2c_v2.o(.data)
    hal_status                               0x08051348   Data           4  flash_hal_common.o(.data)
    amPartMap                                0x0805139c   Data         248  DalChipInfoLocal.o(.data)
    chipIdMap                                0x08051494   Data         256  DalChipInfoLocal.o(.data)
    pgLowPowerConfigs                        0x0805159c   Data           4  DALTLMM.o(.data)
    gnTotalGPIO                              0x080515a4   Data           4  DALTLMM.o(.data)
    hNonDalProps                             0x080515a8   Data           8  DALTLMM.o(.data)
    pgtState                                 0x080515b8   Data           4  DALTLMMState.o(.data)
    nor_i2c_base_vtbl                        0x080515c4   Data          84  flash_nor_i2c_core.o(.data)
    desc_buf_handle                          0x08051618   Data           4  flash_bam_wrapper.o(.data)
    flash_bam_poll_cnt                       0x0805161c   Data           4  flash_bam_wrapper.o(.data)
    desc_fifo_size                           0x08051620   Data           4  flash_bam_wrapper.o(.data)
    flash_bam_init_done                      0x08051624   Data           4  flash_bam_wrapper.o(.data)
    flash_bam_handle                         0x08051628   Data           4  flash_bam_wrapper.o(.data)
    flash_bam_cmd_handle                     0x0805162c   Data           4  flash_bam_wrapper.o(.data)
    flash_bam_read_handle                    0x08051630   Data           4  flash_bam_wrapper.o(.data)
    flash_bam_write_handle                   0x08051634   Data           4  flash_bam_wrapper.o(.data)
    boot_err_log_ptr                         0x08051638   Data           4  boot_error_handler.o(ERR_DATA_PTR)
    bl_shared_data                           0x080516a0   Data         488  sbl1_mc.o(.bss)
    sbl_verified_info                        0x080518b8   Data          80  sbl1_mc.o(.bss)
    g_ddr_map                                0x08052178   Data         240  seccfg.o(.bss)
    spmiBusInfo                              0x08053050   Data         696  SpmiBus.o(.bss)
    spmiPmicArbInfo                          0x080533a0   Data        1160  PmicArb.o(.bss)
    spmiLogBuf                               0x08053828   Data         128  SpmiOsLogs.o(.bss)
    version_internal_uuid                    0x080538a8   Data         128  image_uuid.o(.bss)
    smem_ext_heap_info                       0x08053a28   Data          24  smem.o(.bss)
    nand_dev_info                            0x08053c70   Data          32  flash_nand_init.o(.bss)
    smps_phase_lut_a                         0x08053cf8   Data          16  pm_config_target.o(.bss)
    pm8916_smps_phase_lut_a                  0x08053d08   Data          16  pm_config_target.o(.bss)
    flash_dbg                                0x08053f34   Data          20  flash_dal_util.o(.bss)
    nand_entry_init_data                     0x0805400c   Data          64  flash_nand_entry.o(.bss)
    flash_hal_devices                        0x0805404c   Data         236  flash_hal_main.o(.bss)
    hal_op_list                              0x08054138   Data          16  flash_hal_main.o(.bss)
    flash_hal_prop_tbl                       0x080541b8   Data          20  flash_hal_properties.o(.bss)
    nor_i2c_ops                              0x08054390   Data          12  flash_nor_i2c_init.o(.bss)
    nandc_predef_bam_data                    0x080543a8   Data         624  flash_hal_nandc_predef_bam_init.o(.bss)
    flash_bam_cfg                            0x08054618   Data          32  flash_bam_wrapper.o(.bss)
    flash_bam_pipe_cfg                       0x08054638   Data          72  flash_bam_wrapper.o(.bss)
    bam_poll_result                          0x08054680   Data          40  flash_bam_wrapper.o(.bss)
    desc_mem_info                            0x080546a8   Data          20  flash_bam_wrapper.o(.bss)
    Image$$SBL1_LOG_META_INFO_SECTION$$Base  0x08055eec   Number         0  anon$$obj.o(linker$$defined$$symbols)
    Image$$SBL1_LOG_BUF_SECTION$$Base        0x08055f2c   Number         0  anon$$obj.o(linker$$defined$$symbols)
    Image$$SBL1_DDR_ZI$$Base                 0x87c00000   Number         0  anon$$obj.o(linker$$defined$$symbols)
    CeMLIovecTypeArray                       0x87c0002c   Data          96  CeEL_Env.o(.bss)
    CeMLHashCipherAlgoCntxTypeBuff           0x87c0008c   Data         320  CeEL_Env.o(.bss)
    dload_header_ptr                         0x87c00288   Data          40  sbl1_target.o(BOOT_DDR_ZI_DATA_ZONE)
    bl_page_buf                              0x87c0a2c0   Data        4096  boot_flash_dev_nand.o(BOOT_DDR_ZI_DATA_ZONE)
    boot_external_heap                       0x87c0d5c0   Data       131072  sbl1_mc.o(BOOT_EXTERNAL_HEAP)
    mmu_l1_pagetable                         0x87c68000   Data       16384  boot_page_table.o(BOOT_PAGE_TABLE_ZONE)
    mmu_l2_pagetable                         0x87c6c000   Data       14336  boot_page_table.o(BOOT_PAGE_TABLE_ZONE)
    Image$$SBL1_DLOAD_ZI$$Base               0x87c70000   Number         0  anon$$obj.o(linker$$defined$$symbols)
    expected_hash_ptr                        0x87c71000   Data         400  sbl1_sahara.o(.bss)
    sahara_packet_buffer                     0x87c72078   Data        1024  boot_sahara.o(.bss)
    Image$$SBL1_DEVICEPROGRAMMER_USB_ZI$$Base 0x87c74000   Number         0  anon$$obj.o(linker$$defined$$symbols)
    qhsusb_dload_info                        0x87c74200   Data         140  qhsusb_fd_hdlc.o(.bss)
    dci_core_info                            0x87c76980   Data          12  qhsusb_dci_8909.o(.bss)



==============================================================================

Memory Map of the image

  Image Entry point : 0x08006b60

  Load Region CODE_ROM (Base: 0x08005800, Size: 0x00026ac0, Max: 0x00040000, ABSOLUTE)

    Execution Region SBL1_ROM (Base: 0x08005800, Size: 0x00026ac0, Max: 0xffffffff, ABSOLUTE)

    Base Addr    Size         Type   Attr      Idx    E Section Name        Object

    0x08005800   0x00000020   Code   RO          212    SBL1_VECTORS        sbl1.o
    0x08005820   0x00000000   Code   RO         4959    .ARM.Collect$$_printf_percent$$00000000  c_2.l(_printf_percent.o)
    0x08005820   0x00000006   Code   RO         4957    .ARM.Collect$$_printf_percent$$00000009  c_2.l(_printf_d.o)
    0x08005826   0x00000006   Code   RO         4958    .ARM.Collect$$_printf_percent$$0000000A  c_2.l(_printf_u.o)
    0x0800582c   0x00000006   Code   RO         4956    .ARM.Collect$$_printf_percent$$0000000C  c_2.l(_printf_x.o)
    0x08005832   0x00000006   Code   RO         4955    .ARM.Collect$$_printf_percent$$00000014  c_2.l(_printf_s.o)
    0x08005838   0x00000004   Code   RO         5010    .ARM.Collect$$_printf_percent$$00000017  c_2.l(_printf_percent_end.o)
    0x0800583c   0x00000330   Code   RO         4896    .text               c_2.l(lludiv5.o)
    0x08005b6c   0x00000026   Code   RO         4898    .text               c_2.l(llshl.o)
    0x08005b92   0x00000002   PAD
    0x08005b94   0x00000038   Code   RO         4902    .text               c_2.l(__2snprintf.o)
    0x08005bcc   0x00000052   Code   RO         4908    .text               c_2.l(_printf_pad.o)
    0x08005c1e   0x00000052   Code   RO         4910    .text               c_2.l(_printf_str.o)
    0x08005c70   0x00000074   Code   RO         4912    .text               c_2.l(_printf_dec.o)
    0x08005ce4   0x0000005c   Code   RO         4917    .text               c_2.l(_printf_hex_int.o)
    0x08005d40   0x0000018c   Code   RO         4952    .text               c_2.l(__printf_flags_ss_wp.o)
    0x08005ecc   0x00000010   Code   RO         4960    .text               c_2.l(abort.o)
    0x08005edc   0x00000014   Code   RO         4962    .text               c_2.l(strchr.o)
    0x08005ef0   0x00000058   Code   RO         4964    .text               c_2.l(memcmp.o)
    0x08005f48   0x0000003a   Code   RO         4966    .text               c_2.l(strlen.o)
    0x08005f82   0x00000002   PAD
    0x08005f84   0x000000f0   Code   RO         4968    .text               c_2.l(strncmp.o)
    0x08006074   0x0000000c   Code   RO         4970    .text               c_2.l(memcpy.o)
    0x08006080   0x000000d4   Code   RO         4972    .text               c_2.l(rt_memcpy.o)
    0x08006154   0x000000d4   Code   RO         4974    .text               c_2.l(rt_memmove.o)
    0x08006228   0x00000064   Code   RO         4976    .text               c_2.l(rt_memcpy_w.o)
    0x0800628c   0x00000080   Code   RO         4978    .text               c_2.l(rt_memmove_w.o)
    0x0800630c   0x00000016   Code   RO         4980    .text               c_2.l(memset.o)
    0x08006322   0x00000010   Code   RO         4982    .text               c_2.l(aeabi_memset.o)
    0x08006332   0x00000044   Code   RO         4984    .text               c_2.l(rt_memclr.o)
    0x08006376   0x0000004e   Code   RO         4986    .text               c_2.l(rt_memclr_w.o)
    0x080063c4   0x000000a0   Code   RO         4988    .text               c_2.l(strcmp.o)
    0x08006464   0x00000016   Code   RO         4990    .text               c_2.l(uread4.o)
    0x0800647a   0x00000016   Code   RO         4992    .text               c_2.l(uwrite4.o)
    0x08006490   0x0000000c   Code   RO         4994    .text               c_2.l(sys_exit.o)
    0x0800649c   0x00000004   Code   RO         4998    .text               c_2.l(aeabi_ldiv0_sigfpe.o)
    0x080064a0   0x000000b8   Code   RO         5000    .text               c_2.l(_printf_intcommon.o)
    0x08006558   0x00000030   Code   RO         5002    .text               c_2.l(_printf_char_common.o)
    0x08006588   0x0000000a   Code   RO         5004    .text               c_2.l(_sputc.o)
    0x08006592   0x00000010   Code   RO         5006    .text               c_2.l(_snputc.o)
    0x080065a2   0x0000002c   Code   RO         5008    .text               c_2.l(_printf_char.o)
    0x080065ce   0x00000008   Code   RO         5013    .text               c_2.l(defsig_abrt_formal.o)
    0x080065d6   0x00000002   PAD
    0x080065d8   0x0000002c   Code   RO         5015    .text               c_2.l(rtudiv10.o)
    0x08006604   0x00000002   Code   RO         5017    .text               c_2.l(use_no_semi.o)
    0x08006606   0x00000000   Code   RO         5019    .text               c_2.l(indicate_semi.o)
    0x08006606   0x0000000a   Code   RO         5020    .text               c_2.l(rt_div0.o)
    0x08006610   0x00000008   Code   RO         5032    .text               c_2.l(defsig_fpe_formal.o)
    0x08006618   0x00000014   Code   RO         1725    APT_ASM             apt.lib(boot_apt_test_asm.o)
    0x0800662c   0x00000004   Ven    RO          276    ARM_MMU             boot_mmu.lib(boot_armv7_mmu.o)
    0x08006630   0x000003d4   Code   RO          276    ARM_MMU             boot_mmu.lib(boot_armv7_mmu.o)
    0x08006a04   0x00000004   Ven    RO          240    BOOT_UTIL_ASM       boot_util.lib(boot_util_asm.o)
    0x08006a08   0x000000fc   Code   RO          240    BOOT_UTIL_ASM       boot_util.lib(boot_util_asm.o)
    0x08006b04   0x00000054   Code   RO         4723    FLASH_UTIL_ASM      HALflash.lib(flash_hal_util_asm.o)
    0x08006b58   0x00000008   PAD
    0x08006b60   0x000002a0   Code   RO          213  * SBL1_ENTRY          sbl1.o
    0x08006e00   0x00000080   Code   RO          902    TZBSP_MEMZI         seccfg.lib(seccfg_memzi.o)
    0x08006e80   0x00000008   Ven    RO         5051    Veneer$$Code        anon$$obj.o
    0x08006e88   0x00000008   Ven    RO         5052    Veneer$$Code        anon$$obj.o
    0x08006e90   0x00000008   Ven    RO         5053    Veneer$$Code        anon$$obj.o
    0x08006e98   0x00000008   Ven    RO         5054    Veneer$$Code        anon$$obj.o
    0x08006ea0   0x0000000a   Ven    RO         5055    Veneer$$Code        anon$$obj.o
    0x08006eaa   0x00000002   PAD
    0x08006eac   0x00000008   Ven    RO         5056    Veneer$$Code        anon$$obj.o
    0x08006eb4   0x0000000a   Ven    RO         5057    Veneer$$Code        anon$$obj.o
    0x08006ebe   0x00000002   PAD
    0x08006ec0   0x00000008   Ven    RO         5058    Veneer$$Code        anon$$obj.o
    0x08006ec8   0x00000008   Ven    RO         5059    Veneer$$Code        anon$$obj.o
    0x08006ed0   0x00000008   Ven    RO         5060    Veneer$$Code        anon$$obj.o
    0x08006ed8   0x00000008   Ven    RO         5061    Veneer$$Code        anon$$obj.o
    0x08006ee0   0x00000008   Ven    RO         5062    Veneer$$Code        anon$$obj.o
    0x08006ee8   0x00000008   Ven    RO         5063    Veneer$$Code        anon$$obj.o
    0x08006ef0   0x00000008   Ven    RO         5064    Veneer$$Code        anon$$obj.o
    0x08006ef8   0x00000008   Ven    RO         5065    Veneer$$Code        anon$$obj.o
    0x08006f00   0x00000008   Ven    RO         5066    Veneer$$Code        anon$$obj.o
    0x08006f08   0x00000008   Ven    RO         5067    Veneer$$Code        anon$$obj.o
    0x08006f10   0x00000008   Ven    RO         5068    Veneer$$Code        anon$$obj.o
    0x08006f18   0x00000008   Ven    RO         5069    Veneer$$Code        anon$$obj.o
    0x08006f20   0x00000008   Ven    RO         5070    Veneer$$Code        anon$$obj.o
    0x08006f28   0x00000008   Ven    RO         5071    Veneer$$Code        anon$$obj.o
    0x08006f30   0x00000008   Ven    RO         5072    Veneer$$Code        anon$$obj.o
    0x08006f38   0x00000008   Ven    RO         5073    Veneer$$Code        anon$$obj.o
    0x08006f40   0x00000008   Ven    RO         5074    Veneer$$Code        anon$$obj.o
    0x08006f48   0x00000008   Ven    RO         5075    Veneer$$Code        anon$$obj.o
    0x08006f50   0x00000008   Ven    RO         5076    Veneer$$Code        anon$$obj.o
    0x08006f58   0x00000008   Ven    RO         5077    Veneer$$Code        anon$$obj.o
    0x08006f60   0x00000008   Ven    RO         5078    Veneer$$Code        anon$$obj.o
    0x08006f68   0x0000004c   Code   RO          882    i.AdcBoot_GetChannel  adc.lib(AdcBoot.o)
    0x08006fb4   0x00000138   Code   RO          883    i.AdcBoot_Init      adc.lib(AdcBoot.o)
    0x080070ec   0x0000008c   Code   RO          884    i.AdcBoot_Read      adc.lib(AdcBoot.o)
    0x08007178   0x0000008a   Code   RO         4663    i.AdcMapLinearInt32toInt32  adc.lib(AdcScalingUtil.o)
    0x08007202   0x00000002   PAD
    0x08007204   0x00000090   Code   RO         1522    i.BootTempCheck     tsens.lib(BootTempCheck.o)
    0x08007294   0x000000b4   Code   RO         3017    i.CeCLIOCtlCipherRegXfer  CeCL.lib(CeCL.o)
    0x08007348   0x00000044   Code   RO         3018    i.CeCLIOCtlGetCipherCntx  CeCL.lib(CeCL.o)
    0x0800738c   0x00000070   Code   RO         3019    i.CeCLIOCtlGetHashCntx  CeCL.lib(CeCL.o)
    0x080073fc   0x000000fc   Code   RO         3021    i.CeCLIOCtlHashRegXfer  CeCL.lib(CeCL.o)
    0x080074f8   0x00000138   Code   RO         3022    i.CeCLIOCtlSetCipherCntx  CeCL.lib(CeCL.o)
    0x08007630   0x000000f4   Code   RO         3023    i.CeCLIOCtlSetHashCntx  CeCL.lib(CeCL.o)
    0x08007724   0x00000004   Code   RO         3843    i.CeClClockDisable  CeCL.lib(CeCL_Ce0.o)
    0x08007728   0x00000004   Code   RO         3844    i.CeClClockEnable   CeCL.lib(CeCL_Ce0.o)
    0x0800772c   0x00000062   Code   RO         3027    i.CeClIOCtlCipher   CeCL.lib(CeCL.o)
    0x0800778e   0x00000062   Code   RO         3028    i.CeClIOCtlHash     CeCL.lib(CeCL.o)
    0x080077f0   0x00000034   Code   RO         3029    i.CeClInit          CeCL.lib(CeCL.o)
    0x08007824   0x00000028   Code   RO         3847    i.CeELCipherRegXfer  CeEL.lib(CeEL_Reg.o)
    0x0800784c   0x00000022   Code   RO         3848    i.CeELHashRegXfer   CeEL.lib(CeEL_Reg.o)
    0x0800786e   0x00000004   Code   RO         3045    i.CeElBamXferFunction  CeEL.lib(CeEL.o)
    0x08007872   0x00000004   Code   RO         3047    i.CeElDisableClock  CeEL.lib(CeEL.o)
    0x08007876   0x00000004   Code   RO         3048    i.CeElEnableClock   CeEL.lib(CeEL.o)
    0x0800787a   0x00000008   Code   RO         3049    i.CeElGetXferModeList  CeEL.lib(CeEL.o)
    0x08007882   0x00000002   PAD
    0x08007884   0x00000020   Code   RO         3050    i.CeElGetXferfunction  CeEL.lib(CeEL.o)
    0x080078a4   0x00000004   Code   RO         3051    i.CeElInit          CeEL.lib(CeEL.o)
    0x080078a8   0x0000000a   Code   RO         3052    i.CeElMemcpy        CeEL.lib(CeEL.o)
    0x080078b2   0x0000000a   Code   RO         3053    i.CeElMemoryBarrier  CeEL.lib(CeEL.o)
    0x080078bc   0x00000010   Code   RO         3054    i.CeElMemset        CeEL.lib(CeEL.o)
    0x080078cc   0x00000080   Code   RO         3057    i.CeElRegXferFunction  CeEL.lib(CeEL.o)
    0x0800794c   0x0000000a   Code   RO         3058    i.CeElfree          CeEL.lib(CeEL.o)
    0x08007956   0x00000002   PAD
    0x08007958   0x00000024   Code   RO         3853    i.CeElfree_Env      CeEL.lib(CeEL_Env.o)
    0x0800797c   0x0000000a   Code   RO         3059    i.CeElmalloc        CeEL.lib(CeEL.o)
    0x08007986   0x00000002   PAD
    0x08007988   0x00000050   Code   RO         3854    i.CeElmalloc_Env    CeEL.lib(CeEL_Env.o)
    0x080079d8   0x00000004   Code   RO         2303    i.CeMLDeInit        CeML.lib(CeML.o)
    0x080079dc   0x000000d0   Code   RO         2304    i.CeMLHashAtomic    CeML.lib(CeML.o)
    0x08007aac   0x0000002a   Code   RO         2305    i.CeMLHashDeInit    CeML.lib(CeML.o)
    0x08007ad6   0x00000002   PAD
    0x08007ad8   0x00000150   Code   RO         2306    i.CeMLHashFinal     CeML.lib(CeML.o)
    0x08007c28   0x00000174   Code   RO         2307    i.CeMLHashInit      CeML.lib(CeML.o)
    0x08007d9c   0x000002ec   Code   RO         2309    i.CeMLHashUpdate    CeML.lib(CeML.o)
    0x08008088   0x00000034   Code   RO         2311    i.CeMLInit          CeML.lib(CeML.o)
    0x080080bc   0x000000f8   Code   RO         2312    i.CeMlHashUpdate    CeML.lib(CeML.o)
    0x080081b4   0x00000004   Code   RO         4570    i.ChipInfo_Close    chipinfo.lib(DalChipInfo.o)
    0x080081b8   0x00000040   Code   RO         4156    i.ChipInfo_DalChipInfo_Attach  chipinfo.lib(DalChipInfoFwk.o)
    0x080081f8   0x00000006   Code   RO         4157    i.ChipInfo_DalChipInfo_Close  chipinfo.lib(DalChipInfoFwk.o)
    0x080081fe   0x00000006   Code   RO         4158    i.ChipInfo_DalChipInfo_DeInit  chipinfo.lib(DalChipInfoFwk.o)
    0x08008204   0x00000006   Code   RO         4159    i.ChipInfo_DalChipInfo_Detach  chipinfo.lib(DalChipInfoFwk.o)
    0x0800820a   0x00000006   Code   RO         4160    i.ChipInfo_DalChipInfo_GetChipFamily  chipinfo.lib(DalChipInfoFwk.o)
    0x08008210   0x00000006   Code   RO         4161    i.ChipInfo_DalChipInfo_GetChipId  chipinfo.lib(DalChipInfoFwk.o)
    0x08008216   0x00000006   Code   RO         4162    i.ChipInfo_DalChipInfo_GetChipIdString  chipinfo.lib(DalChipInfoFwk.o)
    0x0800821c   0x00000006   Code   RO         4163    i.ChipInfo_DalChipInfo_GetChipVersion  chipinfo.lib(DalChipInfoFwk.o)
    0x08008222   0x00000006   Code   RO         4164    i.ChipInfo_DalChipInfo_GetFoundryId  chipinfo.lib(DalChipInfoFwk.o)
    0x08008228   0x00000006   Code   RO         4165    i.ChipInfo_DalChipInfo_GetModemSupport  chipinfo.lib(DalChipInfoFwk.o)
    0x0800822e   0x00000006   Code   RO         4166    i.ChipInfo_DalChipInfo_GetRawChipId  chipinfo.lib(DalChipInfoFwk.o)
    0x08008234   0x00000006   Code   RO         4167    i.ChipInfo_DalChipInfo_GetRawChipVersion  chipinfo.lib(DalChipInfoFwk.o)
    0x0800823a   0x00000006   Code   RO         4168    i.ChipInfo_DalChipInfo_GetSerialNumber  chipinfo.lib(DalChipInfoFwk.o)
    0x08008240   0x0000000c   Code   RO         4169    i.ChipInfo_DalChipInfo_Info  chipinfo.lib(DalChipInfoFwk.o)
    0x0800824c   0x0000001c   Code   RO         4170    i.ChipInfo_DalChipInfo_Init  chipinfo.lib(DalChipInfoFwk.o)
    0x08008268   0x00000006   Code   RO         4171    i.ChipInfo_DalChipInfo_Open  chipinfo.lib(DalChipInfoFwk.o)
    0x0800826e   0x00000006   Code   RO         4172    i.ChipInfo_DalChipInfo_PowerEvent  chipinfo.lib(DalChipInfoFwk.o)
    0x08008274   0x00000006   Code   RO         4173    i.ChipInfo_DalChipInfo_SysRequest  chipinfo.lib(DalChipInfoFwk.o)
    0x0800827a   0x00000004   Code   RO         4571    i.ChipInfo_DeviceDeInit  chipinfo.lib(DalChipInfo.o)
    0x0800827e   0x00000004   Code   RO         4572    i.ChipInfo_DeviceInit  chipinfo.lib(DalChipInfo.o)
    0x08008282   0x00000016   Code   RO         4600    i.ChipInfo_DriverDeInit  chipinfo.lib(DalChipInfoLocal.o)
    0x08008298   0x00000248   Code   RO         4601    i.ChipInfo_DriverInit  chipinfo.lib(DalChipInfoLocal.o)
    0x080084e0   0x0000000c   Code   RO         4573    i.ChipInfo_GetChipFamily  chipinfo.lib(DalChipInfo.o)
    0x080084ec   0x0000000c   Code   RO         4574    i.ChipInfo_GetChipId  chipinfo.lib(DalChipInfo.o)
    0x080084f8   0x00000014   Code   RO         4575    i.ChipInfo_GetChipIdString  chipinfo.lib(DalChipInfo.o)
    0x0800850c   0x0000000c   Code   RO         4576    i.ChipInfo_GetChipVersion  chipinfo.lib(DalChipInfo.o)
    0x08008518   0x0000004c   Code   RO         4602    i.ChipInfo_GetFamily  chipinfo.lib(DalChipInfoLocal.o)
    0x08008564   0x00000048   Code   RO         4603    i.ChipInfo_GetFamilyByPart  chipinfo.lib(DalChipInfoLocal.o)
    0x080085ac   0x00000058   Code   RO         4604    i.ChipInfo_GetFoundry  chipinfo.lib(DalChipInfoLocal.o)
    0x08008604   0x0000000c   Code   RO         4577    i.ChipInfo_GetFoundryId  chipinfo.lib(DalChipInfo.o)
    0x08008610   0x0000000e   Code   RO         4578    i.ChipInfo_GetModemSupport  chipinfo.lib(DalChipInfo.o)
    0x0800861e   0x00000002   PAD
    0x08008620   0x00000038   Code   RO         4606    i.ChipInfo_GetPart  chipinfo.lib(DalChipInfoLocal.o)
    0x08008658   0x0000000e   Code   RO         4579    i.ChipInfo_GetRawChipId  chipinfo.lib(DalChipInfo.o)
    0x08008666   0x0000000e   Code   RO         4580    i.ChipInfo_GetRawChipVersion  chipinfo.lib(DalChipInfo.o)
    0x08008674   0x0000004c   Code   RO         4608    i.ChipInfo_GetRawPart  chipinfo.lib(DalChipInfoLocal.o)
    0x080086c0   0x0000004c   Code   RO         4609    i.ChipInfo_GetRawVersion  chipinfo.lib(DalChipInfoLocal.o)
    0x0800870c   0x0000000e   Code   RO         4581    i.ChipInfo_GetSerialNumber  chipinfo.lib(DalChipInfo.o)
    0x0800871a   0x00000002   PAD
    0x0800871c   0x000000ac   Code   RO         4610    i.ChipInfo_GetVersion  chipinfo.lib(DalChipInfoLocal.o)
    0x080087c8   0x00000004   Code   RO         4582    i.ChipInfo_Info     chipinfo.lib(DalChipInfo.o)
    0x080087cc   0x00000004   Code   RO         4583    i.ChipInfo_Open     chipinfo.lib(DalChipInfo.o)
    0x080087d0   0x00000004   Code   RO         4584    i.ChipInfo_PowerEvent  chipinfo.lib(DalChipInfo.o)
    0x080087d4   0x00000020   Code   RO         1544    i.Clock_BIMCConfigFSM  Clock_msm8909_SBL.lib(ClockSBL.o)
    0x080087f4   0x00000084   Code   RO         2453    i.Clock_ConfigMux   Clock_Common_SBL.lib(ClockSBLCommon.o)
    0x08008878   0x000000ec   Code   RO         2454    i.Clock_ConfigurePLL  Clock_Common_SBL.lib(ClockSBLCommon.o)
    0x08008964   0x000000c8   Code   RO         2433    i.Clock_ConfigureSource  Clock_msm8909_SBL.lib(ClockSBLConfig.o)
    0x08008a2c   0x0000000c   Code   RO         1546    i.Clock_DDRSpeed    Clock_msm8909_SBL.lib(ClockSBL.o)
    0x08008a38   0x00000034   Code   RO         1547    i.Clock_DebugInit   Clock_msm8909_SBL.lib(ClockSBL.o)
    0x08008a6c   0x00000020   Code   RO         1548    i.Clock_DisableI2CClock  Clock_msm8909_SBL.lib(ClockSBL.o)
    0x08008a8c   0x00000028   Code   RO         1549    i.Clock_DisableUARTClock  Clock_msm8909_SBL.lib(ClockSBL.o)
    0x08008ab4   0x00000050   Code   RO         1595    i.Clock_DisableUSB  Clock_msm8909_SBL.lib(ClockTools.o)
    0x08008b04   0x000000ce   Code   RO         2457    i.Clock_EnablePLL   Clock_Common_SBL.lib(ClockSBLCommon.o)
    0x08008bd2   0x00000002   PAD
    0x08008bd4   0x000000a4   Code   RO         2434    i.Clock_EnableSource  Clock_msm8909_SBL.lib(ClockSBLConfig.o)
    0x08008c78   0x00000048   Code   RO         1550    i.Clock_ExitBoot    Clock_msm8909_SBL.lib(ClockSBL.o)
    0x08008cc0   0x00000044   Code   RO         2448    i.Clock_ExtBuckGPIOMisc  Clock_msm8909_SBL.lib(ClockTLMMSpare.o)
    0x08008d04   0x0000004c   Code   RO         2449    i.Clock_GetChipId   Clock_msm8909_SBL.lib(ClockTLMMSpare.o)
    0x08008d50   0x00000004   Code   RO         1552    i.Clock_I2CInit     Clock_msm8909_SBL.lib(ClockSBL.o)
    0x08008d54   0x0000009c   Code   RO         1553    i.Clock_Init        Clock_msm8909_SBL.lib(ClockSBL.o)
    0x08008df0   0x0000004c   Code   RO         1554    i.Clock_InitCrypto  Clock_msm8909_SBL.lib(ClockSBL.o)
    0x08008e3c   0x0000006c   Code   RO         1555    i.Clock_InitForDownloadMode  Clock_msm8909_SBL.lib(ClockSBL.o)
    0x08008ea8   0x0000004c   Code   RO         1597    i.Clock_InitUSB     Clock_msm8909_SBL.lib(ClockTools.o)
    0x08008ef4   0x00000044   Code   RO         1556    i.Clock_InitVotes   Clock_msm8909_SBL.lib(ClockSBL.o)
    0x08008f38   0x00000004   Code   RO         1557    i.Clock_PreDDRInit  Clock_msm8909_SBL.lib(ClockSBL.o)
    0x08008f3c   0x00000150   Code   RO         1558    i.Clock_PreDDRInitEx  Clock_msm8909_SBL.lib(ClockSBL.o)
    0x0800908c   0x0000001c   Code   RO         1559    i.Clock_QPICConfig  Clock_msm8909_SBL.lib(ClockSBL.o)
    0x080090a8   0x0000003c   Code   RO         1560    i.Clock_ReplaceUSBBootClockEnable  Clock_msm8909_SBL.lib(ClockSBL.o)
    0x080090e4   0x00000008   Code   RO         2436    i.Clock_SBLConfig   Clock_msm8909_SBL.lib(ClockSBLConfig.o)
    0x080090ec   0x00000078   Code   RO         1590    i.Clock_SetCPUPerfLevel  Clock_msm8909_SBL.lib(ClockSBLCPU.o)
    0x08009164   0x00000080   Code   RO         1562    i.Clock_SetI2CClockFrequency  Clock_msm8909_SBL.lib(ClockSBL.o)
    0x080091e4   0x00000004   Code   RO         1591    i.Clock_SetL2PerfLevel  Clock_msm8909_SBL.lib(ClockSBLCPU.o)
    0x080091e8   0x0000004e   Code   RO         1563    i.Clock_SetSysPerfLevel  Clock_msm8909_SBL.lib(ClockSBL.o)
    0x08009236   0x00000002   PAD
    0x08009238   0x00000098   Code   RO         1564    i.Clock_SetUARTClockFrequency  Clock_msm8909_SBL.lib(ClockSBL.o)
    0x080092d0   0x0000001a   Code   RO         2437    i.Clock_SourceMapToAPCS  Clock_msm8909_SBL.lib(ClockSBLConfig.o)
    0x080092ea   0x00000018   Code   RO         2438    i.Clock_SourceMapToGCC  Clock_msm8909_SBL.lib(ClockSBLConfig.o)
    0x08009302   0x00000002   PAD
    0x08009304   0x0000001c   Code   RO         2439    i.Clock_SourceMapToMux  Clock_msm8909_SBL.lib(ClockSBLConfig.o)
    0x08009320   0x00000026   Code   RO         2459    i.Clock_ToggleClock  Clock_Common_SBL.lib(ClockSBLCommon.o)
    0x08009346   0x00000034   Code   RO         2460    i.Clock_TriggerUpdate  Clock_Common_SBL.lib(ClockSBLCommon.o)
    0x0800937a   0x0000001c   Code   RO         3787    i.DALFW_AddRef      DALFwk.lib(dalfwkbase.o)
    0x08009396   0x00000002   PAD
    0x08009398   0x00000084   Code   RO         1337    i.DALFW_AllocPhysForMemDescBufs  DALFwk.lib(DALMemDesc.o)
    0x0800941c   0x00000080   Code   RO         3788    i.DALFW_AttachToDevice  DALFwk.lib(dalfwkbase.o)
    0x0800949c   0x000000a4   Code   RO         3789    i.DALFW_AttachToStringDevice  DALFwk.lib(dalfwkbase.o)
    0x08009540   0x0000000e   Code   RO         3790    i.DALFW_InitClientCtxt  DALFwk.lib(dalfwkbase.o)
    0x0800954e   0x0000000e   Code   RO         3791    i.DALFW_InitDevCtxt  DALFwk.lib(dalfwkbase.o)
    0x0800955c   0x00000034   Code   RO         3792    i.DALFW_InitDrvCtxt  DALFwk.lib(dalfwkbase.o)
    0x08009590   0x00000014   Code   RO         1339    i.DALFW_MemDescBufPtr  DALFwk.lib(DALMemDesc.o)
    0x080095a4   0x00000064   Code   RO         1340    i.DALFW_MemDescInit  DALFwk.lib(DALMemDesc.o)
    0x08009608   0x000000b0   Code   RO         1341    i.DALFW_MemDescListCopyBufs  DALFwk.lib(DALMemDesc.o)
    0x080096b8   0x0000004a   Code   RO         3794    i.DALFW_Release     DALFwk.lib(dalfwkbase.o)
    0x08009702   0x00000002   PAD
    0x08009704   0x0000009c   Code   RO         2972    i.DALGLBCTXT_AllocCtxt  DALFwk.lib(DALGlbCtxt.o)
    0x080097a0   0x000000e4   Code   RO         2974    i.DALGLBCTXT_Init   DALFwk.lib(DALGlbCtxt.o)
    0x08009884   0x0000000c   Code   RO         3155    i.DALPlatformInfo_CDTConfigPostDDR  platforminfo.lib(PlatformInfoFwk.o)
    0x08009890   0x0000000c   Code   RO         3156    i.DALPlatformInfo_CDTConfigPreDDR  platforminfo.lib(PlatformInfoFwk.o)
    0x0800989c   0x00000006   Code   RO         3157    i.DALPlatformInfo_DriverInit  platforminfo.lib(PlatformInfoFwk.o)
    0x080098a2   0x0000000c   Code   RO         3158    i.DALPlatformInfo_GetKeyValue  platforminfo.lib(PlatformInfoFwk.o)
    0x080098ae   0x0000000c   Code   RO         3159    i.DALPlatformInfo_GetPlatform  platforminfo.lib(PlatformInfoFwk.o)
    0x080098ba   0x0000000c   Code   RO         3160    i.DALPlatformInfo_GetPlatformInfo  platforminfo.lib(PlatformInfoFwk.o)
    0x080098c6   0x00000004   Code   RO         1355    i.DALSYS_BusyWait   DALFwk.lib(DALModEnv.o)
    0x080098ca   0x00000034   Code   RO         1356    i.DALSYS_CacheCommand  DALFwk.lib(DALModEnv.o)
    0x080098fe   0x00000002   Code   RO         1358    i.DALSYS_DeInitMod  DALFwk.lib(DALModEnv.o)
    0x08009900   0x00000004   Code   RO         1360    i.DALSYS_DestroyObject  DALFwk.lib(DALModEnv.o)
    0x08009904   0x0000001a   Code   RO         1361    i.DALSYS_EventCreate  DALFwk.lib(DALModEnv.o)
    0x0800991e   0x00000006   Code   RO         1363    i.DALSYS_EventMultipleWait  DALFwk.lib(DALModEnv.o)
    0x08009924   0x00000018   Code   RO         1365    i.DALSYS_Free       DALFwk.lib(DALModEnv.o)
    0x0800993c   0x00000004   Code   RO         1366    i.DALSYS_GetDALPropertyHandle  DALFwk.lib(DALModEnv.o)
    0x08009940   0x00000034   Code   RO         1459    i.DALSYS_GetDALPropertyHandleStr  DALFwk.lib(DALProps.o)
    0x08009974   0x0000000c   Code   RO         1367    i.DALSYS_GetPropDir  DALFwk.lib(DALModEnv.o)
    0x08009980   0x0000000c   Code   RO         1368    i.DALSYS_GetPropStructPtrArray  DALFwk.lib(DALModEnv.o)
    0x0800998c   0x00000004   Code   RO         1369    i.DALSYS_GetPropertyValue  DALFwk.lib(DALModEnv.o)
    0x08009990   0x00000024   Code   RO         1450    i.DALSYS_HeapInit   DALFwk.lib(DALHeap.o)
    0x080099b4   0x00000010   Code   RO         1370    i.DALSYS_InitMod    DALFwk.lib(DALModEnv.o)
    0x080099c4   0x0000000a   Code   RO         1372    i.DALSYS_LogEvent   DALFwk.lib(DALModEnv.o)
    0x080099ce   0x00000016   Code   RO         1373    i.DALSYS_Malloc     DALFwk.lib(DALModEnv.o)
    0x080099e4   0x0000002c   Code   RO         1377    i.DALSYS_MemInfo    DALFwk.lib(DALModEnv.o)
    0x08009a10   0x00000082   Code   RO         1378    i.DALSYS_MemRegionAlloc  DALFwk.lib(DALModEnv.o)
    0x08009a92   0x00000002   PAD
    0x08009a94   0x00000014   Code   RO         1382    i.DALSYS_SyncCreate  DALFwk.lib(DALModEnv.o)
    0x08009aa8   0x00000002   Code   RO         1383    i.DALSYS_SyncEnter  DALFwk.lib(DALModEnv.o)
    0x08009aaa   0x00000002   Code   RO         1384    i.DALSYS_SyncLeave  DALFwk.lib(DALModEnv.o)
    0x08009aac   0x00000120   Code   RO         4743    i.DALTLMMState_Init  DALtlmm.lib(DALTLMMState.o)
    0x08009bcc   0x0000001a   Code   RO         4744    i.DALTLMMState_MacroToStruct  DALtlmm.lib(DALTLMMState.o)
    0x08009be6   0x0000002e   Code   RO         4745    i.DALTLMMState_StructToMacro  DALtlmm.lib(DALTLMMState.o)
    0x08009c14   0x00000036   Code   RO         1385    i.DAL_DeviceAttach  DALFwk.lib(DALModEnv.o)
    0x08009c4a   0x00000044   Code   RO         1386    i.DAL_DeviceAttachEx  DALFwk.lib(DALModEnv.o)
    0x08009c8e   0x00000002   PAD
    0x08009c90   0x00000044   Code   RO         1387    i.DAL_DeviceAttachLocal  DALFwk.lib(DALModEnv.o)
    0x08009cd4   0x00000030   Code   RO         1389    i.DAL_DeviceDetach  DALFwk.lib(DALModEnv.o)
    0x08009d04   0x00000044   Code   RO         1391    i.DAL_StringDeviceAttachEx  DALFwk.lib(DALModEnv.o)
    0x08009d48   0x0000005c   Code   RO         1392    i.DAL_StringDeviceAttachLocal  DALFwk.lib(DALModEnv.o)
    0x08009da4   0x000000d8   Code   RO         1460    i.DAL_StringDeviceObjectLookup  DALFwk.lib(DALProps.o)
    0x08009e7c   0x00000050   Code   RO         4195    i.DalChipInfo_ChipFamily  platforminfo.lib(PlatformInfo.o)
    0x08009ecc   0x00000050   Code   RO         4627    i.DalChipInfo_ChipFamily  DALtlmm.lib(DALTLMM.o)
    0x08009f1c   0x00000020   Code   RO         4196    i.DalChipInfo_GetChipVersion  platforminfo.lib(PlatformInfo.o)
    0x08009f3c   0x00000006   Code   RO         1972    i.DalClock_GetClockId  Spmi.lib(SpmiOsImage.o)
    0x08009f42   0x00000016   Code   RO         1973    i.DalClock_IsClockOn  Spmi.lib(SpmiOsImage.o)
    0x08009f58   0x0000000a   Code   RO         1393    i.DalDevice_Info    DALFwk.lib(DALModEnv.o)
    0x08009f62   0x0000000a   Code   RO         1394    i.DalDevice_Init    DALFwk.lib(DALModEnv.o)
    0x08009f6c   0x0000000a   Code   RO          886    i.DalDevice_Open    adc.lib(AdcBoot.o)
    0x08009f76   0x00000006   Code   RO         4611    i.DalHWIO_MapRegionByAddress  chipinfo.lib(DalChipInfoLocal.o)
    0x08009f7c   0x0000002c   Code   RO         1676    i.DalPlatformInfo_Platform  pmic_target_sbl1_system.lib(pm_sbl_boot.o)
    0x08009fa8   0x0000002c   Code   RO         3464    i.DalPlatformInfo_Platform  pm_pbs_driver.lib(pm_pbs_driver.o)
    0x08009fd4   0x00000006   Code   RO         4288    i.DalTlmm_ConfigGpio  I2cDriver.lib(I2cPlatSvc.o)
    0x08009fda   0x00000002   PAD
    0x08009fdc   0x00000020   Code   RO         2975    i.GlbCtxtLock       DALFwk.lib(DALGlbCtxt.o)
    0x08009ffc   0x00000018   Code   RO         2976    i.GlbCtxtUnLock     DALFwk.lib(DALGlbCtxt.o)
    0x0800a014   0x00000058   Code   RO         4751    i.HAL_tlmm_ConfigGpio  HALtlmmV2.lib(HALtlmm.o)
    0x0800a06c   0x00000014   Code   RO         4753    i.HAL_tlmm_Init     HALtlmmV2.lib(HALtlmm.o)
    0x0800a080   0x0000001c   Code   RO         4757    i.HAL_tlmm_SetPort  HALtlmmV2.lib(HALtlmm.o)
    0x0800a09c   0x00000018   Code   RO         4758    i.HAL_tlmm_WriteConfig  HALtlmmV2.lib(HALtlmm.o)
    0x0800a0b4   0x00000038   Code   RO         4759    i.HAL_tlmm_WriteGpio  HALtlmmV2.lib(HALtlmm.o)
    0x0800a0ec   0x00000010   Code   RO         2170    i.HAL_tsens_CalSelect  tsens.lib(HALtsens.o)
    0x0800a0fc   0x0000001e   Code   RO         2172    i.HAL_tsens_ConfigSensor  tsens.lib(HALtsens.o)
    0x0800a11a   0x00000002   PAD
    0x0800a11c   0x00000054   Code   RO         2174    i.HAL_tsens_DisableInterrupt  tsens.lib(HALtsens.o)
    0x0800a170   0x00000048   Code   RO         2176    i.HAL_tsens_EnableInterrupt  tsens.lib(HALtsens.o)
    0x0800a1b8   0x00000014   Code   RO         2178    i.HAL_tsens_GetBaseX1  tsens.lib(HALtsens.o)
    0x0800a1cc   0x00000014   Code   RO         2179    i.HAL_tsens_GetBaseX2  tsens.lib(HALtsens.o)
    0x0800a1e0   0x00000006   Code   RO         2182    i.HAL_tsens_GetMaxCode  tsens.lib(HALtsens.o)
    0x0800a1e6   0x00000052   Code   RO         2184    i.HAL_tsens_GetPointX1  tsens.lib(HALtsens.o)
    0x0800a238   0x00000062   Code   RO         2185    i.HAL_tsens_GetPointX2  tsens.lib(HALtsens.o)
    0x0800a29a   0x00000002   PAD
    0x0800a29c   0x00000018   Code   RO         2186    i.HAL_tsens_GetSensorPrevTemp  tsens.lib(HALtsens.o)
    0x0800a2b4   0x0000000e   Code   RO         2188    i.HAL_tsens_Init    tsens.lib(HALtsens.o)
    0x0800a2c2   0x00000002   PAD
    0x0800a2c4   0x00000020   Code   RO         2189    i.HAL_tsens_Reset   tsens.lib(HALtsens.o)
    0x0800a2e4   0x00000028   Code   RO         2190    i.HAL_tsens_SelectADCClkSrc  tsens.lib(HALtsens.o)
    0x0800a30c   0x00000018   Code   RO         2191    i.HAL_tsens_SetPeriod  tsens.lib(HALtsens.o)
    0x0800a324   0x00000020   Code   RO         2192    i.HAL_tsens_SetSensorsEnabled  tsens.lib(HALtsens.o)
    0x0800a344   0x00000028   Code   RO         2193    i.HAL_tsens_SetState  tsens.lib(HALtsens.o)
    0x0800a36c   0x00000064   Code   RO         2194    i.HAL_tsens_SetThreshold  tsens.lib(HALtsens.o)
    0x0800a3d0   0x00000014   Code   RO         2196    i.HAL_tsens_TempMeasurementIsComplete  tsens.lib(HALtsens.o)
    0x0800a3e4   0x00000004   Code   RO         2197    i.HAL_tsens_UseRedundant  tsens.lib(HALtsens.o)
    0x0800a3e8   0x00000014   Code   RO         3728    i.HALuart_DisableInterrupts  UART.lib(Uart_hal.o)
    0x0800a3fc   0x0000000e   Code   RO         3729    i.HALuart_GetFifoSize  UART.lib(Uart_hal.o)
    0x0800a40a   0x0000000a   Code   RO         3730    i.HALuart_GetInterruptStatus  UART.lib(Uart_hal.o)
    0x0800a414   0x0000000a   Code   RO         3731    i.HALuart_GetStatus  UART.lib(Uart_hal.o)
    0x0800a41e   0x00000008   Code   RO         3732    i.HALuart_GetTxFifoSize  UART.lib(Uart_hal.o)
    0x0800a426   0x00000008   Code   RO         3734    i.HALuart_ResetErrorStatus  UART.lib(Uart_hal.o)
    0x0800a42e   0x00000008   Code   RO         3735    i.HALuart_ResetReceiver  UART.lib(Uart_hal.o)
    0x0800a436   0x00000008   Code   RO         3736    i.HALuart_ResetTransmitter  UART.lib(Uart_hal.o)
    0x0800a43e   0x00000012   Code   RO         3737    i.HALuart_SetAutoInboundFlowCtl  UART.lib(Uart_hal.o)
    0x0800a450   0x00000016   Code   RO         3738    i.HALuart_SetCharFormat  UART.lib(Uart_hal.o)
    0x0800a466   0x00000012   Code   RO         3739    i.HALuart_SetCmdSynchronization  UART.lib(Uart_hal.o)
    0x0800a478   0x00000006   Code   RO         3740    i.HALuart_SetDivider  UART.lib(Uart_hal.o)
    0x0800a47e   0x00000016   Code   RO         3741    i.HALuart_SetDmaEnable  UART.lib(Uart_hal.o)
    0x0800a494   0x0000001a   Code   RO         3742    i.HALuart_SetIrdaEnable  UART.lib(Uart_hal.o)
    0x0800a4ae   0x00000016   Code   RO         3743    i.HALuart_SetLoopback  UART.lib(Uart_hal.o)
    0x0800a4c4   0x00000012   Code   RO         3744    i.HALuart_SetOutboundFlowCtl  UART.lib(Uart_hal.o)
    0x0800a4d6   0x0000000e   Code   RO         3745    i.HALuart_SetRxEnable  UART.lib(Uart_hal.o)
    0x0800a4e4   0x00000016   Code   RO         3746    i.HALuart_SetRxSCEnable  UART.lib(Uart_hal.o)
    0x0800a4fa   0x0000001a   Code   RO         3747    i.HALuart_SetRxWatermark  UART.lib(Uart_hal.o)
    0x0800a514   0x00000012   Code   RO         3748    i.HALuart_SetStaleEvent  UART.lib(Uart_hal.o)
    0x0800a526   0x0000001a   Code   RO         3749    i.HALuart_SetStaleTimeout  UART.lib(Uart_hal.o)
    0x0800a540   0x0000000e   Code   RO         3750    i.HALuart_SetTxEnable  UART.lib(Uart_hal.o)
    0x0800a54e   0x00000008   Code   RO         3751    i.HALuart_SetTxFifoSize  UART.lib(Uart_hal.o)
    0x0800a556   0x00000016   Code   RO         3752    i.HALuart_SetTxSCEnable  UART.lib(Uart_hal.o)
    0x0800a56c   0x00000010   Code   RO         3753    i.HALuart_SetTxWatermark  UART.lib(Uart_hal.o)
    0x0800a57c   0x00000004   Code   RO         3754    i.HALuart_SetupDmaRx  UART.lib(Uart_hal.o)
    0x0800a580   0x00000046   Code   RO         3755    i.HALuart_WriteTxFifo  UART.lib(Uart_hal.o)
    0x0800a5c6   0x00000034   Code   RO         3636    i.I2CDEVQUP_CalcTransferInOutSize  I2cDriver.lib(I2cDeviceQup.o)
    0x0800a5fa   0x000000f8   Code   RO         3637    i.I2CDEVQUP_CalcTransferredDataBytes  I2cDriver.lib(I2cDeviceQup.o)
    0x0800a6f2   0x00000002   PAD
    0x0800a6f4   0x00000160   Code   RO         3638    i.I2CDEVQUP_ConfigureQupIo  I2cDriver.lib(I2cDeviceQup.o)
    0x0800a854   0x000000c6   Code   RO         3639    i.I2CDEVQUP_ConfigureSequenceTransferIo  I2cDriver.lib(I2cDeviceQup.o)
    0x0800a91a   0x0000000a   Code   RO         3640    i.I2CDEVQUP_ISR_HOOK  I2cDriver.lib(I2cDeviceQup.o)
    0x0800a924   0x0000000a   Code   RO         3641    i.I2CDEVQUP_IST_HOOK  I2cDriver.lib(I2cDeviceQup.o)
    0x0800a92e   0x00000016   Code   RO         3642    i.I2CDEVQUP_InitInSeqInfo  I2cDriver.lib(I2cDeviceQup.o)
    0x0800a944   0x00000016   Code   RO         3643    i.I2CDEVQUP_InitOutSeqInfo  I2cDriver.lib(I2cDeviceQup.o)
    0x0800a95a   0x00000024   Code   RO         3644    i.I2CDEVQUP_InitQupCore  I2cDriver.lib(I2cDeviceQup.o)
    0x0800a97e   0x00000040   Code   RO         3645    i.I2CDEVQUP_ProcesQupHwEvts  I2cDriver.lib(I2cDeviceQup.o)
    0x0800a9be   0x0000008c   Code   RO         3646    i.I2CDEVQUP_QupHwEvtQueue_ProcessIsrEvt  I2cDriver.lib(I2cDeviceQup.o)
    0x0800aa4a   0x00000002   PAD
    0x0800aa4c   0x0000007c   Code   RO         3647    i.I2CDEVQUP_SetRunState  I2cDriver.lib(I2cDeviceQup.o)
    0x0800aac8   0x0000009c   Code   RO         3648    i.I2CDEVQUP_SetupHw  I2cDriver.lib(I2cDeviceQup.o)
    0x0800ab64   0x00000034   Code   RO         3649    i.I2CDEVQUP_WaitForRunStateValid  I2cDriver.lib(I2cDeviceQup.o)
    0x0800ab98   0x000000ac   Code   RO         3653    i.I2CDEV_BatchTransfer  I2cDriver.lib(I2cDeviceQup.o)
    0x0800ac44   0x0000009c   Code   RO         3655    i.I2CDEV_DeInit     I2cDriver.lib(I2cDeviceQup.o)
    0x0800ace0   0x00000108   Code   RO         3657    i.I2CDEV_Init       I2cDriver.lib(I2cDeviceQup.o)
    0x0800ade8   0x00000024   Code   RO         3660    i.I2CDEV_SetPowerState  I2cDriver.lib(I2cDeviceQup.o)
    0x0800ae0c   0x00000050   Code   RO         3661    i.I2CDEV_Write      I2cDriver.lib(I2cDeviceQup.o)
    0x0800ae5c   0x00000070   Code   RO         4289    i.I2CPLATDEV_DeInitTarget  I2cDriver.lib(I2cPlatSvc.o)
    0x0800aecc   0x00000084   Code   RO         4291    i.I2CPLATDEV_InitGpios  I2cDriver.lib(I2cPlatSvc.o)
    0x0800af50   0x00000048   Code   RO         4292    i.I2CPLATDEV_InitTarget  I2cDriver.lib(I2cPlatSvc.o)
    0x0800af98   0x000000cc   Code   RO         4293    i.I2CPLATDEV_ReadPlatConfig  I2cDriver.lib(I2cPlatSvc.o)
    0x0800b064   0x00000010   Code   RO         4294    i.I2CPLATDEV_ReadProperties  I2cDriver.lib(I2cPlatSvc.o)
    0x0800b074   0x00000040   Code   RO         4295    i.I2CPLATDEV_SetPowerState  I2cDriver.lib(I2cPlatSvc.o)
    0x0800b0b4   0x00000004   Code   RO         4308    i.I2CSYS_BusyWait   I2cDriver.lib(I2cSys.o)
    0x0800b0b8   0x00000004   Code   RO         4309    i.I2CSYS_ClearEvent  I2cDriver.lib(I2cSys.o)
    0x0800b0bc   0x00000018   Code   RO         4310    i.I2CSYS_CloseHandle  I2cDriver.lib(I2cSys.o)
    0x0800b0d4   0x0000003c   Code   RO         4311    i.I2CSYS_CreateCriticalSection  I2cDriver.lib(I2cSys.o)
    0x0800b110   0x00000004   Code   RO         4312    i.I2CSYS_CreateEvent  I2cDriver.lib(I2cSys.o)
    0x0800b114   0x00000028   Code   RO         4313    i.I2CSYS_DestroyCriticalSection  I2cDriver.lib(I2cSys.o)
    0x0800b13c   0x0000000c   Code   RO         4315    i.I2CSYS_EnterCriticalSection  I2cDriver.lib(I2cSys.o)
    0x0800b148   0x00000014   Code   RO         4316    i.I2CSYS_Free       I2cDriver.lib(I2cSys.o)
    0x0800b15c   0x0000000c   Code   RO         4317    i.I2CSYS_LeaveCriticalSection  I2cDriver.lib(I2cSys.o)
    0x0800b168   0x00000020   Code   RO         4318    i.I2CSYS_Malloc     I2cDriver.lib(I2cSys.o)
    0x0800b188   0x00000010   Code   RO         4319    i.I2CSYS_Memset     I2cDriver.lib(I2cSys.o)
    0x0800b198   0x00000004   Code   RO         4296    i.I2CSYS_RegisterISTHooks  I2cDriver.lib(I2cPlatSvc.o)
    0x0800b19c   0x00000004   Code   RO         4320    i.I2CSYS_SetEvent   I2cDriver.lib(I2cSys.o)
    0x0800b1a0   0x00000004   Code   RO         4297    i.I2CSYS_UnRegisterISTHooks  I2cDriver.lib(I2cPlatSvc.o)
    0x0800b1a4   0x00000004   Code   RO         4321    i.I2CSYS_Wait       I2cDriver.lib(I2cSys.o)
    0x0800b1a8   0x00000004   Code   RO         2874    i.I2C_DalI2C_Attach  I2cDriver.lib(I2cDriverDalInfo.o)
    0x0800b1ac   0x000000d0   Code   RO         1234    i.ICB_Config_Init   icb.lib(icbcfg.o)
    0x0800b27c   0x000000ba   Code   RO         1235    i.ICB_Configure_Settings  icb.lib(icbcfg.o)
    0x0800b336   0x00000032   Code   RO         1236    i.ICB_Get_Memmap    icb.lib(icbcfg.o)
    0x0800b368   0x0000004e   Code   RO         1238    i.ICB_Segments_Init  icb.lib(icbcfg.o)
    0x0800b3b6   0x00000002   PAD
    0x0800b3b8   0x00000048   Code   RO         2977    i.InterProcSpinLock  DALFwk.lib(DALGlbCtxt.o)
    0x0800b400   0x00000010   Code   RO         2978    i.InterProcSpinUnLock  DALFwk.lib(DALGlbCtxt.o)
    0x0800b410   0x00000010   Code   RO         1451    i.IsExternalMemReady  DALFwk.lib(DALHeap.o)
    0x0800b420   0x00000074   Code   RO         4197    i.PlatformInfo_CDTConfigPostDDR  platforminfo.lib(PlatformInfo.o)
    0x0800b494   0x0000001a   Code   RO         4198    i.PlatformInfo_CDTConfigPreDDR  platforminfo.lib(PlatformInfo.o)
    0x0800b4ae   0x00000002   PAD
    0x0800b4b0   0x000000bc   Code   RO         4199    i.PlatformInfo_CDTInit  platforminfo.lib(PlatformInfo.o)
    0x0800b56c   0x00000040   Code   RO         3161    i.PlatformInfo_DeviceAttach  platforminfo.lib(PlatformInfoFwk.o)
    0x0800b5ac   0x00000004   Code   RO         3162    i.PlatformInfo_DeviceClose  platforminfo.lib(PlatformInfoFwk.o)
    0x0800b5b0   0x00000004   Code   RO         3163    i.PlatformInfo_DeviceDeInit  platforminfo.lib(PlatformInfoFwk.o)
    0x0800b5b4   0x00000006   Code   RO         3164    i.PlatformInfo_DeviceDetach  platforminfo.lib(PlatformInfoFwk.o)
    0x0800b5ba   0x0000000a   Code   RO         3165    i.PlatformInfo_DeviceInfo  platforminfo.lib(PlatformInfoFwk.o)
    0x0800b5c4   0x00000004   Code   RO         3166    i.PlatformInfo_DeviceInit  platforminfo.lib(PlatformInfoFwk.o)
    0x0800b5c8   0x00000004   Code   RO         3167    i.PlatformInfo_DeviceOpen  platforminfo.lib(PlatformInfoFwk.o)
    0x0800b5cc   0x00000004   Code   RO         3168    i.PlatformInfo_DevicePowerEvent  platforminfo.lib(PlatformInfoFwk.o)
    0x0800b5d0   0x00000004   Code   RO         3169    i.PlatformInfo_DeviceSysRequest  platforminfo.lib(PlatformInfoFwk.o)
    0x0800b5d4   0x00000004   Code   RO         3170    i.PlatformInfo_DriverDeInit  platforminfo.lib(PlatformInfoFwk.o)
    0x0800b5d8   0x00000004   Code   RO         4200    i.PlatformInfo_DriverInit  platforminfo.lib(PlatformInfo.o)
    0x0800b5dc   0x00000034   Code   RO         4201    i.PlatformInfo_GetKeyValue  platforminfo.lib(PlatformInfo.o)
    0x0800b610   0x00000010   Code   RO         4202    i.PlatformInfo_GetPlatform  platforminfo.lib(PlatformInfo.o)
    0x0800b620   0x0000001c   Code   RO         4203    i.PlatformInfo_GetPlatformInfo  platforminfo.lib(PlatformInfo.o)
    0x0800b63c   0x00000060   Code   RO         4204    i.PlatformInfo_InitRPM  platforminfo.lib(PlatformInfo.o)
    0x0800b69c   0x00000150   Code   RO         4205    i.PlatformInfo_InitSMem  platforminfo.lib(PlatformInfo.o)
    0x0800b7ec   0x00000114   Code   RO         1927    i.PmicArb_AddCacheEntry  Spmi.lib(PmicArb.o)
    0x0800b900   0x00000004   Code   RO         1928    i.PmicArb_ConfigHW  Spmi.lib(PmicArb.o)
    0x0800b904   0x000001a0   Code   RO         1929    i.PmicArb_ExecuteCommand  Spmi.lib(PmicArb.o)
    0x0800baa4   0x00000044   Code   RO         1930    i.PmicArb_FindChannel  Spmi.lib(PmicArb.o)
    0x0800bae8   0x00000024   Code   RO         1931    i.PmicArb_GetHwStatus  Spmi.lib(PmicArb.o)
    0x0800bb0c   0x00000004   Code   RO         1932    i.PmicArb_GetMaxChannelSupport  Spmi.lib(PmicArb.o)
    0x0800bb10   0x0000000c   Code   RO         1933    i.PmicArb_HasInterruptSupport  Spmi.lib(PmicArb.o)
    0x0800bb1c   0x0000003c   Code   RO         1934    i.PmicArb_Init      Spmi.lib(PmicArb.o)
    0x0800bb58   0x00000048   Code   RO         1935    i.PmicArb_InvalidateCache  Spmi.lib(PmicArb.o)
    0x0800bba0   0x00000034   Code   RO         1937    i.PmicArb_UpdateCache  Spmi.lib(PmicArb.o)
    0x0800bbd4   0x00000076   Code   RO         3075    i.PrngCL_getdata    PrngCL.lib(PrngCL.o)
    0x0800bc4a   0x00000004   Code   RO         3076    i.PrngCL_lite_deinit  PrngCL.lib(PrngCL.o)
    0x0800bc4e   0x00000002   PAD
    0x0800bc50   0x00000018   Code   RO         3077    i.PrngCL_lite_init  PrngCL.lib(PrngCL.o)
    0x0800bc68   0x00000004   Code   RO         3862    i.PrngEL_ClkDisable  PrngEL.lib(PrngEL.o)
    0x0800bc6c   0x00000004   Code   RO         3863    i.PrngEL_ClkEnable  PrngEL.lib(PrngEL.o)
    0x0800bc70   0x00000026   Code   RO         2330    i.PrngML_getdata_lite  PrngML.lib(PrngML.o)
    0x0800bc96   0x00000002   PAD
    0x0800bc98   0x00000098   Code   RO         3662    i.QUP_Completion    I2cDriver.lib(I2cDeviceQup.o)
    0x0800bd30   0x000001b4   Code   RO         3663    i.QUP_GetNextOutSeqSlot  I2cDriver.lib(I2cDeviceQup.o)
    0x0800bee4   0x0000005c   Code   RO         3664    i.QUP_GetTransferCnt  I2cDriver.lib(I2cDeviceQup.o)
    0x0800bf40   0x0000002c   Code   RO         3665    i.QUP_InFsm_MoveNextTransfer  I2cDriver.lib(I2cDeviceQup.o)
    0x0800bf6c   0x00000014   Code   RO         3666    i.QUP_InSeqInitTransfer  I2cDriver.lib(I2cDeviceQup.o)
    0x0800bf80   0x0000002a   Code   RO         3667    i.QUP_OutFsm_MoveNextTransfer  I2cDriver.lib(I2cDeviceQup.o)
    0x0800bfaa   0x0000001a   Code   RO         3668    i.QUP_OutSeqInitTransfer  I2cDriver.lib(I2cDeviceQup.o)
    0x0800bfc4   0x00000134   Code   RO         3669    i.QUP_PerformInputOutput  I2cDriver.lib(I2cDeviceQup.o)
    0x0800c0f8   0x000000be   Code   RO         3670    i.QUP_ProcessNextInputSlot  I2cDriver.lib(I2cDeviceQup.o)
    0x0800c1b6   0x00000002   PAD
    0x0800c1b8   0x00000094   Code   RO         3671    i.QUP_ServiceQUP    I2cDriver.lib(I2cDeviceQup.o)
    0x0800c24c   0x000000ac   Code   RO         3672    i.QUP_WaitForCompletion  I2cDriver.lib(I2cDeviceQup.o)
    0x0800c2f8   0x00000040   Code   RO         1313    i.SpmiBus_DeInit    Spmi.lib(SpmiBus.o)
    0x0800c338   0x00000048   Code   RO         1314    i.SpmiBus_Init      Spmi.lib(SpmiBus.o)
    0x0800c380   0x00000016   Code   RO         1315    i.SpmiBus_ReadLong  Spmi.lib(SpmiBus.o)
    0x0800c396   0x0000001a   Code   RO         1319    i.SpmiBus_WriteLong  Spmi.lib(SpmiBus.o)
    0x0800c3b0   0x00000060   Code   RO         1275    i.SpmiCfg_ConfigureChannel  Spmi.lib(SpmiCfg.o)
    0x0800c410   0x00000014   Code   RO         1276    i.SpmiCfg_ConfigureChannels  Spmi.lib(SpmiCfg.o)
    0x0800c424   0x0000000c   Code   RO         1282    i.SpmiCfg_InDynamicChannelMode  Spmi.lib(SpmiCfg.o)
    0x0800c430   0x00000038   Code   RO         1283    i.SpmiCfg_Init      Spmi.lib(SpmiCfg.o)
    0x0800c468   0x00000014   Code   RO         1995    i.SpmiHal_Init      Spmi.lib(SpmiHal.o)
    0x0800c47c   0x0000007c   Code   RO         1956    i.SpmiMaster_ConfigHW  Spmi.lib(SpmiMaster.o)
    0x0800c4f8   0x000000e6   Code   RO         1964    i.SpmiMaster_CreateMappingImage  Spmi.lib(SpmiRadixTree.o)
    0x0800c5de   0x0000002e   Code   RO         1965    i.SpmiMaster_CreateMappingTableEntry  Spmi.lib(SpmiRadixTree.o)
    0x0800c60c   0x000000e8   Code   RO         2946    i.SpmiMaster_LoadFirmware  SpmiDalCfg.lib(GeniImage.o)
    0x0800c6f4   0x0000006c   Code   RO         1966    i.SpmiMaster_LoadRadixTree  Spmi.lib(SpmiRadixTree.o)
    0x0800c760   0x0000003a   Code   RO         1967    i.SpmiMaster_UpdateMappingImageEntry  Spmi.lib(SpmiRadixTree.o)
    0x0800c79a   0x00000002   PAD
    0x0800c79c   0x00000094   Code   RO         2937    i.SpmiOsNhlos_GetDalProp  Spmi.lib(SpmiOs.o)
    0x0800c830   0x00000004   Code   RO         1974    i.SpmiOs_Free       Spmi.lib(SpmiOsImage.o)
    0x0800c834   0x00000028   Code   RO         1975    i.SpmiOs_GetAhbClkState  Spmi.lib(SpmiOsImage.o)
    0x0800c85c   0x00000020   Code   RO         2938    i.SpmiOs_GetOwnerId  Spmi.lib(SpmiOs.o)
    0x0800c87c   0x00000084   Code   RO         2939    i.SpmiOs_GetPmicArbBaseAddr  Spmi.lib(SpmiOs.o)
    0x0800c900   0x00000028   Code   RO         1976    i.SpmiOs_GetSerialClkState  Spmi.lib(SpmiOsImage.o)
    0x0800c928   0x00000006   Code   RO         1977    i.SpmiOs_GetTimeTick  Spmi.lib(SpmiOsImage.o)
    0x0800c92e   0x00000048   Code   RO         1978    i.SpmiOs_HandleTransactionError  Spmi.lib(SpmiOsImage.o)
    0x0800c976   0x00000004   Code   RO         1979    i.SpmiOs_Malloc     Spmi.lib(SpmiOsImage.o)
    0x0800c97a   0x00000004   Code   RO         1980    i.SpmiOs_RegisterISR  Spmi.lib(SpmiOsImage.o)
    0x0800c97e   0x00000004   Code   RO         2940    i.SpmiOs_Wait       Spmi.lib(SpmiOs.o)
    0x0800c982   0x00000008   Code   RO         1396    i.System_DalSystem_Attach  DALFwk.lib(DALModEnv.o)
    0x0800c98a   0x00000004   Code   RO         4628    i.TLMM_Close        DALtlmm.lib(DALTLMM.o)
    0x0800c98e   0x0000000e   Code   RO         4629    i.TLMM_ConfigGpio   DALtlmm.lib(DALTLMM.o)
    0x0800c99c   0x000000d0   Code   RO         4630    i.TLMM_ConfigGpioGroup  DALtlmm.lib(DALTLMM.o)
    0x0800ca6c   0x00000044   Code   RO         4230    i.TLMM_DalTlmm_Attach  DALtlmm.lib(DALTLMMFwk.o)
    0x0800cab0   0x00000006   Code   RO         4231    i.TLMM_DalTlmm_Close  DALtlmm.lib(DALTLMMFwk.o)
    0x0800cab6   0x00000006   Code   RO         4232    i.TLMM_DalTlmm_ConfigGpio  DALtlmm.lib(DALTLMMFwk.o)
    0x0800cabc   0x00000006   Code   RO         4233    i.TLMM_DalTlmm_ConfigGpioGroup  DALtlmm.lib(DALTLMMFwk.o)
    0x0800cac2   0x00000006   Code   RO         4234    i.TLMM_DalTlmm_DeInit  DALtlmm.lib(DALTLMMFwk.o)
    0x0800cac8   0x00000006   Code   RO         4235    i.TLMM_DalTlmm_Detach  DALtlmm.lib(DALTLMMFwk.o)
    0x0800cace   0x00000006   Code   RO         4236    i.TLMM_DalTlmm_GpioOut  DALtlmm.lib(DALTLMMFwk.o)
    0x0800cad4   0x0000000c   Code   RO         4237    i.TLMM_DalTlmm_Info  DALtlmm.lib(DALTLMMFwk.o)
    0x0800cae0   0x0000001c   Code   RO         4238    i.TLMM_DalTlmm_Init  DALtlmm.lib(DALTLMMFwk.o)
    0x0800cafc   0x00000006   Code   RO         4239    i.TLMM_DalTlmm_Open  DALtlmm.lib(DALTLMMFwk.o)
    0x0800cb02   0x00000006   Code   RO         4240    i.TLMM_DalTlmm_PostInit  DALtlmm.lib(DALTLMMFwk.o)
    0x0800cb08   0x00000006   Code   RO         4241    i.TLMM_DalTlmm_PowerEvent  DALtlmm.lib(DALTLMMFwk.o)
    0x0800cb0e   0x00000006   Code   RO         4242    i.TLMM_DalTlmm_SetInactiveConfig  DALtlmm.lib(DALTLMMFwk.o)
    0x0800cb14   0x00000006   Code   RO         4243    i.TLMM_DalTlmm_SetPort  DALtlmm.lib(DALTLMMFwk.o)
    0x0800cb1a   0x00000006   Code   RO         4244    i.TLMM_DalTlmm_SysRequest  DALtlmm.lib(DALTLMMFwk.o)
    0x0800cb20   0x00000016   Code   RO         4631    i.TLMM_DeviceDeInit  DALtlmm.lib(DALTLMM.o)
    0x0800cb36   0x00000002   PAD
    0x0800cb38   0x000001c4   Code   RO         4632    i.TLMM_DeviceInit   DALtlmm.lib(DALTLMM.o)
    0x0800ccfc   0x00000004   Code   RO         4633    i.TLMM_DriverDeInit  DALtlmm.lib(DALTLMM.o)
    0x0800cd00   0x00000004   Code   RO         4634    i.TLMM_DriverInit   DALtlmm.lib(DALTLMM.o)
    0x0800cd04   0x0000000e   Code   RO         4635    i.TLMM_GpioOut      DALtlmm.lib(DALTLMM.o)
    0x0800cd12   0x00000004   Code   RO         4636    i.TLMM_Info         DALtlmm.lib(DALTLMM.o)
    0x0800cd16   0x00000004   Code   RO         4637    i.TLMM_Open         DALtlmm.lib(DALTLMM.o)
    0x0800cd1a   0x00000002   PAD
    0x0800cd1c   0x00000054   Code   RO         4638    i.TLMM_PostInit     DALtlmm.lib(DALTLMM.o)
    0x0800cd70   0x00000004   Code   RO         4639    i.TLMM_PowerEvent   DALtlmm.lib(DALTLMM.o)
    0x0800cd74   0x00000040   Code   RO         4640    i.TLMM_SetInactiveConfig  DALtlmm.lib(DALTLMM.o)
    0x0800cdb4   0x0000005c   Code   RO         4641    i.TLMM_SetPort      DALtlmm.lib(DALTLMM.o)
    0x0800ce10   0x000000b8   Code   RO         4642    i.Tlmm_ConfigGpioGroup  DALtlmm.lib(DALTLMM.o)
    0x0800cec8   0x00000088   Code   RO         4643    i.Tlmm_Init         DALtlmm.lib(DALTLMM.o)
    0x0800cf50   0x000000bc   Code   RO         1526    i.Tsens_GetTemp     tsens.lib(TsensBoot.o)
    0x0800d00c   0x00000134   Code   RO         1527    i.Tsens_Init        tsens.lib(TsensBoot.o)
    0x0800d140   0x00000020   Code   RO         2156    i.Tsensi_Apply_D30_Correction  tsens.lib(TsensiConversion.o)
    0x0800d160   0x00000032   Code   RO         2157    i.Tsensi_Apply_D30_D120_Correction  tsens.lib(TsensiConversion.o)
    0x0800d192   0x00000002   PAD
    0x0800d194   0x00000198   Code   RO         2158    i.Tsensi_CalibrationInit  tsens.lib(TsensiConversion.o)
    0x0800d32c   0x0000005c   Code   RO         2159    i.Tsensi_ConvertFromDegC  tsens.lib(TsensiConversion.o)
    0x0800d388   0x0000004c   Code   RO         2160    i.Tsensi_ConvertToDegC  tsens.lib(TsensiConversion.o)
    0x0800d3d4   0x00000010   Code   RO         2161    i.Tsensi_InterpolateCalcSlope  tsens.lib(TsensiConversion.o)
    0x0800d3e4   0x00000004   Code   RO         3711    i.Uart_busy_wait    UART.lib(Uart_sbl_os.o)
    0x0800d3e8   0x0000003c   Code   RO         3712    i.Uart_clock_close  UART.lib(Uart_sbl_os.o)
    0x0800d424   0x0000006c   Code   RO         3713    i.Uart_clock_open   UART.lib(Uart_sbl_os.o)
    0x0800d490   0x000000dc   Code   RO         2949    i.Uart_deinit       UART.lib(Uart.o)
    0x0800d56c   0x0000006c   Code   RO         3714    i.Uart_get_driver_properties  UART.lib(Uart_sbl_os.o)
    0x0800d5d8   0x000000fc   Code   RO         3715    i.Uart_get_properties  UART.lib(Uart_sbl_os.o)
    0x0800d6d4   0x000000d0   Code   RO         2950    i.Uart_init         UART.lib(Uart.o)
    0x0800d7a4   0x00000054   Code   RO         3716    i.Uart_tlmm_close   UART.lib(Uart_sbl_os.o)
    0x0800d7f8   0x0000006a   Code   RO         3717    i.Uart_tlmm_open    UART.lib(Uart_sbl_os.o)
    0x0800d862   0x0000004a   Code   RO         2953    i.Uart_transmit     UART.lib(Uart.o)
    0x0800d8ac   0x00000048   Code   RO         4673    i.VAdcHalGetConversionCode  adc.lib(VAdcHal.o)
    0x0800d8f4   0x00000068   Code   RO         4676    i.VAdcHalGetRevisionInfo  adc.lib(VAdcHal.o)
    0x0800d95c   0x00000090   Code   RO         4677    i.VAdcHalGetStatus  adc.lib(VAdcHal.o)
    0x0800d9ec   0x00000030   Code   RO         4678    i.VAdcHalRequestConversion  adc.lib(VAdcHal.o)
    0x0800da1c   0x0000009c   Code   RO         4679    i.VAdcHalSetConversionParameters  adc.lib(VAdcHal.o)
    0x0800dab8   0x00000034   Code   RO         4680    i.VAdcHalSetEnable  adc.lib(VAdcHal.o)
    0x0800daec   0x00000034   Code   RO         4682    i.VAdcHalSetOpMode  adc.lib(VAdcHal.o)
    0x0800db20   0x00000060   Code   RO         4683    i.VAdcHalSetSequencerParameters  adc.lib(VAdcHal.o)
    0x0800db80   0x00000058   Code   RO         4684    i.VAdcHalStoreFabID  adc.lib(VAdcHal.o)
    0x0800dbd8   0x00000014   Code   RO         4664    i.VAdcScalePmicTherm  adc.lib(AdcScalingUtil.o)
    0x0800dbec   0x00000034   Code   RO         4665    i.VAdcScaleTdkNTCGTherm  adc.lib(AdcScalingUtil.o)
    0x0800dc20   0x00000006   Code   RO         4336    i.VAdc_Calibrate    adc.lib(DalVAdc.o)
    0x0800dc26   0x000000dc   Code   RO         4337    i.VAdc_CalibrateInternal  adc.lib(DalVAdc.o)
    0x0800dd02   0x0000001e   Code   RO         4338    i.VAdc_Close        adc.lib(DalVAdc.o)
    0x0800dd20   0x00000094   Code   RO         3803    i.VAdc_DalAdcDevice_Attach  adc.lib(DalVAdcFwk.o)
    0x0800ddb4   0x00000006   Code   RO         3804    i.VAdc_DalAdcDevice_Calibrate  adc.lib(DalVAdcFwk.o)
    0x0800ddba   0x00000006   Code   RO         3805    i.VAdc_DalAdcDevice_Close  adc.lib(DalVAdcFwk.o)
    0x0800ddc0   0x00000006   Code   RO         3806    i.VAdc_DalAdcDevice_DeInit  adc.lib(DalVAdcFwk.o)
    0x0800ddc6   0x00000006   Code   RO         3807    i.VAdc_DalAdcDevice_Detach  adc.lib(DalVAdcFwk.o)
    0x0800ddcc   0x00000006   Code   RO         3808    i.VAdc_DalAdcDevice_GetChannelStatus  adc.lib(DalVAdcFwk.o)
    0x0800ddd2   0x00000006   Code   RO         3809    i.VAdc_DalAdcDevice_GetDeviceProperties  adc.lib(DalVAdcFwk.o)
    0x0800ddd8   0x00000006   Code   RO         3810    i.VAdc_DalAdcDevice_GetInputProperties  adc.lib(DalVAdcFwk.o)
    0x0800ddde   0x0000000c   Code   RO         3811    i.VAdc_DalAdcDevice_Info  adc.lib(DalVAdcFwk.o)
    0x0800ddea   0x00000006   Code   RO         3812    i.VAdc_DalAdcDevice_Init  adc.lib(DalVAdcFwk.o)
    0x0800ddf0   0x00000006   Code   RO         3813    i.VAdc_DalAdcDevice_Open  adc.lib(DalVAdcFwk.o)
    0x0800ddf6   0x00000006   Code   RO         3814    i.VAdc_DalAdcDevice_PowerEvent  adc.lib(DalVAdcFwk.o)
    0x0800ddfc   0x00000006   Code   RO         3815    i.VAdc_DalAdcDevice_ReadChannelSync  adc.lib(DalVAdcFwk.o)
    0x0800de02   0x00000006   Code   RO         3816    i.VAdc_DalAdcDevice_RecalibrateChannel  adc.lib(DalVAdcFwk.o)
    0x0800de08   0x00000006   Code   RO         3817    i.VAdc_DalAdcDevice_RecalibrateChannelSync  adc.lib(DalVAdcFwk.o)
    0x0800de0e   0x00000006   Code   RO         3818    i.VAdc_DalAdcDevice_StartConversion  adc.lib(DalVAdcFwk.o)
    0x0800de14   0x00000006   Code   RO         3819    i.VAdc_DalAdcDevice_SysRequest  adc.lib(DalVAdcFwk.o)
    0x0800de1a   0x00000022   Code   RO         4339    i.VAdc_DeviceDeInit  adc.lib(DalVAdc.o)
    0x0800de3c   0x00000140   Code   RO         4340    i.VAdc_DeviceInit   adc.lib(DalVAdc.o)
    0x0800df7c   0x00000004   Code   RO         4341    i.VAdc_DriverDeInit  adc.lib(DalVAdc.o)
    0x0800df80   0x00000004   Code   RO         4342    i.VAdc_DriverInit   adc.lib(DalVAdc.o)
    0x0800df84   0x00000044   Code   RO         4343    i.VAdc_GetChannel   adc.lib(DalVAdc.o)
    0x0800dfc8   0x00000006   Code   RO         4344    i.VAdc_GetChannelStatus  adc.lib(DalVAdc.o)
    0x0800dfce   0x0000000c   Code   RO         4345    i.VAdc_GetDeviceProperties  adc.lib(DalVAdc.o)
    0x0800dfda   0x00000004   Code   RO         4346    i.VAdc_Info         adc.lib(DalVAdc.o)
    0x0800dfde   0x0000001e   Code   RO         4347    i.VAdc_Open         adc.lib(DalVAdc.o)
    0x0800dffc   0x00000004   Code   RO         4348    i.VAdc_PowerEvent   adc.lib(DalVAdc.o)
    0x0800e000   0x000000cc   Code   RO         4349    i.VAdc_ProcessConversionResult  adc.lib(DalVAdc.o)
    0x0800e0cc   0x0000007e   Code   RO         4350    i.VAdc_ReadAdc      adc.lib(DalVAdc.o)
    0x0800e14a   0x0000008c   Code   RO         4351    i.VAdc_ReadAdcChannel  adc.lib(DalVAdc.o)
    0x0800e1d6   0x00000030   Code   RO         4352    i.VAdc_ReadBytes    adc.lib(DalVAdc.o)
    0x0800e206   0x00000040   Code   RO         4353    i.VAdc_ReadChannelSync  adc.lib(DalVAdc.o)
    0x0800e246   0x00000006   Code   RO         4354    i.VAdc_RecalibrateChannel  adc.lib(DalVAdc.o)
    0x0800e24c   0x000000a2   Code   RO         4355    i.VAdc_RecalibrateChannelSync  adc.lib(DalVAdc.o)
    0x0800e2ee   0x00000058   Code   RO         4356    i.VAdc_ScaleResult  adc.lib(DalVAdc.o)
    0x0800e346   0x00000002   PAD
    0x0800e348   0x00000040   Code   RO         4357    i.VAdc_ScaleResultAbsolute  adc.lib(DalVAdc.o)
    0x0800e388   0x00000006   Code   RO         4358    i.VAdc_StartConversion  adc.lib(DalVAdc.o)
    0x0800e38e   0x0000007a   Code   RO         4359    i.VAdc_StartConversionInternal  adc.lib(DalVAdc.o)
    0x0800e408   0x0000002c   Code   RO         4360    i.VAdc_WriteBytes   adc.lib(DalVAdc.o)
    0x0800e434   0x00000078   Code   RO         1397    i._AllocAndInitMemObj  DALFwk.lib(DALModEnv.o)
    0x0800e4ac   0x00000050   Code   RO         1398    i._DALSYSCMN_GetDeviceObject  DALFwk.lib(DALModEnv.o)
    0x0800e4fc   0x00000042   Code   RO         1461    i._DALSYS_GetDALPropertyHandle  DALFwk.lib(DALProps.o)
    0x0800e53e   0x000000e2   Code   RO         1462    i._DALSYS_GetPropertyValue  DALFwk.lib(DALProps.o)
    0x0800e620   0x00000004   Code   RO         1399    i._DALSYS_memscpy   DALFwk.lib(DALModEnv.o)
    0x0800e624   0x00000058   Code   RO         2979    i._FindOrAllocHeader  DALFwk.lib(DALGlbCtxt.o)
    0x0800e67c   0x00000060   Code   RO         1342    i._Init             DALFwk.lib(DALMemDesc.o)
    0x0800e6dc   0x00000040   Code   RO         1343    i._MemDescCache     DALFwk.lib(DALMemDesc.o)
    0x0800e71c   0x00000020   Code   RO         2980    i._PopulateLockHdr  DALFwk.lib(DALGlbCtxt.o)
    0x0800e73c   0x00000198   Code   RO         1344    i._PopulateOutDescList  DALFwk.lib(DALMemDesc.o)
    0x0800e8d4   0x000000f6   Code   RO         1463    i._PopulateProp     DALFwk.lib(DALProps.o)
    0x0800e9ca   0x00000002   PAD
    0x0800e9cc   0x00000030   Code   RO          307    i.__rt_raise        boot_error_dload.lib(boot_error_handler.o)
    0x0800e9fc   0x00000002   Code   RO          308    i.__stack_chk_fail  boot_error_dload.lib(boot_error_handler.o)
    0x0800e9fe   0x0000000e   Code   RO         4945    i._is_digit         c_2.l(__printf_wp.o)
    0x0800ea0c   0x0000002e   Code   RO         3873    i.add               secmath.lib(secmath_montmul_utils.o)
    0x0800ea3a   0x00000002   PAD
    0x0800ea3c   0x00000070   Code   RO          830    i.add_ram_partitions  boot_mem_manage.lib(boot_ram_partition.o)
    0x0800eaac   0x00000030   Code   RO          831    i.add_single_ram_partition  boot_mem_manage.lib(boot_ram_partition.o)
    0x0800eadc   0x000000b0   Code   RO          832    i.add_system_ram_partitions  boot_mem_manage.lib(boot_ram_partition.o)
    0x0800eb8c   0x0000007c   Code   RO          904    i.apt_canary_overwrite  apt.lib(boot_apt_test.o)
    0x0800ec08   0x00000158   Code   RO          905    i.apt_single_test   apt.lib(boot_apt_test.o)
    0x0800ed60   0x00000014   Code   RO          906    i.apt_test          apt.lib(boot_apt_test.o)
    0x0800ed74   0x0000002c   Code   RO         1287    i.assignChannel     Spmi.lib(SpmiCfg.o)
    0x0800eda0   0x0000002e   Code   RO          226    i.bByteCompare      boot_util.lib(boot_util.o)
    0x0800edce   0x00000010   Code   RO          227    i.bLoad8            boot_util.lib(boot_util.o)
    0x0800edde   0x0000001a   Code   RO          228    i.bStor8            boot_util.lib(boot_util.o)
    0x0800edf8   0x000000d4   Code   RO         1469    i.bam_deinit        bam.lib(bams.o)
    0x0800eecc   0x00000024   Code   RO         1471    i.bam_drv_init      bam.lib(bams.o)
    0x0800eef0   0x0000032c   Code   RO         1473    i.bam_init          bam.lib(bams.o)
    0x0800f21c   0x00000002   Code   RO         1474    i.bam_isr           bam.lib(bams.o)
    0x0800f21e   0x0000001c   Code   RO         1475    i.bam_needs_init    bam.lib(bams.o)
    0x0800f23a   0x0000001a   Code   RO         1476    i.bam_needs_secure_init  bam.lib(bams.o)
    0x0800f254   0x00000018   Code   RO         2017    i.bam_osal_cachecmd  bam.lib(bamosal.o)
    0x0800f26c   0x00000004   Code   RO         2023    i.bam_osal_free     bam.lib(bamosal.o)
    0x0800f270   0x00000010   Code   RO         2024    i.bam_osal_freememregion  bam.lib(bamosal.o)
    0x0800f280   0x00000002   Code   RO         2025    i.bam_osal_init     bam.lib(bamosal.o)
    0x0800f282   0x00000004   Code   RO         2027    i.bam_osal_isrinstall  bam.lib(bamosal.o)
    0x0800f286   0x00000002   Code   RO         2028    i.bam_osal_isruninstall  bam.lib(bamosal.o)
    0x0800f288   0x00000012   Code   RO         2029    i.bam_osal_malloc   bam.lib(bamosal.o)
    0x0800f29a   0x00000002   PAD
    0x0800f29c   0x00000050   Code   RO         2030    i.bam_osal_mallocmemregion  bam.lib(bamosal.o)
    0x0800f2ec   0x00000004   Code   RO         2032    i.bam_osal_memorybarrier  bam.lib(bamosal.o)
    0x0800f2f0   0x00000004   Code   RO         2033    i.bam_osal_syncdestroy  bam.lib(bamosal.o)
    0x0800f2f4   0x00000002   Code   RO         2034    i.bam_osal_syncenter  bam.lib(bamosal.o)
    0x0800f2f6   0x00000004   Code   RO         2035    i.bam_osal_syncinit  bam.lib(bamosal.o)
    0x0800f2fa   0x00000002   Code   RO         2036    i.bam_osal_syncleave  bam.lib(bamosal.o)
    0x0800f2fc   0x00000086   Code   RO         1478    i.bam_pipe_deinit   bam.lib(bams.o)
    0x0800f382   0x00000054   Code   RO         1479    i.bam_pipe_disable  bam.lib(bams.o)
    0x0800f3d6   0x0000007c   Code   RO         1480    i.bam_pipe_enable   bam.lib(bams.o)
    0x0800f452   0x0000018e   Code   RO         1481    i.bam_pipe_eot_handler  bam.lib(bams.o)
    0x0800f5e0   0x0000014e   Code   RO         1484    i.bam_pipe_init     bam.lib(bams.o)
    0x0800f72e   0x00000064   Code   RO         1487    i.bam_pipe_poll     bam.lib(bams.o)
    0x0800f792   0x0000005c   Code   RO         1488    i.bam_pipe_setirqmode  bam.lib(bams.o)
    0x0800f7ee   0x00000046   Code   RO         1489    i.bam_pipe_transfer  bam.lib(bams.o)
    0x0800f834   0x00000038   Code   RO         1491    i.bam_secure_init   bam.lib(bams.o)
    0x0800f86c   0x00000038   Code   RO         2140    i.bam_tgt_getcfg    bam.lib(bamtgtcfg.o)
    0x0800f8a4   0x00000038   Code   RO         2141    i.bam_tgt_getnumdevs  bam.lib(bamtgtcfg.o)
    0x0800f8dc   0x0000005a   Code   RO         2057    i.bamcore_bam_enabled  bam.lib(bamcore.o)
    0x0800f936   0x00000122   Code   RO         2058    i.bamcore_check     bam.lib(bamcore.o)
    0x0800fa58   0x00000012   Code   RO         2059    i.bamcore_deinit    bam.lib(bamcore.o)
    0x0800fa6a   0x00000004   Code   RO         2065    i.bamcore_getirqmode  bam.lib(bamcore.o)
    0x0800fa6e   0x0000007a   Code   RO         2067    i.bamcore_init      bam.lib(bamcore.o)
    0x0800fae8   0x00000004   Code   RO         2068    i.bamcore_lpae_supported  bam.lib(bamcore.o)
    0x0800faec   0x00000048   Code   RO         2069    i.bamcore_pipe_deinit  bam.lib(bamcore.o)
    0x0800fb34   0x0000001c   Code   RO         2074    i.bamcore_pipe_get_toggle  bam.lib(bamcore.o)
    0x0800fb50   0x0000001c   Code   RO         2075    i.bamcore_pipe_getandclearirqstatus  bam.lib(bamcore.o)
    0x0800fb6c   0x00000012   Code   RO         2077    i.bamcore_pipe_getdescreadoffset  bam.lib(bamcore.o)
    0x0800fb7e   0x00000002   PAD
    0x0800fb80   0x000000e0   Code   RO         2082    i.bamcore_pipe_init  bam.lib(bamcore.o)
    0x0800fc60   0x00000020   Code   RO         2083    i.bamcore_pipe_nwd_done  bam.lib(bamcore.o)
    0x0800fc80   0x000000b4   Code   RO         2084    i.bamcore_pipe_secure_init  bam.lib(bamcore.o)
    0x0800fd34   0x00000014   Code   RO         2085    i.bamcore_pipe_setdescwriteoffset  bam.lib(bamcore.o)
    0x0800fd48   0x00000074   Code   RO         2086    i.bamcore_pipe_setirqmode  bam.lib(bamcore.o)
    0x0800fdbc   0x0000001a   Code   RO         2087    i.bamcore_pipe_setlockgroup  bam.lib(bamcore.o)
    0x0800fdd6   0x00000002   PAD
    0x0800fdd8   0x00000070   Code   RO         2091    i.bamcore_secure_init  bam.lib(bamcore.o)
    0x0800fe48   0x00000060   Code   RO         2092    i.bamcore_secure_set_sg  bam.lib(bamcore.o)
    0x0800fea8   0x00000038   Code   RO         2093    i.bamcore_setirqmode  bam.lib(bamcore.o)
    0x0800fee0   0x00000008   Code   RO         2095    i.bamdev_read_reg_field  bam.lib(bamcore.o)
    0x0800fee8   0x00000018   Code   RO         2097    i.bamdev_write_reg_field  bam.lib(bamcore.o)
    0x0800ff00   0x000000c4   Code   RO         1493    i.bami_pipe_transfer_no_lock  bam.lib(bams.o)
    0x0800ffc4   0x00000004   Code   RO          670    i.boot_BootTempCheck  boot_extern_driver_interface.lib(boot_extern_tsensor_interface.o)
    0x0800ffc8   0x00000004   Code   RO         1066    i.boot_CeMLDeInit   boot_extern_driver_interface.lib(boot_extern_crypto_interface.o)
    0x0800ffcc   0x00000004   Code   RO         1067    i.boot_CeMLHashDeInit  boot_extern_driver_interface.lib(boot_extern_crypto_interface.o)
    0x0800ffd0   0x00000004   Code   RO         1068    i.boot_CeMLHashFinal  boot_extern_driver_interface.lib(boot_extern_crypto_interface.o)
    0x0800ffd4   0x00000004   Code   RO         1069    i.boot_CeMLHashInit  boot_extern_driver_interface.lib(boot_extern_crypto_interface.o)
    0x0800ffd8   0x00000004   Code   RO         1070    i.boot_CeMLHashUpdate  boot_extern_driver_interface.lib(boot_extern_crypto_interface.o)
    0x0800ffdc   0x00000004   Code   RO         1071    i.boot_CeMLInit     boot_extern_driver_interface.lib(boot_extern_crypto_interface.o)
    0x0800ffe0   0x00000004   Code   RO          532    i.boot_DALFW_MemDescBufPtr  boot_extern_driver_interface.lib(boot_extern_dal_interface.o)
    0x0800ffe4   0x00000004   Code   RO          533    i.boot_DALFW_MemDescInit  boot_extern_driver_interface.lib(boot_extern_dal_interface.o)
    0x0800ffe8   0x00000004   Code   RO          535    i.boot_DALSYS_HeapInit  boot_extern_driver_interface.lib(boot_extern_dal_interface.o)
    0x0800ffec   0x00000004   Code   RO          536    i.boot_DALSYS_InitMod  boot_extern_driver_interface.lib(boot_extern_dal_interface.o)
    0x0800fff0   0x00000004   Code   RO          538    i.boot_DALSYS_MemInfo  boot_extern_driver_interface.lib(boot_extern_dal_interface.o)
    0x0800fff4   0x00000010   Code   RO          539    i.boot_DALSYS_MemRegionAlloc  boot_extern_driver_interface.lib(boot_extern_dal_interface.o)
    0x08010004   0x00000004   Code   RO          540    i.boot_DAL_DeviceAttach  boot_extern_driver_interface.lib(boot_extern_dal_interface.o)
    0x08010008   0x00000004   Code   RO          541    i.boot_DAL_DeviceAttachEx  boot_extern_driver_interface.lib(boot_extern_dal_interface.o)
    0x0801000c   0x00000004   Code   RO          542    i.boot_DAL_DeviceDetach  boot_extern_driver_interface.lib(boot_extern_dal_interface.o)
    0x08010010   0x0000000a   Code   RO          543    i.boot_DalDevice_Close  boot_extern_driver_interface.lib(boot_extern_dal_interface.o)
    0x0801001a   0x00000006   Code   RO          660    i.boot_DalPlatformInfo_CDTConfigPostDDR  boot_extern_driver_interface.lib(boot_extern_platforminfo_interface.o)
    0x08010020   0x00000006   Code   RO          661    i.boot_DalPlatformInfo_CDTConfigPreDDR  boot_extern_driver_interface.lib(boot_extern_platforminfo_interface.o)
    0x08010026   0x00000004   Code   RO          674    i.boot_ICB_Config_Init  boot_extern_driver_interface.lib(boot_extern_bus_interface.o)
    0x0801002a   0x00000004   Code   RO          675    i.boot_ICB_Segments_Init  boot_extern_driver_interface.lib(boot_extern_bus_interface.o)
    0x0801002e   0x00000004   Code   RO         1072    i.boot_PrngML_getdata_lite  boot_extern_driver_interface.lib(boot_extern_crypto_interface.o)
    0x08010032   0x00000004   Code   RO          671    i.boot_Tsens_Init   boot_extern_driver_interface.lib(boot_extern_tsensor_interface.o)
    0x08010036   0x00000004   Code   RO          694    i.boot_apt_test     boot_extern_driver_interface.lib(boot_extern_apt_interface.o)
    0x0801003a   0x00000002   PAD
    0x0801003c   0x000000ac   Code   RO          840    i.boot_auth_image   boot_security.lib(boot_authenticator.o)
    0x080100e8   0x000000e0   Code   RO          841    i.boot_auth_load_header  boot_security.lib(boot_authenticator.o)
    0x080101c8   0x00000004   Code   RO          696    i.boot_bam_drv_init  boot_extern_driver_interface.lib(boot_extern_bam_interface.o)
    0x080101cc   0x00000004   Code   RO          666    i.boot_busywait     boot_extern_driver_interface.lib(boot_extern_busywait_interface.o)
    0x080101d0   0x00000004   Code   RO          667    i.boot_busywait_init  boot_extern_driver_interface.lib(boot_extern_busywait_interface.o)
    0x080101d4   0x00000034   Code   RO          805    i.boot_cache_set_memory_barrier  boot_mem_manage.lib(boot_smem.o)
    0x08010208   0x00000034   Code   RO          288    i.boot_check_device_temp  boot_target_hw.lib(boot_thermal_management.o)
    0x0801023c   0x00000088   Code   RO          698    i.boot_clobber_add_global_protection_region  boot_flash_common.lib(boot_clobber_prot.o)
    0x080102c4   0x00000064   Code   RO          718    i.boot_clobber_add_local_hole  boot_flash_common.lib(boot_clobber_prot_local.o)
    0x08010328   0x00000078   Code   RO          699    i.boot_clobber_check_global_address_range  boot_flash_common.lib(boot_clobber_prot.o)
    0x080103a0   0x0000007c   Code   RO          700    i.boot_clobber_check_global_whitelist_range  boot_flash_common.lib(boot_clobber_prot.o)
    0x0801041c   0x00000088   Code   RO          719    i.boot_clobber_check_local_address_range  boot_flash_common.lib(boot_clobber_prot_local.o)
    0x080104a4   0x00000044   Code   RO          701    i.boot_clobber_clear_whitelist_table  boot_flash_common.lib(boot_clobber_prot.o)
    0x080104e8   0x0000000c   Code   RO          704    i.boot_clobber_import_whitelist_table  boot_flash_common.lib(boot_clobber_prot.o)
    0x080104f4   0x0000000a   Code   RO          720    i.boot_clobber_local_init  boot_flash_common.lib(boot_clobber_prot_local.o)
    0x080104fe   0x00000002   PAD
    0x08010500   0x0000005c   Code   RO          706    i.boot_clobber_remove_global_whitelist_region  boot_flash_common.lib(boot_clobber_prot.o)
    0x0801055c   0x00000058   Code   RO          721    i.boot_clobber_remove_local_hole  boot_flash_common.lib(boot_clobber_prot_local.o)
    0x080105b4   0x00000004   Code   RO          576    i.boot_clock_SetUARTClockFrequency  boot_extern_driver_interface.lib(boot_extern_clk_interface.o)
    0x080105b8   0x00000004   Code   RO          577    i.boot_clock_debug_init  boot_extern_driver_interface.lib(boot_extern_clk_interface.o)
    0x080105bc   0x00000004   Code   RO          578    i.boot_clock_disable_UARTClock  boot_extern_driver_interface.lib(boot_extern_clk_interface.o)
    0x080105c0   0x00000004   Code   RO          579    i.boot_clock_exit_boot  boot_extern_driver_interface.lib(boot_extern_clk_interface.o)
    0x080105c4   0x00000004   Code   RO          581    i.boot_clock_get_ddr_speed  boot_extern_driver_interface.lib(boot_extern_clk_interface.o)
    0x080105c8   0x00000008   Code   RO          582    i.boot_clock_init   boot_extern_driver_interface.lib(boot_extern_clk_interface.o)
    0x080105d0   0x00000004   Code   RO          583    i.boot_clock_set_L2_perf_level  boot_extern_driver_interface.lib(boot_extern_clk_interface.o)
    0x080105d4   0x00000004   Code   RO          585    i.boot_clock_set_cpu_perf_level  boot_extern_driver_interface.lib(boot_extern_clk_interface.o)
    0x080105d8   0x000000c0   Code   RO          798    i.boot_config_data_table_init  boot_cdt.lib(boot_config_data.o)
    0x08010698   0x0000004c   Code   RO          780    i.boot_config_process_bl  boot_image_loading.lib(boot_config.o)
    0x080106e4   0x00000304   Code   RO          781    i.boot_config_process_entry  boot_image_loading.lib(boot_config.o)
    0x080109e8   0x00000028   Code   RO          799    i.boot_copy_config_data_block  boot_cdt.lib(boot_config_data.o)
    0x08010a10   0x00000012   Code   RO         1857    i.boot_copy_data    boot_nand.lib(boot_flash_trans_nand.o)
    0x08010a22   0x00000012   Code   RO          229    i.boot_count_set_bits  boot_util.lib(boot_util.o)
    0x08010a34   0x00000028   Code   RO          309    i.boot_data_abort_c_handler  boot_error_dload.lib(boot_error_handler.o)
    0x08010a5c   0x00000090   Code   RO          339    i.boot_dload_check  boot_error_dload.lib(boot_dload.o)
    0x08010aec   0x00000004   Code   RO          589    i.boot_dload_clock_init  boot_extern_driver_interface.lib(boot_extern_clk_interface.o)
    0x08010af0   0x00000058   Code   RO          351    i.boot_dload_dump_security_regions  boot_error_dload.lib(boot_dload_debug.o)
    0x08010b48   0x00000020   Code   RO          340    i.boot_dload_entry  boot_error_dload.lib(boot_dload.o)
    0x08010b68   0x00000014   Code   RO          341    i.boot_dload_is_dload_mode_set  boot_error_dload.lib(boot_dload.o)
    0x08010b7c   0x00000010   Code   RO          342    i.boot_dload_set_cookie  boot_error_dload.lib(boot_dload.o)
    0x08010b8c   0x000000e0   Code   RO           65    i.boot_dload_transition_enter_sahara  sbl1_target.o
    0x08010c6c   0x0000001c   Code   RO          343    i.boot_dload_transition_pbl_forced_dload  boot_error_dload.lib(boot_dload.o)
    0x08010c88   0x0000003c   Code   RO          776    i.boot_do_procedures  boot_image_loading.lib(boot_mc.o)
    0x08010cc4   0x00000020   Code   RO         1222    i.boot_eeprom_dev_deinit  boot_cdt.lib(boot_config_eeprom.o)
    0x08010ce4   0x00000070   Code   RO         1223    i.boot_eeprom_dev_init  boot_cdt.lib(boot_config_eeprom.o)
    0x08010d54   0x0000005c   Code   RO         1224    i.boot_eeprom_read  boot_cdt.lib(boot_config_eeprom.o)
    0x08010db0   0x00000050   Code   RO         1172    i.boot_elf_enable_hash_checking  boot_image_loading.lib(boot_elf_loader.o)
    0x08010e00   0x00000088   Code   RO         1173    i.boot_elf_load_and_verify_image  boot_image_loading.lib(boot_elf_loader.o)
    0x08010e88   0x0000008c   Code   RO         1174    i.boot_elf_load_and_verify_image_in_chunks  boot_image_loading.lib(boot_elf_loader.o)
    0x08010f14   0x000001c4   Code   RO         1175    i.boot_elf_load_init_hash_segment  boot_image_loading.lib(boot_elf_loader.o)
    0x080110d8   0x000000d4   Code   RO         1176    i.boot_elf_load_seg_generic  boot_image_loading.lib(boot_elf_loader.o)
    0x080111ac   0x00000178   Code   RO         1177    i.boot_elf_load_seg_in_chunks  boot_image_loading.lib(boot_elf_loader.o)
    0x08011324   0x000000e4   Code   RO         1178    i.boot_elf_open_and_parse_elf_header  boot_image_loading.lib(boot_elf_loader.o)
    0x08011408   0x00000068   Code   RO         1179    i.boot_elf_phdr_is_loadable  boot_image_loading.lib(boot_elf_loader.o)
    0x08011470   0x0000003c   Code   RO         1180    i.boot_elf_populate_meta_info  boot_image_loading.lib(boot_elf_loader.o)
    0x080114ac   0x0000000c   Code   RO         1182    i.boot_elf_set_auth_and_ssa_enable  boot_image_loading.lib(boot_elf_loader.o)
    0x080114b8   0x00000164   Code   RO         1183    i.boot_elf_verify_elf_hdr  boot_image_loading.lib(boot_elf_loader.o)
    0x0801161c   0x00000094   Code   RO         1184    i.boot_elf_verify_header  boot_image_loading.lib(boot_elf_loader.o)
    0x080116b0   0x000000f4   Code   RO         1186    i.boot_elf_verify_segment  boot_image_loading.lib(boot_elf_loader.o)
    0x080117a4   0x000000a0   Code   RO         1187    i.boot_elf_verify_start_addr  boot_image_loading.lib(boot_elf_loader.o)
    0x08011844   0x00000064   Code   RO         1188    i.boot_elf_verify_start_addr_32  boot_image_loading.lib(boot_elf_loader.o)
    0x080118a8   0x0000006c   Code   RO         1189    i.boot_elf_ziinit_structures  boot_image_loading.lib(boot_elf_loader.o)
    0x08011914   0x00000030   Code   RO          310    i.boot_err_fatal    boot_error_dload.lib(boot_error_handler.o)
    0x08011944   0x000000dc   Code   RO          311    i.boot_error_handler  boot_error_dload.lib(boot_error_handler.o)
    0x08011a20   0x00000008   Ven    RO          312    i.boot_fiq_c_handler  boot_error_dload.lib(boot_error_handler.o)
    0x08011a28   0x00000030   Code   RO          312    i.boot_fiq_c_handler  boot_error_dload.lib(boot_error_handler.o)
    0x08011a58   0x00000006   Code   RO         1038    i.boot_flash_block_get_state  boot_extern_driver_interface.lib(boot_extern_flash_interface.o)
    0x08011a5e   0x00000004   Code   RO         1039    i.boot_flash_boot_ops_get_parti_tbl  boot_extern_driver_interface.lib(boot_extern_flash_interface.o)
    0x08011a62   0x00000014   Code   RO           63    i.boot_flash_configure_target_image  sbl1_mc.o
    0x08011a76   0x00000006   Code   RO         1040    i.boot_flash_copy_pages  boot_extern_driver_interface.lib(boot_extern_flash_interface.o)
    0x08011a7c   0x00000014   Code   RO           61    i.boot_flash_dev_close_image  sbl1_mc.o
    0x08011a90   0x00000004   Code   RO          772    i.boot_flash_dev_default_stub  boot_nand.lib(boot_flash_dev_nand.o)
    0x08011a94   0x00000038   Code   RO          732    i.boot_flash_dev_if_get_singleton  boot_flash_common.lib(boot_flash_dev_if.o)
    0x08011acc   0x0000003c   Code   RO          733    i.boot_flash_dev_if_lock_singleton  boot_flash_common.lib(boot_flash_dev_if.o)
    0x08011b08   0x0000003c   Code   RO          734    i.boot_flash_dev_if_register_singleton  boot_flash_common.lib(boot_flash_dev_if.o)
    0x08011b44   0x00000040   Code   RO         1152    i.boot_flash_dev_nand_if_get_singleton  boot_nand.lib(boot_flash_dev_nand_if.o)
    0x08011b84   0x00000044   Code   RO         1154    i.boot_flash_dev_nand_if_register_singleton  boot_nand.lib(boot_flash_dev_nand_if.o)
    0x08011bc8   0x000000b4   Code   RO          741    i.boot_flash_dev_nand_init_and_register  boot_nand.lib(boot_flash_dev_nand.o)
    0x08011c7c   0x00000058   Code   RO          743    i.boot_flash_dev_nand_store_partition_table  boot_nand.lib(boot_flash_dev_nand.o)
    0x08011cd4   0x00000014   Code   RO           59    i.boot_flash_dev_open_image  sbl1_mc.o
    0x08011ce8   0x00000006   Code   RO         1041    i.boot_flash_erase_blocks  boot_extern_driver_interface.lib(boot_extern_flash_interface.o)
    0x08011cee   0x00000002   PAD
    0x08011cf0   0x00000088   Code   RO         1161    i.boot_flash_find_partition_entry  boot_nand.lib(boot_flash_partition.o)
    0x08011d78   0x00000006   Code   RO         1042    i.boot_flash_get_info  boot_extern_driver_interface.lib(boot_extern_flash_interface.o)
    0x08011d7e   0x00000002   PAD
    0x08011d80   0x00000050   Code   RO          726    i.boot_flash_init   boot_flash_common.lib(boot_flash.o)
    0x08011dd0   0x00000006   Code   RO         1043    i.boot_flash_open_partition  boot_extern_driver_interface.lib(boot_extern_flash_interface.o)
    0x08011dd6   0x0000000c   Code   RO         1044    i.boot_flash_read_pages  boot_extern_driver_interface.lib(boot_extern_flash_interface.o)
    0x08011de2   0x00000002   PAD
    0x08011de4   0x00000058   Code   RO         1084    i.boot_flash_target_init  boot_flash_common.lib(boot_flash_target.o)
    0x08011e3c   0x0000000c   Code   RO          770    i.boot_flash_trans_factory_open  boot_nand.lib(boot_flash_dev_nand.o)
    0x08011e48   0x0000007c   Code   RO         1858    i.boot_flash_trans_nand_factory_close  boot_nand.lib(boot_flash_trans_nand.o)
    0x08011ec4   0x0000002c   Code   RO         1859    i.boot_flash_trans_nand_factory_init  boot_nand.lib(boot_flash_trans_nand.o)
    0x08011ef0   0x00000070   Code   RO         1860    i.boot_flash_trans_nand_factory_open  boot_nand.lib(boot_flash_trans_nand.o)
    0x08011f60   0x000000b8   Code   RO         1861    i.boot_flash_trans_nand_init  boot_nand.lib(boot_flash_trans_nand.o)
    0x08012018   0x000001dc   Code   RO         1862    i.boot_flash_trans_nand_read  boot_nand.lib(boot_flash_trans_nand.o)
    0x080121f4   0x0000003c   Code   RO         1863    i.boot_flash_trans_nand_set_copy_callback  boot_nand.lib(boot_flash_trans_nand.o)
    0x08012230   0x00000030   Code   RO           57    i.boot_flash_trans_read  sbl1_mc.o
    0x08012260   0x0000000c   Code   RO         1045    i.boot_flash_write_pages  boot_extern_driver_interface.lib(boot_extern_flash_interface.o)
    0x0801226c   0x0000000c   Code   RO          774    i.boot_get_bit_set_position  boot_nand.lib(boot_flash_dev_nand.o)
    0x08012278   0x000000b0   Code   RO          800    i.boot_get_config_data_block  boot_cdt.lib(boot_config_data.o)
    0x08012328   0x0000003c   Code   RO          820    i.boot_get_ddr_info  boot_mem_manage.lib(boot_ddr_info.o)
    0x08012364   0x0000001e   Code   RO         1016    i.boot_get_delta_time  boot_logger.lib(boot_logger_timer.o)
    0x08012382   0x00000002   PAD
    0x08012384   0x0000000c   Code   RO         1190    i.boot_get_elf_eident_class  boot_image_loading.lib(boot_elf_loader.o)
    0x08012390   0x00000024   Code   RO         1191    i.boot_get_elf_entry_address  boot_image_loading.lib(boot_elf_loader.o)
    0x080123b4   0x00000006   Code   RO          468    i.boot_get_hash_buffer_size  boot_error_dload.lib(boot_hash_buffer.o)
    0x080123ba   0x00000002   PAD
    0x080123bc   0x00000008   Code   RO          469    i.boot_get_hash_segment_buffer  boot_error_dload.lib(boot_hash_buffer.o)
    0x080123c4   0x0000000c   Code   RO          470    i.boot_get_hash_table_auth_result  boot_error_dload.lib(boot_hash_buffer.o)
    0x080123d0   0x00000008   Code   RO          842    i.boot_get_sbl_auth_verified_info  boot_security.lib(boot_authenticator.o)
    0x080123d8   0x00000030   Code   RO         1017    i.boot_get_time     boot_logger.lib(boot_logger_timer.o)
    0x08012408   0x00000010   Code   RO         1018    i.boot_get_time_count  boot_logger.lib(boot_logger_timer.o)
    0x08012418   0x00000030   Code   RO          664    i.boot_gpio_init    boot_extern_driver_interface.lib(boot_extern_tlmm_interface.o)
    0x08012448   0x00000002   Code   RO           94    i.boot_hand_control_to_deviceprogrammer_ddr_main  sbl1_config.o
    0x0801244a   0x00000034   Code   RO          478    i.boot_hash         boot_error_dload.lib(boot_hash.o)
    0x0801247e   0x00000002   PAD
    0x08012480   0x000000b0   Code   RO          479    i.boot_hashFinal    boot_error_dload.lib(boot_hash.o)
    0x08012530   0x0000005c   Code   RO          480    i.boot_hashInit     boot_error_dload.lib(boot_hash.o)
    0x0801258c   0x0000003e   Code   RO          481    i.boot_hashUpdate   boot_error_dload.lib(boot_hash.o)
    0x080125ca   0x00000004   Code   RO         1054    i.boot_image_populate_uuid  boot_extern_driver_interface.lib(boot_extern_smem_interface.o)
    0x080125ce   0x00000004   Code   RO         1055    i.boot_image_version_initialize_version_table  boot_extern_driver_interface.lib(boot_extern_smem_interface.o)
    0x080125d2   0x00000004   Code   RO         1056    i.boot_image_version_populate_version  boot_extern_driver_interface.lib(boot_extern_smem_interface.o)
    0x080125d6   0x00000002   Code   RO          344    i.boot_init_for_dload  boot_error_dload.lib(boot_dload.o)
    0x080125d8   0x00000040   Code   RO          313    i.boot_init_stack_chk_canary  boot_error_dload.lib(boot_error_handler.o)
    0x08012618   0x00000020   Code   RO         1019    i.boot_init_timer   boot_logger.lib(boot_logger_timer.o)
    0x08012638   0x00000044   Code   RO          314    i.boot_install_error_callback  boot_error_dload.lib(boot_error_handler.o)
    0x0801267c   0x00000008   Ven    RO          315    i.boot_irq_c_handler  boot_error_dload.lib(boot_error_handler.o)
    0x08012684   0x00000030   Code   RO          315    i.boot_irq_c_handler  boot_error_dload.lib(boot_error_handler.o)
    0x080126b4   0x00000020   Code   RO          843    i.boot_is_auth_enabled  boot_security.lib(boot_authenticator.o)
    0x080126d4   0x000000d0   Code   RO          260    i.boot_l2_page_table_init  boot_mmu.lib(boot_page_table.o)
    0x080127a4   0x00000064   Code   RO         1194    i.boot_load_elf_image  boot_image_loading.lib(boot_elf_loader.o)
    0x08012808   0x00000130   Code   RO         1164    i.boot_load_header_and_image  boot_image_loading.lib(boot_loader.o)
    0x08012938   0x00000058   Code   RO          492    i.boot_log_boot_config_register  boot_logger.lib(boot_logger.o)
    0x08012990   0x0000007c   Code   RO         1006    i.boot_log_copy_ram  boot_logger.lib(boot_logger_ram.o)
    0x08012a0c   0x0000005c   Code   RO          493    i.boot_log_ddr_frequency  boot_logger.lib(boot_logger.o)
    0x08012a68   0x0000000c   Code   RO         1028    i.boot_log_deinit_uart  boot_logger.lib(boot_logger_uart.o)
    0x08012a74   0x00000006   Code   RO          494    i.boot_log_delta_time  boot_logger.lib(boot_logger.o)
    0x08012a7a   0x00000028   Code   RO          495    i.boot_log_delta_time_optional_data  boot_logger.lib(boot_logger.o)
    0x08012aa2   0x00000002   Code   RO          496    i.boot_log_dump     boot_logger.lib(boot_logger.o)
    0x08012aa4   0x00000018   Code   RO          497    i.boot_log_forever_loop_check  boot_logger.lib(boot_logger.o)
    0x08012abc   0x0000000c   Code   RO          498    i.boot_log_get_meta_info  boot_logger.lib(boot_logger.o)
    0x08012ac8   0x00000004   Code   RO          499    i.boot_log_get_time  boot_logger.lib(boot_logger.o)
    0x08012acc   0x0000007c   Code   RO          500    i.boot_log_image_version  boot_logger.lib(boot_logger.o)
    0x08012b48   0x0000002c   Code   RO          501    i.boot_log_init     boot_logger.lib(boot_logger.o)
    0x08012b74   0x00000060   Code   RO         1007    i.boot_log_init_ram  boot_logger.lib(boot_logger_ram.o)
    0x08012bd4   0x0000000c   Code   RO         1029    i.boot_log_init_uart  boot_logger.lib(boot_logger_uart.o)
    0x08012be0   0x00000006   Code   RO          502    i.boot_log_message  boot_logger.lib(boot_logger.o)
    0x08012be6   0x00000028   Code   RO          503    i.boot_log_message_optional_data  boot_logger.lib(boot_logger.o)
    0x08012c0e   0x00000002   PAD
    0x08012c10   0x000000fc   Code   RO         1008    i.boot_log_message_ram  boot_logger.lib(boot_logger_ram.o)
    0x08012d0c   0x00000020   Code   RO          504    i.boot_log_message_raw  boot_logger.lib(boot_logger.o)
    0x08012d2c   0x0000013c   Code   RO         1030    i.boot_log_message_uart  boot_logger.lib(boot_logger_uart.o)
    0x08012e68   0x0000001e   Code   RO         1009    i.boot_log_ram_put_string  boot_logger.lib(boot_logger_ram.o)
    0x08012e86   0x00000002   PAD
    0x08012e88   0x0000001c   Code   RO          505    i.boot_log_relocate  boot_logger.lib(boot_logger.o)
    0x08012ea4   0x0000000c   Code   RO          506    i.boot_log_set_meta_info  boot_logger.lib(boot_logger.o)
    0x08012eb0   0x00000010   Code   RO          507    i.boot_log_set_ref_time  boot_logger.lib(boot_logger.o)
    0x08012ec0   0x00000004   Code   RO          508    i.boot_log_start_timer  boot_logger.lib(boot_logger.o)
    0x08012ec4   0x00000006   Code   RO          509    i.boot_log_stop_timer  boot_logger.lib(boot_logger.o)
    0x08012eca   0x00000028   Code   RO          510    i.boot_log_stop_timer_optional_data  boot_logger.lib(boot_logger.o)
    0x08012ef2   0x00000002   PAD
    0x08012ef4   0x0000001c   Code   RO         1031    i.boot_log_uart_put_string  boot_logger.lib(boot_logger_uart.o)
    0x08012f10   0x00000088   Code   RO          261    i.boot_mmu_copy_page_table  boot_mmu.lib(boot_page_table.o)
    0x08012f98   0x0000006c   Code   RO          262    i.boot_mmu_page_table_map_mem_block_list  boot_mmu.lib(boot_page_table.o)
    0x08013004   0x00000048   Code   RO          263    i.boot_mmu_page_table_map_single_mem_block  boot_mmu.lib(boot_page_table.o)
    0x0801304c   0x00000004   Code   RO          316    i.boot_nested_exception_c_handler  boot_error_dload.lib(boot_error_handler.o)
    0x08013050   0x00000034   Code   RO          292    i.boot_pbl_get_flash_type  boot_target_hw.lib(boot_pbl_v1.o)
    0x08013084   0x00000018   Code   RO          294    i.boot_pbl_interface_init  boot_target_hw.lib(boot_pbl_v1.o)
    0x0801309c   0x0000001c   Code   RO          295    i.boot_pbl_is_auth_enabled  boot_target_hw.lib(boot_pbl_v1.o)
    0x080130b8   0x0000005c   Code   RO          296    i.boot_pbl_log_milestones  boot_target_hw.lib(boot_pbl_v1.o)
    0x08013114   0x00000006   Code   RO          556    i.boot_pm_dev_get_power_on_reason  boot_extern_driver_interface.lib(boot_extern_pmic_interface.o)
    0x0801311a   0x00000004   Code   RO          557    i.boot_pm_device_init  boot_extern_driver_interface.lib(boot_extern_pmic_interface.o)
    0x0801311e   0x00000004   Code   RO          558    i.boot_pm_driver_init  boot_extern_driver_interface.lib(boot_extern_pmic_interface.o)
    0x08013122   0x00000004   Code   RO          560    i.boot_pm_init_smem  boot_extern_driver_interface.lib(boot_extern_pmic_interface.o)
    0x08013126   0x00000004   Code   RO          561    i.boot_pm_oem_init  boot_extern_driver_interface.lib(boot_extern_pmic_interface.o)
    0x0801312a   0x00000004   Code   RO          562    i.boot_pm_pon_ps_hold_cfg  boot_extern_driver_interface.lib(boot_extern_pmic_interface.o)
    0x0801312e   0x00000006   Code   RO          563    i.boot_pm_pon_warm_reset_status  boot_extern_driver_interface.lib(boot_extern_pmic_interface.o)
    0x08013134   0x00000006   Code   RO          564    i.boot_pm_pon_warm_reset_status_clear  boot_extern_driver_interface.lib(boot_extern_pmic_interface.o)
    0x0801313a   0x00000002   PAD
    0x0801313c   0x00000094   Code   RO          833    i.boot_populate_ram_partition_table  boot_mem_manage.lib(boot_ram_partition.o)
    0x080131d0   0x00000004   Code   RO          590    i.boot_pre_ddr_clock_init  boot_extern_driver_interface.lib(boot_extern_clk_interface.o)
    0x080131d4   0x00000004   Code   RO          591    i.boot_pre_i2c_clock_init  boot_extern_driver_interface.lib(boot_extern_clk_interface.o)
    0x080131d8   0x00000028   Code   RO          317    i.boot_prefetch_abort_c_handler  boot_error_dload.lib(boot_error_handler.o)
    0x08013200   0x00000004   Code   RO          612    i.boot_qhsusb_al_bulk_init  boot_extern_driver_interface.lib(boot_extern_hsusb_interface.o)
    0x08013204   0x00000014   Code   RO          686    i.boot_qsee_cond_zero_peripheral_memory  boot_extern_driver_interface.lib(boot_extern_seccfg_interface.o)
    0x08013218   0x00000004   Code   RO          687    i.boot_qsee_is_memory_dump_allowed  boot_extern_driver_interface.lib(boot_extern_seccfg_interface.o)
    0x0801321c   0x00000004   Code   RO          688    i.boot_qsee_is_retail_unlocked  boot_extern_driver_interface.lib(boot_extern_seccfg_interface.o)
    0x08013220   0x00000004   Code   RO          689    i.boot_qsee_zero_peripheral_memory  boot_extern_driver_interface.lib(boot_extern_seccfg_interface.o)
    0x08013224   0x00000020   Code   RO          813    i.boot_ram_init     boot_mem_manage.lib(boot_ram_init.o)
    0x08013244   0x00000008   Ven    RO          318    i.boot_reserved_c_handler  boot_error_dload.lib(boot_error_handler.o)
    0x0801324c   0x00000030   Code   RO          318    i.boot_reserved_c_handler  boot_error_dload.lib(boot_error_handler.o)
    0x0801327c   0x00000084   Code   RO          860    i.boot_rollback_calculate_fuse_version  boot_security.lib(boot_rollback_version.o)
    0x08013300   0x00000038   Code   RO          861    i.boot_rollback_get_fuse_version  boot_security.lib(boot_rollback_version.o)
    0x08013338   0x00000040   Code   RO          862    i.boot_rollback_get_set_by_img_type  boot_security.lib(boot_rollback_version.o)
    0x08013378   0x00000048   Code   RO          863    i.boot_rollback_init_img_set_table  boot_security.lib(boot_rollback_version.o)
    0x080133c0   0x00000016   Code   RO          864    i.boot_rollback_is_feature_enabled_on_set  boot_security.lib(boot_rollback_version.o)
    0x080133d6   0x00000002   PAD
    0x080133d8   0x00000034   Code   RO          866    i.boot_rollback_update_img_version  boot_security.lib(boot_rollback_version.o)
    0x0801340c   0x00000024   Code   RO          392    i.boot_sahara_elf_segment_is_loadable  boot_error_dload.lib(boot_sahara.o)
    0x08013430   0x00000060   Code   RO          393    i.boot_sahara_elf_verify_start_addr  boot_error_dload.lib(boot_sahara.o)
    0x08013490   0x00000028   Code   RO          394    i.boot_sahara_entry  boot_error_dload.lib(boot_sahara.o)
    0x080134b8   0x0000002c   Code   RO          395    i.boot_sahara_exit  boot_error_dload.lib(boot_sahara.o)
    0x080134e4   0x0000001e   Code   RO          396    i.boot_sahara_get_adjusted_size  boot_error_dload.lib(boot_sahara.o)
    0x08013502   0x00000004   Code   RO          397    i.boot_sahara_get_elf_eident_class  boot_error_dload.lib(boot_sahara.o)
    0x08013506   0x00000002   PAD
    0x08013508   0x0000000c   Code   RO          398    i.boot_sahara_get_elf_entry_address  boot_error_dload.lib(boot_sahara.o)
    0x08013514   0x00000060   Code   RO          399    i.boot_sahara_handle_cmd_exec_data  boot_error_dload.lib(boot_sahara.o)
    0x08013574   0x00000060   Code   RO          400    i.boot_sahara_handle_cmd_exec_resp  boot_error_dload.lib(boot_sahara.o)
    0x080135d4   0x00000068   Code   RO          401    i.boot_sahara_handle_done_resp  boot_error_dload.lib(boot_sahara.o)
    0x0801363c   0x00000070   Code   RO          402    i.boot_sahara_handle_end_image_tx  boot_error_dload.lib(boot_sahara.o)
    0x080136ac   0x0000008c   Code   RO          403    i.boot_sahara_handle_hello  boot_error_dload.lib(boot_sahara.o)
    0x08013738   0x000000d0   Code   RO          404    i.boot_sahara_handle_hello_resp  boot_error_dload.lib(boot_sahara.o)
    0x08013808   0x00000070   Code   RO          405    i.boot_sahara_handle_memory_64bits_read  boot_error_dload.lib(boot_sahara.o)
    0x08013878   0x0000006c   Code   RO          406    i.boot_sahara_handle_memory_debug  boot_error_dload.lib(boot_sahara.o)
    0x080138e4   0x000000d0   Code   RO          407    i.boot_sahara_handle_memory_read  boot_error_dload.lib(boot_sahara.o)
    0x080139b4   0x00000050   Code   RO          408    i.boot_sahara_handle_read_data  boot_error_dload.lib(boot_sahara.o)
    0x08013a04   0x000000cc   Code   RO          409    i.boot_sahara_handle_rx  boot_error_dload.lib(boot_sahara.o)
    0x08013ad0   0x00000038   Code   RO          410    i.boot_sahara_handle_tx  boot_error_dload.lib(boot_sahara.o)
    0x08013b08   0x00000188   Code   RO          411    i.boot_sahara_init  boot_error_dload.lib(boot_sahara.o)
    0x08013c90   0x00000052   Code   RO          412    i.boot_sahara_is_valid_elf_header  boot_error_dload.lib(boot_sahara.o)
    0x08013ce2   0x00000002   PAD
    0x08013ce4   0x0000003c   Code   RO          413    i.boot_sahara_log_packet_buffer  boot_error_dload.lib(boot_sahara.o)
    0x08013d20   0x0000003c   Code   RO          414    i.boot_sahara_log_raw_data  boot_error_dload.lib(boot_sahara.o)
    0x08013d5c   0x00000014   Code   RO          415    i.boot_sahara_populate_elf_meta_info  boot_error_dload.lib(boot_sahara.o)
    0x08013d70   0x00000180   Code   RO          416    i.boot_sahara_process_packets  boot_error_dload.lib(boot_sahara.o)
    0x08013ef0   0x00000100   Code   RO          417    i.boot_sahara_receive_data  boot_error_dload.lib(boot_sahara.o)
    0x08013ff0   0x00000044   Code   RO          418    i.boot_sahara_receive_image  boot_error_dload.lib(boot_sahara.o)
    0x08014034   0x000000f4   Code   RO          419    i.boot_sahara_receive_image_binary  boot_error_dload.lib(boot_sahara.o)
    0x08014128   0x000003ac   Code   RO          420    i.boot_sahara_receive_image_elf  boot_error_dload.lib(boot_sahara.o)
    0x080144d4   0x00000014   Code   RO          422    i.boot_sahara_reset  boot_error_dload.lib(boot_sahara.o)
    0x080144e8   0x00000020   Code   RO          423    i.boot_sahara_rx_cb  boot_error_dload.lib(boot_sahara.o)
    0x08014508   0x0000000c   Code   RO          424    i.boot_sahara_set_is_ssa_enabled  boot_error_dload.lib(boot_sahara.o)
    0x08014514   0x00000070   Code   RO          425    i.boot_sahara_skip_data_in_optmize_load  boot_error_dload.lib(boot_sahara.o)
    0x08014584   0x00000034   Code   RO          426    i.boot_sahara_ssa_update_rmb_length  boot_error_dload.lib(boot_sahara.o)
    0x080145b8   0x00000020   Code   RO          427    i.boot_sahara_tx_cb  boot_error_dload.lib(boot_sahara.o)
    0x080145d8   0x00000080   Code   RO          428    i.boot_sahara_verify_elf_hdr  boot_error_dload.lib(boot_sahara.o)
    0x08014658   0x00000002   Code   RO          777    i.boot_save_reset_register_log  boot_image_loading.lib(boot_mc.o)
    0x0801465a   0x0000002a   Code   RO          241    i.boot_sbl_qsee_interface_get_eident  boot_util.lib(boot_sbl_qsee_interface.o)
    0x08014684   0x0000002a   Code   RO          242    i.boot_sbl_qsee_interface_get_entry_point  boot_util.lib(boot_sbl_qsee_interface.o)
    0x080146ae   0x0000002a   Code   RO          243    i.boot_sbl_qsee_interface_get_secboot_info  boot_util.lib(boot_sbl_qsee_interface.o)
    0x080146d8   0x00000024   Code   RO          845    i.boot_secboot_ftbl_init  boot_security.lib(boot_authenticator.o)
    0x080146fc   0x00000004   Code   RO         1080    i.boot_secboot_get_ftbl  boot_extern_driver_interface.lib(boot_extern_secboot_interface.o)
    0x08014700   0x00000004   Code   RO         1081    i.boot_secboot_hw_get_ftbl  boot_extern_driver_interface.lib(boot_extern_secboot_interface.o)
    0x08014704   0x00000064   Code   RO          879    i.boot_secure_watchdog_init  boot_secure_watchdog.lib(boot_secure_watchdog.o)
    0x08014768   0x000000b0   Code   RO         1195    i.boot_seg_verification  boot_image_loading.lib(boot_elf_loader.o)
    0x08014818   0x00000050   Code   RO          821    i.boot_set_ddr_info  boot_mem_manage.lib(boot_ddr_info.o)
    0x08014868   0x00000028   Code   RO          482    i.boot_set_hash_algo  boot_error_dload.lib(boot_hash.o)
    0x08014890   0x0000000c   Code   RO          471    i.boot_set_hash_table_auth_result  boot_error_dload.lib(boot_hash_buffer.o)
    0x0801489c   0x00000168   Code   RO          823    i.boot_share_extended_ddr_info  boot_mem_manage.lib(boot_ddr_info.o)
    0x08014a04   0x00000002   Code   RO          728    i.boot_share_flash_data  boot_flash_common.lib(boot_flash.o)
    0x08014a06   0x00000002   PAD
    0x08014a08   0x0000002c   Code   RO          815    i.boot_shared_imem_init  boot_mem_manage.lib(boot_ram_init.o)
    0x08014a34   0x00000004   Code   RO         1057    i.boot_smem_alloc   boot_extern_driver_interface.lib(boot_extern_smem_interface.o)
    0x08014a38   0x00000004   Code   RO         1058    i.boot_smem_boot_debug_init  boot_extern_driver_interface.lib(boot_extern_smem_interface.o)
    0x08014a3c   0x00000004   Code   RO         1059    i.boot_smem_boot_init  boot_extern_driver_interface.lib(boot_extern_smem_interface.o)
    0x08014a40   0x00000004   Code   RO          806    i.boot_smem_debug_init  boot_mem_manage.lib(boot_smem.o)
    0x08014a44   0x0000004c   Code   RO          807    i.boot_smem_init    boot_mem_manage.lib(boot_smem.o)
    0x08014a90   0x0000002c   Code   RO          808    i.boot_smem_store_pon_status  boot_mem_manage.lib(boot_smem.o)
    0x08014abc   0x00000016   Code   RO         1020    i.boot_start_timer  boot_logger.lib(boot_logger_timer.o)
    0x08014ad2   0x00000002   PAD
    0x08014ad4   0x00000010   Code   RO          247    i.boot_statistics_flash_read_start  boot_util.lib(boot_statistics.o)
    0x08014ae4   0x00000034   Code   RO          248    i.boot_statistics_flash_read_stop  boot_util.lib(boot_statistics.o)
    0x08014b18   0x0000000c   Code   RO          249    i.boot_statistics_get_flash_byte_counter  boot_util.lib(boot_statistics.o)
    0x08014b24   0x00000010   Code   RO          250    i.boot_statistics_get_time_count  boot_util.lib(boot_statistics.o)
    0x08014b34   0x00000088   Code   RO          251    i.boot_statistics_log_flash  boot_util.lib(boot_statistics.o)
    0x08014bbc   0x0000000c   Code   RO          252    i.boot_statistics_reset_flash_byte_counter  boot_util.lib(boot_statistics.o)
    0x08014bc8   0x00000044   Code   RO         1021    i.boot_stop_timer   boot_logger.lib(boot_logger_timer.o)
    0x08014c0c   0x000000d4   Code   RO          846    i.boot_store_tpm_hash_block  boot_security.lib(boot_authenticator.o)
    0x08014ce0   0x00000010   Code   RO          230    i.boot_strlen       boot_util.lib(boot_util.o)
    0x08014cf0   0x00000008   Ven    RO          319    i.boot_swi_c_handler  boot_error_dload.lib(boot_error_handler.o)
    0x08014cf8   0x00000030   Code   RO          319    i.boot_swi_c_handler  boot_error_dload.lib(boot_error_handler.o)
    0x08014d28   0x00000004   Code   RO         1849    i.boot_uart_deinit  boot_extern_driver_interface.lib(boot_uart.o)
    0x08014d2c   0x00000004   Code   RO         1850    i.boot_uart_init    boot_extern_driver_interface.lib(boot_uart.o)
    0x08014d30   0x00000004   Code   RO         1852    i.boot_uart_tx      boot_extern_driver_interface.lib(boot_uart.o)
    0x08014d34   0x00000030   Code   RO          320    i.boot_undefined_instruction_c_handler  boot_error_dload.lib(boot_error_handler.o)
    0x08014d64   0x00000084   Code   RO          847    i.boot_update_auth_image_info  boot_security.lib(boot_authenticator.o)
    0x08014de8   0x00000200   Code   RO         1226    i.boot_update_config_data_table  boot_cdt.lib(boot_config_eeprom.o)
    0x08014fe8   0x00000004   Code   RO          613    i.boot_usb_al_bulk_get_max_packet_size  boot_extern_driver_interface.lib(boot_extern_hsusb_interface.o)
    0x08014fec   0x00000004   Code   RO          614    i.boot_usb_al_bulk_get_max_raw_data_size  boot_extern_driver_interface.lib(boot_extern_hsusb_interface.o)
    0x08014ff0   0x00000004   Code   RO          615    i.boot_usb_al_bulk_poll  boot_extern_driver_interface.lib(boot_extern_hsusb_interface.o)
    0x08014ff4   0x00000004   Code   RO          616    i.boot_usb_al_bulk_receive  boot_extern_driver_interface.lib(boot_extern_hsusb_interface.o)
    0x08014ff8   0x00000004   Code   RO          617    i.boot_usb_al_bulk_shutdown  boot_extern_driver_interface.lib(boot_extern_hsusb_interface.o)
    0x08014ffc   0x00000004   Code   RO          618    i.boot_usb_al_bulk_transmit  boot_extern_driver_interface.lib(boot_extern_hsusb_interface.o)
    0x08015000   0x00000004   Code   RO          619    i.boot_usb_al_check_for_pbl_dload  boot_extern_driver_interface.lib(boot_extern_hsusb_interface.o)
    0x08015004   0x0000001e   Code   RO          231    i.booting_from_storage_media  boot_util.lib(boot_util.o)
    0x08015022   0x00000002   PAD
    0x08015024   0x0000003c   Code   RO         1241    i.bric_lock         icb.lib(icbcfg.o)
    0x08015060   0x00000030   Code   RO         1538    i.busywait          busywait_lib.lib(busywait_hw_qtimer.o)
    0x08015090   0x0000008c   Code   RO         1539    i.busywait_init     busywait_lib.lib(busywait_hw_qtimer.o)
    0x0801511c   0x00000020   Code   RO         2404    i.check_fec_error   secboot_auth.lib(secboot_hw.o)
    0x0801513c   0x0000000a   Code   RO         4263    i.chg_notify_cb     qhsusb_bulk_chg.lib(qhsusb_fd_chg.o)
    0x08015146   0x00000002   PAD
    0x08015148   0x00000064   Code   RO         1957    i.clearSpmiMemory   Spmi.lib(SpmiMaster.o)
    0x080151ac   0x0000005c   Code   RO         2954    i.clock_enable      UART.lib(Uart.o)
    0x08015208   0x00000026   Code   RO         3875    i.compare           secmath.lib(secmath_montmul_utils.o)
    0x0801522e   0x00000230   Code   RO         1243    i.compress_regions  icb.lib(icbcfg.o)
    0x0801545e   0x00000002   PAD
    0x08015460   0x0000028c   Code   RO         1288    i.configChannels    Spmi.lib(SpmiCfg.o)
    0x080156ec   0x000000a2   Code   RO         1245    i.convert_ddr_regions  icb.lib(icbcfg.o)
    0x0801578e   0x00000012   Code   RO         1246    i.count_leading_zeroes  icb.lib(icbcfg.o)
    0x080157a0   0x00000060   Code   RO         1247    i.count_set_bits    icb.lib(icbcfg.o)
    0x08015800   0x00000020   Code   RO         1248    i.count_trailing_zeroes  icb.lib(icbcfg.o)
    0x08015820   0x00000074   Code   RO         3909    i.crc_32_calc       utils_tools.lib(crc.o)
    0x08015894   0x00000010   Code   RO         2665    i.dcd_callback_disconnect  qhsusb_bulk_chg.lib(qhsusb_dcd_ch9.o)
    0x080158a4   0x00000030   Code   RO         2666    i.dcd_callback_reset  qhsusb_bulk_chg.lib(qhsusb_dcd_ch9.o)
    0x080158d4   0x00000080   Code   RO         2667    i.dcd_callback_setup  qhsusb_bulk_chg.lib(qhsusb_dcd_ch9.o)
    0x08015954   0x0000000a   Code   RO         2668    i.dcd_control_reply  qhsusb_bulk_chg.lib(qhsusb_dcd_ch9.o)
    0x0801595e   0x0000000a   Code   RO         2669    i.dcd_notify        qhsusb_bulk_chg.lib(qhsusb_dcd_ch9.o)
    0x08015968   0x00000052   Code   RO         2670    i.dcd_set_interface  qhsusb_bulk_chg.lib(qhsusb_dcd_ch9.o)
    0x080159ba   0x00000008   Code   RO         2671    i.dcd_set_max_current  qhsusb_bulk_chg.lib(qhsusb_dcd_ch9.o)
    0x080159c2   0x00000002   PAD
    0x080159c4   0x00000024   Code   RO         2785    i.dci_clk_regime_msm_reset_assert  qhsusb_bulk_chg.lib(qhsusb_dci_8909.o)
    0x080159e8   0x00000024   Code   RO         2786    i.dci_clk_regime_msm_reset_deassert  qhsusb_bulk_chg.lib(qhsusb_dci_8909.o)
    0x08015a0c   0x00000004   Code   RO         2787    i.dci_dcache_flush  qhsusb_bulk_chg.lib(qhsusb_dci_8909.o)
    0x08015a10   0x00000004   Code   RO         2788    i.dci_dcache_inval  qhsusb_bulk_chg.lib(qhsusb_dci_8909.o)
    0x08015a14   0x0000021c   Code   RO         2789    i.dci_detect_charger_type  qhsusb_bulk_chg.lib(qhsusb_dci_8909.o)
    0x08015c30   0x00000030   Code   RO         2790    i.dci_disable_primary_charger_detection  qhsusb_bulk_chg.lib(qhsusb_dci_8909.o)
    0x08015c60   0x00000028   Code   RO         2791    i.dci_enable_external_vbus_config  qhsusb_bulk_chg.lib(qhsusb_dci_8909.o)
    0x08015c88   0x00000030   Code   RO         2792    i.dci_enable_primary_charger_detection  qhsusb_bulk_chg.lib(qhsusb_dci_8909.o)
    0x08015cb8   0x0000001c   Code   RO         2709    i.dci_handle_port_status_changed  qhsusb_bulk_chg.lib(qhsusb_dci.o)
    0x08015cd4   0x00000088   Code   RO         2710    i.dci_handle_reset_during_transfer  qhsusb_bulk_chg.lib(qhsusb_dci.o)
    0x08015d5c   0x0000007c   Code   RO         2711    i.dci_handle_setup  qhsusb_bulk_chg.lib(qhsusb_dci.o)
    0x08015dd8   0x000000e0   Code   RO         2712    i.dci_handle_transfer_complete  qhsusb_bulk_chg.lib(qhsusb_dci.o)
    0x08015eb8   0x00000088   Code   RO         2713    i.dci_init_dqh_list  qhsusb_bulk_chg.lib(qhsusb_dci.o)
    0x08015f40   0x0000001c   Code   RO         2794    i.dci_init_phy      qhsusb_bulk_chg.lib(qhsusb_dci_8909.o)
    0x08015f5c   0x00000004   Code   RO         2795    i.dci_is_streaming_mode_disable_required  qhsusb_bulk_chg.lib(qhsusb_dci_8909.o)
    0x08015f60   0x0000000e   Code   RO         2796    i.dci_read_chgdet_output  qhsusb_bulk_chg.lib(qhsusb_dci_8909.o)
    0x08015f6e   0x00000024   Code   RO         2797    i.dci_reset_alternate_interrupt_block  qhsusb_bulk_chg.lib(qhsusb_dci_8909.o)
    0x08015f92   0x00000024   Code   RO         2798    i.dci_reset_charger_detection_block  qhsusb_bulk_chg.lib(qhsusb_dci_8909.o)
    0x08015fb6   0x00000002   PAD
    0x08015fb8   0x0000000c   Code   RO         2714    i.dci_set_bulk_progress  qhsusb_bulk_chg.lib(qhsusb_dci.o)
    0x08015fc4   0x0000003a   Code   RO         2799    i.dci_set_phy_mode  qhsusb_bulk_chg.lib(qhsusb_dci_8909.o)
    0x08015ffe   0x00000002   PAD
    0x08016000   0x00000084   Code   RO         2715    i.dci_skip_enumeration  qhsusb_bulk_chg.lib(qhsusb_dci.o)
    0x08016084   0x000001a0   Code   RO          985    i.ddr_test          DDR_TEST.lib(ddr_test.o)
    0x08016224   0x000000e0   Code   RO          986    i.ddr_test_addr_lines  DDR_TEST.lib(ddr_test.o)
    0x08016304   0x0000004c   Code   RO          987    i.ddr_test_all      DDR_TEST.lib(ddr_test.o)
    0x08016350   0x0000009c   Code   RO          988    i.ddr_test_data_lines  DDR_TEST.lib(ddr_test.o)
    0x080163ec   0x00000134   Code   RO          989    i.ddr_test_deep_power_down  DDR_TEST.lib(ddr_test.o)
    0x08016520   0x00000002   Code   RO          990    i.ddr_test_exit     DDR_TEST.lib(ddr_test.o)
    0x08016522   0x00000002   PAD
    0x08016524   0x000000e4   Code   RO          991    i.ddr_test_own_addr  DDR_TEST.lib(ddr_test.o)
    0x08016608   0x00000198   Code   RO          992    i.ddr_test_self_refresh  DDR_TEST.lib(ddr_test.o)
    0x080167a0   0x00000150   Code   RO          993    i.ddr_test_walking_ones  DDR_TEST.lib(ddr_test.o)
    0x080168f0   0x0000010c   Code   RO         1320    i.debugExecute      Spmi.lib(SpmiBus.o)
    0x080169fc   0x000000d8   Code   RO         1321    i.debugTransEnd     Spmi.lib(SpmiBus.o)
    0x08016ad4   0x00000080   Code   RO         1322    i.debugTransStart   Spmi.lib(SpmiBus.o)
    0x08016b54   0x0000000a   Code   RO         4458    i.delay1ms          extdrv_i2c_v2.lib(flash_extdrv_i2c_v2.o)
    0x08016b5e   0x00000002   Code   RO          744    i.dev_nand_close_file_by_by_handle  boot_nand.lib(boot_flash_dev_nand.o)
    0x08016b60   0x00000002   Code   RO          745    i.dev_nand_close_file_by_image_type  boot_nand.lib(boot_flash_dev_nand.o)
    0x08016b62   0x00000002   PAD
    0x08016b64   0x0000004c   Code   RO          746    i.dev_nand_close_image  boot_nand.lib(boot_flash_dev_nand.o)
    0x08016bb0   0x0000003c   Code   RO          747    i.dev_nand_configure_target_image  boot_nand.lib(boot_flash_dev_nand.o)
    0x08016bec   0x0000000c   Code   RO          748    i.dev_nand_get_nand_if  boot_nand.lib(boot_flash_dev_nand.o)
    0x08016bf8   0x00000004   Code   RO          749    i.dev_nand_load_mibib_header  boot_nand.lib(boot_flash_dev_nand.o)
    0x08016bfc   0x00000004   Code   RO          750    i.dev_nand_load_mibib_header_with_cookie  boot_nand.lib(boot_flash_dev_nand.o)
    0x08016c00   0x0000005c   Code   RO          751    i.dev_nand_open_image  boot_nand.lib(boot_flash_dev_nand.o)
    0x08016c5c   0x0000006c   Code   RO          752    i.dev_nand_open_partition  boot_nand.lib(boot_flash_dev_nand.o)
    0x08016cc8   0x00000118   Code   RO         3895    i.div32             secmath.lib(secmath_barrett_reduce.o)
    0x08016de0   0x00000078   Code   RO          352    i.dload_debug_add_region  boot_error_dload.lib(boot_dload_debug.o)
    0x08016e58   0x00000030   Code   RO          353    i.dload_debug_add_restricted_region  boot_error_dload.lib(boot_dload_debug.o)
    0x08016e88   0x00000154   Code   RO          356    i.dload_mem_debug_init  boot_error_dload.lib(boot_dload_debug.o)
    0x08016fdc   0x00000010   Code   RO          357    i.dload_mem_debug_is_device_retail_unlocked  boot_error_dload.lib(boot_dload_debug.o)
    0x08016fec   0x00000068   Code   RO          359    i.dload_mem_debug_is_restricted_addr  boot_error_dload.lib(boot_dload_debug.o)
    0x08017054   0x0000005c   Code   RO          360    i.dload_mem_debug_len  boot_error_dload.lib(boot_dload_debug.o)
    0x080170b0   0x0000000c   Code   RO          361    i.dload_mem_debug_len_init  boot_error_dload.lib(boot_dload_debug.o)
    0x080170bc   0x0000005c   Code   RO          366    i.dload_mem_debug_supported  boot_error_dload.lib(boot_dload_debug.o)
    0x08017118   0x00000008   Code   RO          367    i.dload_mem_debug_table_addr  boot_error_dload.lib(boot_dload_debug.o)
    0x08017120   0x000001bc   Code   RO          215    i.dload_mem_debug_target_init  boot_dload_debug_target.o
    0x080172dc   0x00000070   Code   RO          368    i.dload_mem_debug_verify_addr  boot_error_dload.lib(boot_dload_debug.o)
    0x0801734c   0x00000004   Code   RO          369    i.dload_mem_debug_zero_peripheral_memory  boot_error_dload.lib(boot_dload_debug.o)
    0x08017350   0x0000005e   Code   RO         3877    i.find_bn_MSB1      secmath.lib(secmath_montmul_utils.o)
    0x080173ae   0x00000002   PAD
    0x080173b0   0x00000044   Code   RO         1086    i.flash_allocate_device_structure  boot_nand.lib(boot_flash_dev_dal.o)
    0x080173f4   0x00000050   Code   RO         4856    i.flash_bam_deinit  flash_bam.lib(flash_bam_wrapper.o)
    0x08017444   0x0000006e   Code   RO         4828    i.flash_bam_exec_op  HALflash_qpic_bam_reduced.lib(flash_hal_nandc_predef_bam_exec.o)
    0x080174b2   0x00000002   PAD
    0x080174b4   0x0000012c   Code   RO         4857    i.flash_bam_init    flash_bam.lib(flash_bam_wrapper.o)
    0x080175e0   0x0000001e   Code   RO         4858    i.flash_bam_pipe_deinit  flash_bam.lib(flash_bam_wrapper.o)
    0x080175fe   0x00000002   PAD
    0x08017600   0x00000034   Code   RO         4859    i.flash_bam_pipe_init  flash_bam.lib(flash_bam_wrapper.o)
    0x08017634   0x00000094   Code   RO         4860    i.flash_bam_poll_pipe  flash_bam.lib(flash_bam_wrapper.o)
    0x080176c8   0x00000036   Code   RO         4861    i.flash_bam_queue_desc  flash_bam.lib(flash_bam_wrapper.o)
    0x080176fe   0x00000002   PAD
    0x08017700   0x0000005c   Code   RO         4862    i.flash_bam_transfer  flash_bam.lib(flash_bam_wrapper.o)
    0x0801775c   0x0000003c   Code   RO         4863    i.flash_bam_wait_for_xfer_completion  flash_bam.lib(flash_bam_wrapper.o)
    0x08017798   0x00000054   Code   RO         2428    i.flash_boot_ops_get_parti_tbl  DALflash_nand_dma_reduced.lib(flash_boot_ops_setup.o)
    0x080177ec   0x00000004   Code   RO         3981    i.flash_busy_wait   DALflash.lib(flash_dal_util.o)
    0x080177f0   0x0000001a   Code   RO         1087    i.flash_close       boot_nand.lib(boot_flash_dev_dal.o)
    0x0801780a   0x00000002   PAD
    0x0801780c   0x00000020   Code   RO         4041    i.flash_copy_dma_buffers  DALflash_nand_dma_reduced.lib(flash_nand_entry.o)
    0x0801782c   0x00000020   Code   RO         4386    i.flash_dal_device_deinit  DALflash.lib(flash_dal.o)
    0x0801784c   0x00000068   Code   RO         4387    i.flash_dal_device_init  DALflash.lib(flash_dal.o)
    0x080178b4   0x00000004   Code   RO         4388    i.flash_dal_driver_deinit  DALflash.lib(flash_dal.o)
    0x080178b8   0x00000004   Code   RO         4389    i.flash_dal_driver_init  DALflash.lib(flash_dal.o)
    0x080178bc   0x0000000a   Code   RO         3982    i.flash_dcache_clean  DALflash.lib(flash_dal_util.o)
    0x080178c6   0x0000000a   Code   RO         3983    i.flash_dcache_inval  DALflash.lib(flash_dal_util.o)
    0x080178d0   0x00000006   Code   RO         3918    i.flash_fwk_addref  DALflash.lib(flash_dal_fwk.o)
    0x080178d6   0x00000002   PAD
    0x080178d8   0x0000007c   Code   RO         3919    i.flash_fwk_attach  DALflash.lib(flash_dal_fwk.o)
    0x08017954   0x0000001a   Code   RO         3920    i.flash_fwk_begin_erase_block  DALflash.lib(flash_dal_fwk.o)
    0x0801796e   0x0000001a   Code   RO         3921    i.flash_fwk_block_get_state  DALflash.lib(flash_dal_fwk.o)
    0x08017988   0x0000001a   Code   RO         3922    i.flash_fwk_block_set_state  DALflash.lib(flash_dal_fwk.o)
    0x080179a2   0x0000001a   Code   RO         3923    i.flash_fwk_close   DALflash.lib(flash_dal_fwk.o)
    0x080179bc   0x0000001a   Code   RO         3924    i.flash_fwk_copy_pages  DALflash.lib(flash_dal_fwk.o)
    0x080179d6   0x00000006   Code   RO         3925    i.flash_fwk_deinit  DALflash.lib(flash_dal_fwk.o)
    0x080179dc   0x00000044   Code   RO         3926    i.flash_fwk_detach  DALflash.lib(flash_dal_fwk.o)
    0x08017a20   0x0000001a   Code   RO         3927    i.flash_fwk_erase_blocks  DALflash.lib(flash_dal_fwk.o)
    0x08017a3a   0x0000001a   Code   RO         3928    i.flash_fwk_erase_blocks_by_size  DALflash.lib(flash_dal_fwk.o)
    0x08017a54   0x0000001a   Code   RO         3929    i.flash_fwk_erase_resume  DALflash.lib(flash_dal_fwk.o)
    0x08017a6e   0x0000001a   Code   RO         3930    i.flash_fwk_erase_suspend  DALflash.lib(flash_dal_fwk.o)
    0x08017a88   0x0000000a   Code   RO         3931    i.flash_fwk_get_daldevice_info  DALflash.lib(flash_dal_fwk.o)
    0x08017a92   0x0000001a   Code   RO         3932    i.flash_fwk_get_info  DALflash.lib(flash_dal_fwk.o)
    0x08017aac   0x0000001a   Code   RO         3933    i.flash_fwk_get_status  DALflash.lib(flash_dal_fwk.o)
    0x08017ac6   0x0000001a   Code   RO         3934    i.flash_fwk_get_uuid  DALflash.lib(flash_dal_fwk.o)
    0x08017ae0   0x0000001a   Code   RO         3935    i.flash_fwk_handle_power_event  DALflash.lib(flash_dal_fwk.o)
    0x08017afa   0x00000006   Code   RO         3936    i.flash_fwk_handle_sys_request  DALflash.lib(flash_dal_fwk.o)
    0x08017b00   0x0000001a   Code   RO         3937    i.flash_fwk_init    DALflash.lib(flash_dal_fwk.o)
    0x08017b1a   0x00000004   Code   RO         3938    i.flash_fwk_open    DALflash.lib(flash_dal_fwk.o)
    0x08017b1e   0x0000001a   Code   RO         3939    i.flash_fwk_open_partition  DALflash.lib(flash_dal_fwk.o)
    0x08017b38   0x0000001a   Code   RO         3940    i.flash_fwk_read_pages  DALflash.lib(flash_dal_fwk.o)
    0x08017b52   0x0000001a   Code   RO         3941    i.flash_fwk_read_pointer  DALflash.lib(flash_dal_fwk.o)
    0x08017b6c   0x0000001a   Code   RO         3942    i.flash_fwk_set_power_mode  DALflash.lib(flash_dal_fwk.o)
    0x08017b86   0x00000006   Code   RO         3943    i.flash_fwk_write_2x_pages  DALflash.lib(flash_dal_fwk.o)
    0x08017b8c   0x0000001a   Code   RO         3944    i.flash_fwk_write_pages  DALflash.lib(flash_dal_fwk.o)
    0x08017ba6   0x0000001a   Code   RO         3945    i.flash_fwk_write_partial_page  DALflash.lib(flash_dal_fwk.o)
    0x08017bc0   0x00000030   Code   RO         4042    i.flash_get_dma_buffers  DALflash_nand_dma_reduced.lib(flash_nand_entry.o)
    0x08017bf0   0x00000068   Code   RO         3976    i.flash_get_property  DALflash.lib(flash_properties.o)
    0x08017c58   0x00000010   Code   RO         4497    i.flash_hal_cache_clean  HALflash.lib(flash_hal_properties.o)
    0x08017c68   0x00000010   Code   RO         4498    i.flash_hal_cache_inval  HALflash.lib(flash_hal_properties.o)
    0x08017c78   0x00000020   Code   RO         4097    i.flash_hal_dev_deinit  HALflash_qpic_bam_reduced.lib(flash_hal_main.o)
    0x08017c98   0x00000014   Code   RO         4098    i.flash_hal_dev_init  HALflash_qpic_bam_reduced.lib(flash_hal_main.o)
    0x08017cac   0x0000001c   Code   RO         4103    i.flash_hal_get_page_layout  HALflash_qpic_bam_reduced.lib(flash_hal_main.o)
    0x08017cc8   0x0000001c   Code   RO         4104    i.flash_hal_get_predef_mem_usage  HALflash_qpic_bam_reduced.lib(flash_hal_main.o)
    0x08017ce4   0x0000000c   Code   RO         4499    i.flash_hal_handle_opti_memcpy  HALflash.lib(flash_hal_properties.o)
    0x08017cf0   0x00000044   Code   RO         4500    i.flash_hal_handle_unc_memcpy  HALflash.lib(flash_hal_properties.o)
    0x08017d34   0x00000014   Code   RO         4501    i.flash_hal_handle_unc_memset  HALflash.lib(flash_hal_properties.o)
    0x08017d48   0x0000001c   Code   RO         4107    i.flash_hal_predef_init  HALflash_qpic_bam_reduced.lib(flash_hal_main.o)
    0x08017d64   0x00000028   Code   RO         4108    i.flash_hal_read_bb_marker  HALflash_qpic_bam_reduced.lib(flash_hal_main.o)
    0x08017d8c   0x00000028   Code   RO         4109    i.flash_hal_read_id  HALflash_qpic_bam_reduced.lib(flash_hal_main.o)
    0x08017db4   0x00000028   Code   RO         4110    i.flash_hal_read_onfi_id  HALflash_qpic_bam_reduced.lib(flash_hal_main.o)
    0x08017ddc   0x00000028   Code   RO         4111    i.flash_hal_read_page  HALflash_qpic_bam_reduced.lib(flash_hal_main.o)
    0x08017e04   0x00000028   Code   RO         4112    i.flash_hal_read_param_page  HALflash_qpic_bam_reduced.lib(flash_hal_main.o)
    0x08017e2c   0x00000018   Code   RO         4116    i.flash_hal_set_address_cycles  HALflash_qpic_bam_reduced.lib(flash_hal_main.o)
    0x08017e44   0x00000058   Code   RO         4117    i.flash_hal_set_clk_cycle_gap  HALflash_qpic_bam_reduced.lib(flash_hal_main.o)
    0x08017e9c   0x0000001c   Code   RO         4118    i.flash_hal_set_dev_width  HALflash_qpic_bam_reduced.lib(flash_hal_main.o)
    0x08017eb8   0x0000001c   Code   RO         4119    i.flash_hal_set_ecc_length  HALflash_qpic_bam_reduced.lib(flash_hal_main.o)
    0x08017ed4   0x0000001c   Code   RO         4120    i.flash_hal_set_ecc_state  HALflash_qpic_bam_reduced.lib(flash_hal_main.o)
    0x08017ef0   0x0000001c   Code   RO         4121    i.flash_hal_set_page_size  HALflash_qpic_bam_reduced.lib(flash_hal_main.o)
    0x08017f0c   0x00000050   Code   RO         4504    i.flash_hal_set_property  HALflash.lib(flash_hal_properties.o)
    0x08017f5c   0x0000001c   Code   RO         4122    i.flash_hal_set_spare_size  HALflash_qpic_bam_reduced.lib(flash_hal_main.o)
    0x08017f78   0x00000030   Code   RO         4123    i.flash_hal_set_xfer_cfg  HALflash_qpic_bam_reduced.lib(flash_hal_main.o)
    0x08017fa8   0x00000020   Code   RO         4460    i.flash_i2c_configure  extdrv_i2c_v2.lib(flash_extdrv_i2c_v2.o)
    0x08017fc8   0x00000024   Code   RO         4461    i.flash_i2c_init    extdrv_i2c_v2.lib(flash_extdrv_i2c_v2.o)
    0x08017fec   0x000000fc   Code   RO         4462    i.flash_i2c_read    extdrv_i2c_v2.lib(flash_extdrv_i2c_v2.o)
    0x080180e8   0x00000110   Code   RO         4463    i.flash_i2c_write   extdrv_i2c_v2.lib(flash_extdrv_i2c_v2.o)
    0x080181f8   0x0000013c   Code   RO         1088    i.flash_init_buffer_descriptor  boot_nand.lib(boot_flash_dev_dal.o)
    0x08018334   0x00000030   Code   RO         1089    i.flash_initialize_device_structure  boot_nand.lib(boot_flash_dev_dal.o)
    0x08018364   0x00000048   Code   RO         1090    i.flash_nand_bad_block_check  boot_nand.lib(boot_flash_dev_dal.o)
    0x080183ac   0x00000004   Code   RO         1091    i.flash_nand_block_count  boot_nand.lib(boot_flash_dev_dal.o)
    0x080183b0   0x00000004   Code   RO         1092    i.flash_nand_block_size  boot_nand.lib(boot_flash_dev_dal.o)
    0x080183b4   0x00000016   Code   RO         4043    i.flash_nand_check_buff_desc  DALflash_nand_dma_reduced.lib(flash_nand_entry.o)
    0x080183ca   0x0000003a   Code   RO         4044    i.flash_nand_check_page_in_partition  DALflash_nand_dma_reduced.lib(flash_nand_entry.o)
    0x08018404   0x00000030   Code   RO         1093    i.flash_nand_copy_page  boot_nand.lib(boot_flash_dev_dal.o)
    0x08018434   0x00000004   Code   RO         1094    i.flash_nand_device_id  boot_nand.lib(boot_flash_dev_dal.o)
    0x08018438   0x00000004   Code   RO         1095    i.flash_nand_device_name  boot_nand.lib(boot_flash_dev_dal.o)
    0x0801843c   0x00000004   Code   RO         1096    i.flash_nand_device_type  boot_nand.lib(boot_flash_dev_dal.o)
    0x08018440   0x00000004   Code   RO         1097    i.flash_nand_device_width  boot_nand.lib(boot_flash_dev_dal.o)
    0x08018444   0x0000001a   Code   RO         1098    i.flash_nand_erase_block  boot_nand.lib(boot_flash_dev_dal.o)
    0x0801845e   0x00000002   PAD
    0x08018460   0x0000000c   Code   RO         4085    i.flash_nand_get_configs  DALflash_nand_dma_reduced.lib(flash_nand_config.o)
    0x0801846c   0x00000014   Code   RO         1099    i.flash_nand_get_partition_attribs  boot_nand.lib(boot_flash_dev_dal.o)
    0x08018480   0x00000022   Code   RO         1100    i.flash_nand_get_partition_phy_limits  boot_nand.lib(boot_flash_dev_dal.o)
    0x080184a2   0x00000004   Code   RO         1101    i.flash_nand_get_spare_corrected_bcount  boot_nand.lib(boot_flash_dev_dal.o)
    0x080184a6   0x00000040   Code   RO         1103    i.flash_nand_is_block_erased  boot_nand.lib(boot_flash_dev_dal.o)
    0x080184e6   0x00000002   PAD
    0x080184e8   0x00000080   Code   RO         1104    i.flash_nand_is_page_erased  boot_nand.lib(boot_flash_dev_dal.o)
    0x08018568   0x00000004   Code   RO         1105    i.flash_nand_lock_ops  boot_nand.lib(boot_flash_dev_dal.o)
    0x0801856c   0x00000004   Code   RO         1106    i.flash_nand_maker_id  boot_nand.lib(boot_flash_dev_dal.o)
    0x08018570   0x00000004   Code   RO         1107    i.flash_nand_page_size  boot_nand.lib(boot_flash_dev_dal.o)
    0x08018574   0x00000058   Code   RO         1108    i.flash_nand_read_mpages  boot_nand.lib(boot_flash_dev_dal.o)
    0x080185cc   0x00000058   Code   RO         1109    i.flash_nand_read_page  boot_nand.lib(boot_flash_dev_dal.o)
    0x08018624   0x00000050   Code   RO         1110    i.flash_nand_read_page_and_udata  boot_nand.lib(boot_flash_dev_dal.o)
    0x08018674   0x00000048   Code   RO         1111    i.flash_nand_read_spare_bytes  boot_nand.lib(boot_flash_dev_dal.o)
    0x080186bc   0x00000084   Code   RO         1112    i.flash_nand_read_spare_udata  boot_nand.lib(boot_flash_dev_dal.o)
    0x08018740   0x00000004   Code   RO         1113    i.flash_nand_total_page_size  boot_nand.lib(boot_flash_dev_dal.o)
    0x08018744   0x00000038   Code   RO         1114    i.flash_nand_write_page  boot_nand.lib(boot_flash_dev_dal.o)
    0x0801877c   0x00000044   Code   RO         1115    i.flash_nand_write_page_and_udata  boot_nand.lib(boot_flash_dev_dal.o)
    0x080187c0   0x0000000c   Code   RO         4452    i.flash_nor_i2c_get_configs  DALflash_i2c_nor.lib(flash_nor_i2c_config.o)
    0x080187cc   0x0000000c   Code   RO         4453    i.flash_nor_i2c_get_probe_table  DALflash_i2c_nor.lib(flash_nor_i2c_config.o)
    0x080187d8   0x00000180   Code   RO         1116    i.flash_open        boot_nand.lib(boot_flash_dev_dal.o)
    0x08018958   0x00000070   Code   RO         3139    i.flash_parti_read_pages  DALflash_nand_dma_reduced.lib(flash_nand_partition.o)
    0x080189c8   0x0000004c   Code   RO         1117    i.flash_release_device_structure  boot_nand.lib(boot_flash_dev_dal.o)
    0x08018a14   0x00000004   Code   RO         2429    i.flash_smem_alloc  DALflash_nand_dma_reduced.lib(flash_boot_ops_setup.o)
    0x08018a18   0x0000001a   Code   RO         3985    i.flash_strcpy      DALflash.lib(flash_dal_util.o)
    0x08018a32   0x00000002   PAD
    0x08018a34   0x00000024   Code   RO         3986    i.flash_vtop_add_item  DALflash.lib(flash_dal_util.o)
    0x08018a58   0x00000040   Code   RO         3987    i.flash_vtop_get_physical  DALflash.lib(flash_dal_util.o)
    0x08018a98   0x0000000c   Code   RO         3988    i.flash_vtop_init_list  DALflash.lib(flash_dal_util.o)
    0x08018aa4   0x00000002   Code   RO         1452    i.free              DALFwk.lib(DALHeap.o)
    0x08018aa6   0x00000044   Code   RO         4034    i.gen_crc           DALflash_nand_dma_reduced.lib(flash_onfi.o)
    0x08018aea   0x00000002   PAD
    0x08018aec   0x00000128   Code   RO         1249    i.get_device_configuration  icb.lib(icbcfg.o)
    0x08018c14   0x0000001a   Code   RO         3718    i.get_dword_property  UART.lib(Uart_sbl_os.o)
    0x08018c2e   0x00000028   Code   RO         3517    i.get_index_from_ascent_list  pmic_drivers_smb.lib(pm_smb.o)
    0x08018c56   0x00000030   Code   RO         1250    i.get_largest_valid_size  icb.lib(icbcfg.o)
    0x08018c86   0x0000004e   Code   RO         1864    i.get_next_good_flash_area  boot_nand.lib(boot_flash_trans_nand.o)
    0x08018cd4   0x0000004c   Code   RO          834    i.get_partition_category  boot_mem_manage.lib(boot_ram_partition.o)
    0x08018d20   0x00000070   Code   RO         1865    i.get_physical_flash_addr  boot_nand.lib(boot_flash_trans_nand.o)
    0x08018d90   0x00000050   Code   RO         3896    i.get_qi            secmath.lib(secmath_barrett_reduce.o)
    0x08018de0   0x00000248   Code   RO         1251    i.get_system_memory_map  icb.lib(icbcfg.o)
    0x08019028   0x00000070   Code   RO         4797    i.hal_nand_bam_reg_read_buff_alloc  HALflash_qpic_bam_reduced.lib(flash_hal_nandc_predef_bam_init.o)
    0x08019098   0x0000010c   Code   RO         4829    i.hal_nandc_bam_00_30_bb_marker_exec  HALflash_qpic_bam_reduced.lib(flash_hal_nandc_predef_bam_exec.o)
    0x080191a4   0x0000011c   Code   RO         4798    i.hal_nandc_bam_00_30_bb_marker_init  HALflash_qpic_bam_reduced.lib(flash_hal_nandc_predef_bam_init.o)
    0x080192c0   0x00000010   Code   RO         4878    i.hal_nandc_bam_00_30_bb_marker_pprocess  HALflash_qpic_bam_reduced.lib(flash_hal_nandc_predef_bam_pprocess.o)
    0x080192d0   0x000000d0   Code   RO         4830    i.hal_nandc_bam_00_30_x1_exec  HALflash_qpic_bam_reduced.lib(flash_hal_nandc_predef_bam_exec.o)
    0x080193a0   0x000001bc   Code   RO         4799    i.hal_nandc_bam_00_30_x1_init  HALflash_qpic_bam_reduced.lib(flash_hal_nandc_predef_bam_init.o)
    0x0801955c   0x00000058   Code   RO         4879    i.hal_nandc_bam_00_30_x1_pprocess  HALflash_qpic_bam_reduced.lib(flash_hal_nandc_predef_bam_pprocess.o)
    0x080195b4   0x000000b4   Code   RO         4831    i.hal_nandc_bam_00_EC_exec  HALflash_qpic_bam_reduced.lib(flash_hal_nandc_predef_bam_exec.o)
    0x08019668   0x0000011c   Code   RO         4800    i.hal_nandc_bam_00_EC_init  HALflash_qpic_bam_reduced.lib(flash_hal_nandc_predef_bam_init.o)
    0x08019784   0x00000010   Code   RO         4880    i.hal_nandc_bam_00_EC_pprocess  HALflash_qpic_bam_reduced.lib(flash_hal_nandc_predef_bam_pprocess.o)
    0x08019794   0x000000a8   Code   RO         4834    i.hal_nandc_bam_90_onfi_id_exec  HALflash_qpic_bam_reduced.lib(flash_hal_nandc_predef_bam_exec.o)
    0x0801983c   0x0000011c   Code   RO         4803    i.hal_nandc_bam_90_onfi_id_init  HALflash_qpic_bam_reduced.lib(flash_hal_nandc_predef_bam_init.o)
    0x08019958   0x00000010   Code   RO         4883    i.hal_nandc_bam_90_onfi_id_pprocess  HALflash_qpic_bam_reduced.lib(flash_hal_nandc_predef_bam_pprocess.o)
    0x08019968   0x000000d0   Code   RO         4835    i.hal_nandc_bam_FF_90_exec  HALflash_qpic_bam_reduced.lib(flash_hal_nandc_predef_bam_exec.o)
    0x08019a38   0x000001b4   Code   RO         4804    i.hal_nandc_bam_FF_90_init  HALflash_qpic_bam_reduced.lib(flash_hal_nandc_predef_bam_init.o)
    0x08019bec   0x00000010   Code   RO         4884    i.hal_nandc_bam_FF_90_pprocess  HALflash_qpic_bam_reduced.lib(flash_hal_nandc_predef_bam_pprocess.o)
    0x08019bfc   0x0000003a   Code   RO         4885    i.hal_nandc_bam_check_status_error  HALflash_qpic_bam_reduced.lib(flash_hal_nandc_predef_bam_pprocess.o)
    0x08019c36   0x00000002   PAD
    0x08019c38   0x000000a8   Code   RO         4805    i.hal_nandc_bam_xfer_steps_init  HALflash_qpic_bam_reduced.lib(flash_hal_nandc_predef_bam_init.o)
    0x08019ce0   0x0000000c   Code   RO         4542    i.hal_nandc_close   HALflash_qpic_bam_reduced.lib(flash_hal_nandc_common.o)
    0x08019cec   0x00000104   Code   RO         4543    i.hal_nandc_config_ctlr_data_4bit_ecc  HALflash_qpic_bam_reduced.lib(flash_hal_nandc_common.o)
    0x08019df0   0x00000104   Code   RO         4544    i.hal_nandc_config_ctlr_data_8bit_ecc  HALflash_qpic_bam_reduced.lib(flash_hal_nandc_common.o)
    0x08019ef4   0x00000068   Code   RO         4545    i.hal_nandc_configure  HALflash_qpic_bam_reduced.lib(flash_hal_nandc_common.o)
    0x08019f5c   0x00000004   Code   RO         4546    i.hal_nandc_deinit  HALflash_qpic_bam_reduced.lib(flash_hal_nandc_common.o)
    0x08019f60   0x00000004   Code   RO         4739    i.hal_nandc_fptrs_init  HALflash_qpic_bam_reduced.lib(flash_hal_nandc_reduced.o)
    0x08019f64   0x00000048   Code   RO         4725    i.hal_nandc_fptrs_init_reduced  HALflash_qpic_bam_reduced.lib(flash_hal_nandc_predef_bam_core.o)
    0x08019fac   0x00000018   Code   RO         4836    i.hal_nandc_get_cache_info  HALflash_qpic_bam_reduced.lib(flash_hal_nandc_predef_bam_exec.o)
    0x08019fc4   0x0000003e   Code   RO         4547    i.hal_nandc_get_memory_usage  HALflash_qpic_bam_reduced.lib(flash_hal_nandc_common.o)
    0x0801a002   0x00000002   PAD
    0x0801a004   0x00000060   Code   RO         4548    i.hal_nandc_get_page_layout  HALflash_qpic_bam_reduced.lib(flash_hal_nandc_common.o)
    0x0801a064   0x00000002   Code   RO         4726    i.hal_nandc_iface_deinit  HALflash_qpic_bam_reduced.lib(flash_hal_nandc_predef_bam_core.o)
    0x0801a066   0x00000002   PAD
    0x0801a068   0x00000028   Code   RO         4727    i.hal_nandc_iface_init  HALflash_qpic_bam_reduced.lib(flash_hal_nandc_predef_bam_core.o)
    0x0801a090   0x00000094   Code   RO         4549    i.hal_nandc_init    HALflash_qpic_bam_reduced.lib(flash_hal_nandc_common.o)
    0x0801a124   0x00000002   Code   RO         4806    i.hal_nandc_predef_bam_deinit  HALflash_qpic_bam_reduced.lib(flash_hal_nandc_predef_bam_init.o)
    0x0801a126   0x00000002   PAD
    0x0801a128   0x00000100   Code   RO         4728    i.hal_nandc_predef_bam_init  HALflash_qpic_bam_reduced.lib(flash_hal_nandc_predef_bam_core.o)
    0x0801a228   0x00000080   Code   RO         4807    i.hal_nandc_predef_cmd_blk_buff_alloc  HALflash_qpic_bam_reduced.lib(flash_hal_nandc_predef_bam_init.o)
    0x0801a2a8   0x0000029c   Code   RO         4808    i.hal_nandc_predef_cmd_list_init  HALflash_qpic_bam_reduced.lib(flash_hal_nandc_predef_bam_init.o)
    0x0801a544   0x00000004   Code   RO         4740    i.hal_nandc_predef_cmd_ptrs_init  HALflash_qpic_bam_reduced.lib(flash_hal_nandc_reduced.o)
    0x0801a548   0x00000098   Code   RO         4730    i.hal_nandc_predef_cmd_ptrs_init_reduced  HALflash_qpic_bam_reduced.lib(flash_hal_nandc_predef_bam_core.o)
    0x0801a5e0   0x00000040   Code   RO         4809    i.hal_nandc_predef_desc_buff_alloc  HALflash_qpic_bam_reduced.lib(flash_hal_nandc_predef_bam_init.o)
    0x0801a620   0x00000054   Code   RO         4810    i.hal_nandc_predef_desc_list_init  HALflash_qpic_bam_reduced.lib(flash_hal_nandc_predef_bam_init.o)
    0x0801a674   0x00000014   Code   RO         4550    i.hal_nandc_set_clock_cycle_gap  HALflash_qpic_bam_reduced.lib(flash_hal_nandc_common.o)
    0x0801a688   0x00000018   Code   RO         4811    i.hal_nandc_set_memory_region  HALflash_qpic_bam_reduced.lib(flash_hal_nandc_predef_bam_init.o)
    0x0801a6a0   0x00000050   Code   RO         4837    i.hal_nandc_set_xfer_cfg_exec  HALflash_qpic_bam_reduced.lib(flash_hal_nandc_predef_bam_exec.o)
    0x0801a6f0   0x0000002a   Code   RO         2672    i.handle_ep_halt    qhsusb_bulk_chg.lib(qhsusb_dcd_ch9.o)
    0x0801a71a   0x00000002   PAD
    0x0801a71c   0x0000009c   Code   RO         2673    i.handle_get_descriptor  qhsusb_bulk_chg.lib(qhsusb_dcd_ch9.o)
    0x0801a7b8   0x000000d0   Code   RO         2674    i.handle_setup_dev  qhsusb_bulk_chg.lib(qhsusb_dcd_ch9.o)
    0x0801a888   0x00000092   Code   RO         2675    i.handle_setup_ep   qhsusb_bulk_chg.lib(qhsusb_dcd_ch9.o)
    0x0801a91a   0x00000086   Code   RO         2676    i.handle_setup_ifc  qhsusb_bulk_chg.lib(qhsusb_dcd_ch9.o)
    0x0801a9a0   0x00000054   Code   RO         2620    i.hdlc_init_rx_int_buf_mode  qhsusb_bulk_chg.lib(qhsusb_fd_hdlc.o)
    0x0801a9f4   0x00000078   Code   RO         2621    i.hdlc_notify_cb    qhsusb_bulk_chg.lib(qhsusb_fd_hdlc.o)
    0x0801aa6c   0x00000038   Code   RO         2622    i.hdlc_rx_callback  qhsusb_bulk_chg.lib(qhsusb_fd_hdlc.o)
    0x0801aaa4   0x00000024   Code   RO         2623    i.hdlc_rx_callback_int_buf_mode  qhsusb_bulk_chg.lib(qhsusb_fd_hdlc.o)
    0x0801aac8   0x00000034   Code   RO         2624    i.hdlc_tx_callback  qhsusb_bulk_chg.lib(qhsusb_fd_hdlc.o)
    0x0801aafc   0x00000050   Code   RO         4264    i.hid_setup         qhsusb_bulk_chg.lib(qhsusb_fd_chg.o)
    0x0801ab4c   0x00000090   Code   RO         4464    i.i2c_clk_init      extdrv_i2c_v2.lib(flash_extdrv_i2c_v2.o)
    0x0801abdc   0x00000024   Code   RO         4465    i.i2c_core_set_state  extdrv_i2c_v2.lib(flash_extdrv_i2c_v2.o)
    0x0801ac00   0x00000018   Code   RO         4466    i.i2c_io_init       extdrv_i2c_v2.lib(flash_extdrv_i2c_v2.o)
    0x0801ac18   0x00000050   Code   RO         4467    i.i2c_qup_config    extdrv_i2c_v2.lib(flash_extdrv_i2c_v2.o)
    0x0801ac68   0x0000003c   Code   RO         4468    i.i2c_qup_init      extdrv_i2c_v2.lib(flash_extdrv_i2c_v2.o)
    0x0801aca4   0x00000020   Code   RO         4470    i.i2c_state_error_check  extdrv_i2c_v2.lib(flash_extdrv_i2c_v2.o)
    0x0801acc4   0x00000020   Code   RO         4471    i.i2c_write_complete_check  extdrv_i2c_v2.lib(flash_extdrv_i2c_v2.o)
    0x0801ace4   0x00000020   Code   RO         2009    i.image_uuid        version_uuid.lib(image_uuid.o)
    0x0801ad04   0x0000001e   Code   RO         2012    i.image_version_initialize_version_table  version_image.lib(image_version.o)
    0x0801ad22   0x00000002   PAD
    0x0801ad24   0x000000dc   Code   RO         2013    i.image_version_populate_version  version_image.lib(image_version.o)
    0x0801ae00   0x0000006c   Code   RO         1981    i.initClkDev        Spmi.lib(SpmiOsImage.o)
    0x0801ae6c   0x00000018   Code   RO         1494    i.insertHead        bam.lib(bams.o)
    0x0801ae84   0x00000022   Code   RO         3879    i.inverse32         secmath.lib(secmath_montmul_utils.o)
    0x0801aea6   0x00000002   Code   RO         3977    i.kick_watchdog     DALflash.lib(flash_properties.o)
    0x0801aea8   0x00000024   Code   RO          907    i.lennyFunc         apt.lib(boot_apt_test.o)
    0x0801aecc   0x00000054   Code   RO         1958    i.loadFull          Spmi.lib(SpmiMaster.o)
    0x0801af20   0x00000078   Code   RO         1959    i.loadMin           Spmi.lib(SpmiMaster.o)
    0x0801af98   0x00000044   Code   RO         1453    i.malloc            DALFwk.lib(DALHeap.o)
    0x0801afdc   0x00000454   Code   RO         1252    i.map_segments      icb.lib(icbcfg.o)
    0x0801b430   0x0000001a   Code   RO         2226    i.memscpy           libstd.lib(memscpy.o)
    0x0801b44a   0x0000004a   Code   RO          264    i.mmu_map_block_as_l1_sections  boot_mmu.lib(boot_page_table.o)
    0x0801b494   0x00000094   Code   RO          265    i.mmu_map_block_as_l2_pages  boot_mmu.lib(boot_page_table.o)
    0x0801b528   0x000001b6   Code   RO         3103    i.mod_exp           secmath.lib(secmath_mod_exp.o)
    0x0801b6de   0x00000082   Code   RO         3869    i.montmul_one_ref   secmath.lib(secmath_montmul_ref.o)
    0x0801b760   0x000000ca   Code   RO         3870    i.montmul_ref1      secmath.lib(secmath_montmul_ref.o)
    0x0801b82a   0x0000009c   Code   RO         3897    i.mult_R_mod_m      secmath.lib(secmath_barrett_reduce.o)
    0x0801b8c6   0x000000d0   Code   RO         3898    i.mult_base_mod_m   secmath.lib(secmath_barrett_reduce.o)
    0x0801b996   0x00000002   PAD
    0x0801b998   0x000000e4   Code   RO         1323    i.myIsr             Spmi.lib(SpmiBus.o)
    0x0801ba7c   0x00000022   Code   RO         3111    i.nand_close        DALflash_nand_dma_reduced.lib(flash_nand_init.o)
    0x0801ba9e   0x0000006c   Code   RO         3112    i.nand_configure    DALflash_nand_dma_reduced.lib(flash_nand_init.o)
    0x0801bb0a   0x00000070   Code   RO         3113    i.nand_configure_device_ctxt  DALflash_nand_dma_reduced.lib(flash_nand_init.o)
    0x0801bb7a   0x00000002   PAD
    0x0801bb7c   0x00000068   Code   RO         3114    i.nand_configure_pdata  DALflash_nand_dma_reduced.lib(flash_nand_init.o)
    0x0801bbe4   0x0000004c   Code   RO         3115    i.nand_deinit       DALflash_nand_dma_reduced.lib(flash_nand_init.o)
    0x0801bc30   0x00000030   Code   RO         4045    i.nand_entry_block_get_state  DALflash_nand_dma_reduced.lib(flash_nand_entry.o)
    0x0801bc60   0x00000028   Code   RO         4047    i.nand_entry_close  DALflash_nand_dma_reduced.lib(flash_nand_entry.o)
    0x0801bc88   0x00000028   Code   RO         4049    i.nand_entry_deinit  DALflash_nand_dma_reduced.lib(flash_nand_entry.o)
    0x0801bcb0   0x00000088   Code   RO         4050    i.nand_entry_device_probe  DALflash_nand_dma_reduced.lib(flash_nand_entry.o)
    0x0801bd38   0x0000009c   Code   RO         4052    i.nand_entry_get_info  DALflash_nand_dma_reduced.lib(flash_nand_entry.o)
    0x0801bdd4   0x00000090   Code   RO         4054    i.nand_entry_init   DALflash_nand_dma_reduced.lib(flash_nand_entry.o)
    0x0801be64   0x000000b8   Code   RO         4055    i.nand_entry_mem_alloc  DALflash_nand_dma_reduced.lib(flash_nand_entry.o)
    0x0801bf1c   0x00000034   Code   RO         4056    i.nand_entry_mem_deinit  DALflash_nand_dma_reduced.lib(flash_nand_entry.o)
    0x0801bf50   0x00000044   Code   RO         4057    i.nand_entry_open_partition  DALflash_nand_dma_reduced.lib(flash_nand_entry.o)
    0x0801bf94   0x00000080   Code   RO         4058    i.nand_entry_read_pages  DALflash_nand_dma_reduced.lib(flash_nand_entry.o)
    0x0801c014   0x00000004   Code   RO         4006    i.nand_get_block_state  DALflash_nand_dma_reduced.lib(flash_nand_core.o)
    0x0801c018   0x000000e4   Code   RO         4007    i.nand_get_block_status  DALflash_nand_dma_reduced.lib(flash_nand_core.o)
    0x0801c0fc   0x000000be   Code   RO         3116    i.nand_get_device_nand_params  DALflash_nand_dma_reduced.lib(flash_nand_init.o)
    0x0801c1ba   0x00000004   Code   RO         4405    i.nand_get_entry_vtbl  DALflash_nand_dma_reduced.lib(flash_dal_nand_reduced.o)
    0x0801c1be   0x00000002   PAD
    0x0801c1c0   0x00000038   Code   RO         4061    i.nand_get_entry_vtbl_reduced  DALflash_nand_dma_reduced.lib(flash_nand_entry.o)
    0x0801c1f8   0x000000c8   Code   RO         3117    i.nand_init_client_info  DALflash_nand_dma_reduced.lib(flash_nand_init.o)
    0x0801c2c0   0x00000118   Code   RO         3118    i.nand_intialize_primary_hal_device  DALflash_nand_dma_reduced.lib(flash_nand_init.o)
    0x0801c3d8   0x000000f0   Code   RO         3140    i.nand_is_block_mibib  DALflash_nand_dma_reduced.lib(flash_nand_partition.o)
    0x0801c4c8   0x00000020   Code   RO         3119    i.nand_mem_deinit   DALflash_nand_dma_reduced.lib(flash_nand_init.o)
    0x0801c4e8   0x00000044   Code   RO         3120    i.nand_mem_init     DALflash_nand_dma_reduced.lib(flash_nand_init.o)
    0x0801c52c   0x000001f4   Code   RO         4035    i.nand_onfi_probe   DALflash_nand_dma_reduced.lib(flash_onfi.o)
    0x0801c720   0x00000004   Code   RO         3121    i.nand_open_partition  DALflash_nand_dma_reduced.lib(flash_nand_init.o)
    0x0801c724   0x00000040   Code   RO         3141    i.nand_partition_update_limits  DALflash_nand_dma_reduced.lib(flash_nand_partition.o)
    0x0801c764   0x0000006c   Code   RO         3122    i.nand_predef_init  DALflash_nand_dma_reduced.lib(flash_nand_init.o)
    0x0801c7d0   0x000000e0   Code   RO         3123    i.nand_probe        DALflash_nand_dma_reduced.lib(flash_nand_init.o)
    0x0801c8b0   0x000000b8   Code   RO         4036    i.nand_read_custom_ids  DALflash_nand_dma_reduced.lib(flash_onfi.o)
    0x0801c968   0x00000022   Code   RO         4009    i.nand_read_id      DALflash_nand_dma_reduced.lib(flash_nand_core.o)
    0x0801c98a   0x00000002   PAD
    0x0801c98c   0x000000e0   Code   RO         4010    i.nand_read_mpages  DALflash_nand_dma_reduced.lib(flash_nand_core.o)
    0x0801ca6c   0x000000aa   Code   RO         4012    i.nand_read_pages   DALflash_nand_dma_reduced.lib(flash_nand_core.o)
    0x0801cb16   0x00000002   PAD
    0x0801cb18   0x0000016c   Code   RO         3142    i.nand_retrieve_mibib  DALflash_nand_dma_reduced.lib(flash_nand_partition.o)
    0x0801cc84   0x0000001e   Code   RO         4014    i.nand_set_buff_desc  DALflash_nand_dma_reduced.lib(flash_nand_core.o)
    0x0801cca2   0x000000d8   Code   RO         3143    i.nand_update_limits  DALflash_nand_dma_reduced.lib(flash_nand_partition.o)
    0x0801cd7a   0x0000001a   Code   RO         4838    i.nandc_set_addr    HALflash_qpic_bam_reduced.lib(flash_hal_nandc_predef_bam_exec.o)
    0x0801cd94   0x00000028   Code   RO         4839    i.nandc_set_cfg     HALflash_qpic_bam_reduced.lib(flash_hal_nandc_predef_bam_exec.o)
    0x0801cdbc   0x000000bc   Code   RO         4840    i.nandc_set_read_buffers  HALflash_qpic_bam_reduced.lib(flash_hal_nandc_predef_bam_exec.o)
    0x0801ce78   0x00000006   Code   RO         4407    i.nor_entry_begin_erase_block  DALflash_i2c_nor.lib(flash_nor_entry_reduced.o)
    0x0801ce7e   0x00000006   Code   RO         4408    i.nor_entry_block_get_state  DALflash_i2c_nor.lib(flash_nor_entry_reduced.o)
    0x0801ce84   0x00000006   Code   RO         4409    i.nor_entry_block_set_state  DALflash_i2c_nor.lib(flash_nor_entry_reduced.o)
    0x0801ce8a   0x00000004   Code   RO         4410    i.nor_entry_close   DALflash_i2c_nor.lib(flash_nor_entry_reduced.o)
    0x0801ce8e   0x00000006   Code   RO         4411    i.nor_entry_copy_pages  DALflash_i2c_nor.lib(flash_nor_entry_reduced.o)
    0x0801ce94   0x00000014   Code   RO         4412    i.nor_entry_deinit  DALflash_i2c_nor.lib(flash_nor_entry_reduced.o)
    0x0801cea8   0x00000040   Code   RO         4413    i.nor_entry_device_probe_reduced  DALflash_i2c_nor.lib(flash_nor_entry_reduced.o)
    0x0801cee8   0x00000006   Code   RO         4414    i.nor_entry_erase_blocks  DALflash_i2c_nor.lib(flash_nor_entry_reduced.o)
    0x0801ceee   0x00000006   Code   RO         4415    i.nor_entry_erase_blocks_by_size  DALflash_i2c_nor.lib(flash_nor_entry_reduced.o)
    0x0801cef4   0x00000006   Code   RO         4416    i.nor_entry_erase_resume  DALflash_i2c_nor.lib(flash_nor_entry_reduced.o)
    0x0801cefa   0x00000006   Code   RO         4417    i.nor_entry_erase_suspend  DALflash_i2c_nor.lib(flash_nor_entry_reduced.o)
    0x0801cf00   0x00000016   Code   RO         4418    i.nor_entry_get_info  DALflash_i2c_nor.lib(flash_nor_entry_reduced.o)
    0x0801cf16   0x00000006   Code   RO         4419    i.nor_entry_get_status  DALflash_i2c_nor.lib(flash_nor_entry_reduced.o)
    0x0801cf1c   0x00000006   Code   RO         4420    i.nor_entry_get_uuid  DALflash_i2c_nor.lib(flash_nor_entry_reduced.o)
    0x0801cf22   0x0000001c   Code   RO         4421    i.nor_entry_open_partition  DALflash_i2c_nor.lib(flash_nor_entry_reduced.o)
    0x0801cf3e   0x00000006   Code   RO         4422    i.nor_entry_power_event  DALflash_i2c_nor.lib(flash_nor_entry_reduced.o)
    0x0801cf44   0x0000001e   Code   RO         4423    i.nor_entry_read_pages  DALflash_i2c_nor.lib(flash_nor_entry_reduced.o)
    0x0801cf62   0x00000006   Code   RO         4424    i.nor_entry_read_pointer  DALflash_i2c_nor.lib(flash_nor_entry_reduced.o)
    0x0801cf68   0x00000006   Code   RO         4425    i.nor_entry_set_power_mode  DALflash_i2c_nor.lib(flash_nor_entry_reduced.o)
    0x0801cf6e   0x00000006   Code   RO         4426    i.nor_entry_write_2x_pages  DALflash_i2c_nor.lib(flash_nor_entry_reduced.o)
    0x0801cf74   0x0000001e   Code   RO         4427    i.nor_entry_write_pages  DALflash_i2c_nor.lib(flash_nor_entry_reduced.o)
    0x0801cf92   0x00000006   Code   RO         4428    i.nor_entry_write_partial_page  DALflash_i2c_nor.lib(flash_nor_entry_reduced.o)
    0x0801cf98   0x00000004   Code   RO         4702    i.nor_i2c_close     DALflash_i2c_nor.lib(flash_nor_i2c_init.o)
    0x0801cf9c   0x00000058   Code   RO         4703    i.nor_i2c_configure  DALflash_i2c_nor.lib(flash_nor_i2c_init.o)
    0x0801cff4   0x00000098   Code   RO         4704    i.nor_i2c_configure_device_ctxt  DALflash_i2c_nor.lib(flash_nor_i2c_init.o)
    0x0801d08c   0x0000000a   Code   RO         4705    i.nor_i2c_deinit    DALflash_i2c_nor.lib(flash_nor_i2c_init.o)
    0x0801d096   0x00000092   Code   RO         4770    i.nor_i2c_get_info  DALflash_i2c_nor.lib(flash_nor_i2c_core.o)
    0x0801d128   0x00000074   Code   RO         4706    i.nor_i2c_init_client_info  DALflash_i2c_nor.lib(flash_nor_i2c_init.o)
    0x0801d19c   0x00000016   Code   RO         4707    i.nor_i2c_mem_deinit  DALflash_i2c_nor.lib(flash_nor_i2c_init.o)
    0x0801d1b2   0x00000004   Code   RO         4708    i.nor_i2c_open_partition  DALflash_i2c_nor.lib(flash_nor_i2c_init.o)
    0x0801d1b6   0x00000002   PAD
    0x0801d1b8   0x000000c8   Code   RO         4709    i.nor_i2c_probe     DALflash_i2c_nor.lib(flash_nor_i2c_init.o)
    0x0801d280   0x00000018   Code   RO         4710    i.nor_i2c_read_op   DALflash_i2c_nor.lib(flash_nor_i2c_init.o)
    0x0801d298   0x0000005e   Code   RO         4771    i.nor_i2c_read_pages  DALflash_i2c_nor.lib(flash_nor_i2c_core.o)
    0x0801d2f6   0x00000002   PAD
    0x0801d2f8   0x00000018   Code   RO         4711    i.nor_i2c_write_op  DALflash_i2c_nor.lib(flash_nor_i2c_init.o)
    0x0801d310   0x00000066   Code   RO         4772    i.nor_i2c_write_pages  DALflash_i2c_nor.lib(flash_nor_i2c_core.o)
    0x0801d376   0x0000001c   Code   RO         1289    i.ownerCmpr         Spmi.lib(SpmiCfg.o)
    0x0801d392   0x00000104   Code   RO         3081    i.pbl_clk_julian_to_secs  secboot_auth.lib(secboot_asn1.o)
    0x0801d496   0x0000001e   Code   RO         3082    i.pbl_secasn1_close_sequence  secboot_auth.lib(secboot_asn1.o)
    0x0801d4b4   0x00000044   Code   RO         3083    i.pbl_secasn1_decode_bit_string  secboot_auth.lib(secboot_asn1.o)
    0x0801d4f8   0x00000036   Code   RO         3084    i.pbl_secasn1_decode_boolean  secboot_auth.lib(secboot_asn1.o)
    0x0801d52e   0x00000078   Code   RO         3085    i.pbl_secasn1_decode_length  secboot_auth.lib(secboot_asn1.o)
    0x0801d5a6   0x00000044   Code   RO         3086    i.pbl_secasn1_decode_tag  secboot_auth.lib(secboot_asn1.o)
    0x0801d5ea   0x00000002   PAD
    0x0801d5ec   0x00000120   Code   RO         3087    i.pbl_secasn1_decode_time  secboot_auth.lib(secboot_asn1.o)
    0x0801d70c   0x0000001e   Code   RO         3088    i.pbl_secasn1_end   secboot_auth.lib(secboot_asn1.o)
    0x0801d72a   0x000000ce   Code   RO         3089    i.pbl_secasn1_next_field  secboot_auth.lib(secboot_asn1.o)
    0x0801d7f8   0x00000060   Code   RO         3090    i.pbl_secasn1_start  secboot_auth.lib(secboot_asn1.o)
    0x0801d858   0x0000008e   Code   RO         2359    i.pbl_secx509_check_cert_list  secboot_auth.lib(secboot_x509.o)
    0x0801d8e6   0x00000090   Code   RO         2360    i.pbl_secx509_check_issued  secboot_auth.lib(secboot_x509.o)
    0x0801d976   0x00000022   Code   RO         2361    i.pbl_secx509_check_purpose  secboot_auth.lib(secboot_x509.o)
    0x0801d998   0x00000048   Code   RO         2362    i.pbl_secx509_get_asn1_cert_size  secboot_auth.lib(secboot_x509.o)
    0x0801d9e0   0x0000001e   Code   RO         2363    i.pbl_secx509_name_cmp  secboot_auth.lib(secboot_x509.o)
    0x0801d9fe   0x0000006e   Code   RO         2364    i.pbl_secx509_parse_auth_key_id  secboot_auth.lib(secboot_x509.o)
    0x0801da6c   0x000000a6   Code   RO         2365    i.pbl_secx509_parse_basic_constraint  secboot_auth.lib(secboot_x509.o)
    0x0801db12   0x00000002   PAD
    0x0801db14   0x00000124   Code   RO         2366    i.pbl_secx509_parse_cert_buffer  secboot_auth.lib(secboot_x509.o)
    0x0801dc38   0x00000142   Code   RO         2367    i.pbl_secx509_parse_certificate  secboot_auth.lib(secboot_x509.o)
    0x0801dd7a   0x00000002   PAD
    0x0801dd7c   0x000002f8   Code   RO         2368    i.pbl_secx509_parse_dn  secboot_auth.lib(secboot_x509.o)
    0x0801e074   0x0000011c   Code   RO         2369    i.pbl_secx509_parse_ex_key_usage  secboot_auth.lib(secboot_x509.o)
    0x0801e190   0x00000200   Code   RO         2370    i.pbl_secx509_parse_extensions  secboot_auth.lib(secboot_x509.o)
    0x0801e390   0x00000044   Code   RO         2371    i.pbl_secx509_parse_gen_name_for_dir  secboot_auth.lib(secboot_x509.o)
    0x0801e3d4   0x0000005a   Code   RO         2372    i.pbl_secx509_parse_key_usage  secboot_auth.lib(secboot_x509.o)
    0x0801e42e   0x00000002   PAD
    0x0801e430   0x0000014c   Code   RO         2373    i.pbl_secx509_parse_pub_key  secboot_auth.lib(secboot_x509.o)
    0x0801e57c   0x000000b4   Code   RO         2374    i.pbl_secx509_parse_sig_algorithm  secboot_auth.lib(secboot_x509.o)
    0x0801e630   0x00000076   Code   RO         2375    i.pbl_secx509_parse_signature  secboot_auth.lib(secboot_x509.o)
    0x0801e6a6   0x00000022   Code   RO         2376    i.pbl_secx509_parse_unique_id  secboot_auth.lib(secboot_x509.o)
    0x0801e6c8   0x0000009c   Code   RO         2377    i.pbl_secx509_parse_validity  secboot_auth.lib(secboot_x509.o)
    0x0801e764   0x00000042   Code   RO         2378    i.pbl_secx509_parse_version  secboot_auth.lib(secboot_x509.o)
    0x0801e7a6   0x00000040   Code   RO         2379    i.pbl_secx509_skip_num_certs  secboot_auth.lib(secboot_x509.o)
    0x0801e7e6   0x00000002   PAD
    0x0801e7e8   0x00000010   Code   RO         2469    i.pm_cfg_device_index  pmic_app_chg.lib(pm_app_chg_alg.o)
    0x0801e7f8   0x000000d4   Code   RO         2470    i.pm_chg_battery_and_debug_board_detect_state  pmic_app_chg.lib(pm_app_chg_alg.o)
    0x0801e8cc   0x00000068   Code   RO         2471    i.pm_chg_bootup_ok_state  pmic_app_chg.lib(pm_app_chg_alg.o)
    0x0801e934   0x00000074   Code   RO         2472    i.pm_chg_cdp_charging_state  pmic_app_chg.lib(pm_app_chg_alg.o)
    0x0801e9a8   0x00000184   Code   RO         2473    i.pm_chg_charger_detect_state  pmic_app_chg.lib(pm_app_chg_alg.o)
    0x0801eb2c   0x00000094   Code   RO         2474    i.pm_chg_dcp_charging_state  pmic_app_chg.lib(pm_app_chg_alg.o)
    0x0801ebc0   0x00000058   Code   RO         3322    i.pm_chg_driver_init  pmic_drivers_chg.lib(pm_chg_driver.o)
    0x0801ec18   0x00000180   Code   RO         2475    i.pm_chg_enable_usb_charging  pmic_app_chg.lib(pm_app_chg_alg.o)
    0x0801ed98   0x00000078   Code   RO         2476    i.pm_chg_enter_hw_trickle_charging  pmic_app_chg.lib(pm_app_chg_alg.o)
    0x0801ee10   0x00000074   Code   RO         2477    i.pm_chg_float_charging_state  pmic_app_chg.lib(pm_app_chg_alg.o)
    0x0801ee84   0x00000050   Code   RO         3194    i.pm_chg_get_battery_volt_level  pmic_app_chg.lib(pm_app_chg_util.o)
    0x0801eed4   0x00000028   Code   RO         3196    i.pm_chg_get_chg_option  pmic_app_chg.lib(pm_app_chg_util.o)
    0x0801eefc   0x00000028   Code   RO         3197    i.pm_chg_get_enum_timer_expired  pmic_app_chg.lib(pm_app_chg_util.o)
    0x0801ef24   0x00000028   Code   RO         3198    i.pm_chg_get_enum_timer_status  pmic_app_chg.lib(pm_app_chg_util.o)
    0x0801ef4c   0x00000014   Code   RO         3323    i.pm_chg_get_peripheral_sub_type  pmic_drivers_chg.lib(pm_chg_driver.o)
    0x0801ef60   0x00000052   Code   RO         3200    i.pm_chg_is_battery_present  pmic_app_chg.lib(pm_app_chg_util.o)
    0x0801efb2   0x00000002   PAD
    0x0801efb4   0x00000050   Code   RO         2480    i.pm_chg_is_battery_weak  pmic_app_chg.lib(pm_app_chg_alg.o)
    0x0801f004   0x0000005a   Code   RO         3201    i.pm_chg_is_charger_present  pmic_app_chg.lib(pm_app_chg_util.o)
    0x0801f05e   0x00000060   Code   RO         3202    i.pm_chg_is_debug_board_present  pmic_app_chg.lib(pm_app_chg_util.o)
    0x0801f0be   0x00000002   PAD
    0x0801f0c0   0x00000054   Code   RO         2481    i.pm_chg_process_sbl_charger_states  pmic_app_chg.lib(pm_app_chg_alg.o)
    0x0801f114   0x00000098   Code   RO         2482    i.pm_chg_sbl_charging_initialize  pmic_app_chg.lib(pm_app_chg_alg.o)
    0x0801f1ac   0x0000003c   Code   RO         2483    i.pm_chg_sbl_charging_state_entry  pmic_app_chg.lib(pm_app_chg_alg.o)
    0x0801f1e8   0x00000114   Code   RO         2484    i.pm_chg_sdp_charging_state  pmic_app_chg.lib(pm_app_chg_alg.o)
    0x0801f2fc   0x00000030   Code   RO         2527    i.pm_chg_set_atc_led  pmic_drivers_chg.lib(pm_chg.o)
    0x0801f32c   0x0000003a   Code   RO         3203    i.pm_chg_set_battery_threshold  pmic_app_chg.lib(pm_app_chg_util.o)
    0x0801f366   0x00000024   Code   RO         3204    i.pm_chg_set_boot_done  pmic_app_chg.lib(pm_app_chg_util.o)
    0x0801f38a   0x00000030   Code   RO         3205    i.pm_chg_set_comp_override  pmic_app_chg.lib(pm_app_chg_util.o)
    0x0801f3ba   0x00000028   Code   RO         3206    i.pm_chg_set_ibat_atc_b  pmic_app_chg.lib(pm_app_chg_util.o)
    0x0801f3e2   0x00000030   Code   RO         3207    i.pm_chg_set_ibat_max  pmic_app_chg.lib(pm_app_chg_util.o)
    0x0801f412   0x00000028   Code   RO         3208    i.pm_chg_set_ibat_safe  pmic_app_chg.lib(pm_app_chg_util.o)
    0x0801f43a   0x00000028   Code   RO         3209    i.pm_chg_set_itrkl  pmic_app_chg.lib(pm_app_chg_util.o)
    0x0801f462   0x00000028   Code   RO         3210    i.pm_chg_set_iusb_max  pmic_app_chg.lib(pm_app_chg_util.o)
    0x0801f48a   0x00000030   Code   RO         3211    i.pm_chg_set_mode   pmic_app_chg.lib(pm_app_chg_util.o)
    0x0801f4ba   0x00000028   Code   RO         3212    i.pm_chg_set_vin_min  pmic_app_chg.lib(pm_app_chg_util.o)
    0x0801f4e2   0x00000002   PAD
    0x0801f4e4   0x000000ac   Code   RO         2485    i.pm_chg_shutdown_state  pmic_app_chg.lib(pm_app_chg_alg.o)
    0x0801f590   0x00000024   Code   RO         3213    i.pm_chg_stop_enum_timer  pmic_app_chg.lib(pm_app_chg_util.o)
    0x0801f5b4   0x00000012   Code   RO         3598    i.pm_clk_busy_wait  pmic_framework.lib(pm_utils.o)
    0x0801f5c6   0x00000002   PAD
    0x0801f5c8   0x00000134   Code   RO         3327    i.pm_clk_driver_init  pm_drivers_clks.lib(pm_clk_driver.o)
    0x0801f6fc   0x0000009c   Code   RO         3334    i.pm_coincell_driver_init  pmic_drivers_coincell.lib(pm_coincell_driver.o)
    0x0801f798   0x00000020   Code   RO         2522    i.pm_comm_get_comm_info  pmic_comm.lib(pm_comm.o)
    0x0801f7b8   0x00000058   Code   RO         2523    i.pm_comm_info_init  pmic_comm.lib(pm_comm.o)
    0x0801f810   0x00000026   Code   RO         2510    i.pm_comm_read_byte  pmic_comm_spmi_lite.lib(pm_comm_spmi_lite.o)
    0x0801f836   0x0000001e   Code   RO         2511    i.pm_comm_read_byte_array  pmic_comm_spmi_lite.lib(pm_comm_spmi_lite.o)
    0x0801f854   0x0000001c   Code   RO         2512    i.pm_comm_read_byte_mask  pmic_comm_spmi_lite.lib(pm_comm_spmi_lite.o)
    0x0801f870   0x00000022   Code   RO         2513    i.pm_comm_write_byte  pmic_comm_spmi_lite.lib(pm_comm_spmi_lite.o)
    0x0801f892   0x00000018   Code   RO         2514    i.pm_comm_write_byte_array  pmic_comm_spmi_lite.lib(pm_comm_spmi_lite.o)
    0x0801f8aa   0x00000056   Code   RO         2515    i.pm_comm_write_byte_mask  pmic_comm_spmi_lite.lib(pm_comm_spmi_lite.o)
    0x0801f900   0x00000308   Code   RO         1677    i.pm_device_init    pmic_target_sbl1_system.lib(pm_sbl_boot.o)
    0x0801fc08   0x00000010   Code   RO         1670    i.pm_driver_init    pmic_framework.lib(pm_init.o)
    0x0801fc18   0x00000020   Code   RO         1678    i.pm_driver_post_init  pmic_target_sbl1_system.lib(pm_sbl_boot.o)
    0x0801fc38   0x00000004   Code   RO         2585    i.pm_get_num_slaves_per_pmic  pmic_framework.lib(pm_version.o)
    0x0801fc3c   0x0000007c   Code   RO         2561    i.pm_get_pbs_info   pm_pbs_driver.lib(pm_pbs_info.o)
    0x0801fcb8   0x00000034   Code   RO         2586    i.pm_get_pmic_info  pmic_framework.lib(pm_version.o)
    0x0801fcec   0x00000028   Code   RO         2587    i.pm_get_pmic_model  pmic_framework.lib(pm_version.o)
    0x0801fd14   0x00000034   Code   RO         2589    i.pm_get_slave_id   pmic_framework.lib(pm_version.o)
    0x0801fd48   0x00000088   Code   RO         2486    i.pm_get_smb_by_pass_config  pmic_app_chg.lib(pm_app_chg_alg.o)
    0x0801fdd0   0x000000a0   Code   RO         3340    i.pm_gpio_driver_init  pmic_drivers_gpio.lib(pm_gpio_driver.o)
    0x0801fe70   0x00000078   Code   RO         3348    i.pm_ibb_driver_init  pmic_drivers_ibb.lib(pm_ibb_driver.o)
    0x0801fee8   0x00000078   Code   RO         3355    i.pm_lab_driver_init  pmic_drivers_lab.lib(pm_lab_driver.o)
    0x0801ff60   0x0000005c   Code   RO         3362    i.pm_lbc_chg_get_battery_present  pmic_drivers_lbc.lib(pm_lbc.o)
    0x0801ffbc   0x000000a8   Code   RO         3363    i.pm_lbc_chg_get_charger_present  pmic_drivers_lbc.lib(pm_lbc.o)
    0x08020064   0x0000004c   Code   RO         3364    i.pm_lbc_chg_get_chg_option  pmic_drivers_lbc.lib(pm_lbc.o)
    0x080200b0   0x00000052   Code   RO         3365    i.pm_lbc_chg_get_enum_timer_expired  pmic_drivers_lbc.lib(pm_lbc.o)
    0x08020102   0x0000004e   Code   RO         3366    i.pm_lbc_chg_get_enum_timer_staus  pmic_drivers_lbc.lib(pm_lbc.o)
    0x08020150   0x00000038   Code   RO         3367    i.pm_lbc_chg_set_atc_led  pmic_drivers_lbc.lib(pm_lbc.o)
    0x08020188   0x000000ca   Code   RO         3368    i.pm_lbc_chg_set_battery_threshold  pmic_drivers_lbc.lib(pm_lbc.o)
    0x08020252   0x0000003e   Code   RO         3369    i.pm_lbc_chg_set_boot_done  pmic_drivers_lbc.lib(pm_lbc.o)
    0x08020290   0x00000060   Code   RO         3370    i.pm_lbc_chg_set_comp_override  pmic_drivers_lbc.lib(pm_lbc.o)
    0x080202f0   0x00000044   Code   RO         3371    i.pm_lbc_chg_set_ibat_atc_b  pmic_drivers_lbc.lib(pm_lbc.o)
    0x08020334   0x00000064   Code   RO         3372    i.pm_lbc_chg_set_ibat_max  pmic_drivers_lbc.lib(pm_lbc.o)
    0x08020398   0x00000064   Code   RO         3373    i.pm_lbc_chg_set_ibat_safe  pmic_drivers_lbc.lib(pm_lbc.o)
    0x080203fc   0x00000054   Code   RO         3374    i.pm_lbc_chg_set_mode  pmic_drivers_lbc.lib(pm_lbc.o)
    0x08020450   0x0000004e   Code   RO         3377    i.pm_lbc_chg_set_vin_min  pmic_drivers_lbc.lib(pm_lbc.o)
    0x0802049e   0x0000003e   Code   RO         3378    i.pm_lbc_chg_stop_enum_timer  pmic_drivers_lbc.lib(pm_lbc.o)
    0x080204dc   0x0000009c   Code   RO         4218    i.pm_lbc_driver_init  pmic_drivers_lbc.lib(pm_lbc_driver.o)
    0x08020578   0x00000014   Code   RO         4219    i.pm_lbc_get_data   pmic_drivers_lbc.lib(pm_lbc_driver.o)
    0x0802058c   0x0000016c   Code   RO         3402    i.pm_ldo_driver_init  pm_ldo_driver.lib(pm_ldo_driver.o)
    0x080206f8   0x000000b6   Code   RO         3405    i.pm_ldo_get_range_setting_info  pm_ldo_driver.lib(pm_ldo_driver.o)
    0x080207ae   0x000000b6   Code   RO         3406    i.pm_ldo_get_volt_setting_info  pm_ldo_driver.lib(pm_ldo_driver.o)
    0x08020864   0x00000124   Code   RO         1606    i.pm_led_config     pmic_app_led.lib(pm_app_led.o)
    0x08020988   0x0000007c   Code   RO         1608    i.pm_led_enable     pmic_app_led.lib(pm_app_led.o)
    0x08020a04   0x00000010   Code   RO         1609    i.pm_led_get_default_led  pmic_app_led.lib(pm_app_led.o)
    0x08020a14   0x0000001c   Code   RO         1610    i.pm_led_get_led_info  pmic_app_led.lib(pm_app_led.o)
    0x08020a30   0x0000005c   Code   RO         3415    i.pm_lpg_config_pwm_type  pmic_drivers_lpg.lib(pm_lpg.o)
    0x08020a8c   0x0000009c   Code   RO         3450    i.pm_lpg_driver_init  pmic_drivers_lpg.lib(pm_lpg_driver.o)
    0x08020b28   0x00000014   Code   RO         3451    i.pm_lpg_get_data   pmic_drivers_lpg.lib(pm_lpg_driver.o)
    0x08020b3c   0x0000005c   Code   RO         3421    i.pm_lpg_pattern_config  pmic_drivers_lpg.lib(pm_lpg.o)
    0x08020b98   0x0000003e   Code   RO         3422    i.pm_lpg_pwm_clock_sel  pmic_drivers_lpg.lib(pm_lpg.o)
    0x08020bd6   0x00000044   Code   RO         3423    i.pm_lpg_pwm_enable  pmic_drivers_lpg.lib(pm_lpg.o)
    0x08020c1a   0x00000044   Code   RO         3428    i.pm_lpg_pwm_set_pre_divide  pmic_drivers_lpg.lib(pm_lpg.o)
    0x08020c5e   0x0000006e   Code   RO         3429    i.pm_lpg_pwm_set_pwm_value  pmic_drivers_lpg.lib(pm_lpg.o)
    0x08020ccc   0x00000060   Code   RO         3431    i.pm_lpg_set_pwm_bit_size  pmic_drivers_lpg.lib(pm_lpg.o)
    0x08020d2c   0x00000044   Code   RO         3601    i.pm_malloc         pmic_framework.lib(pm_utils.o)
    0x08020d70   0x000000ae   Code   RO         2529    i.pm_mpp_abus_pulldown  pmic_drivers_mpp.lib(pm_mpp.o)
    0x08020e1e   0x00000098   Code   RO         2530    i.pm_mpp_config_analog_input  pmic_drivers_mpp.lib(pm_mpp.o)
    0x08020eb6   0x000000a6   Code   RO         2538    i.pm_mpp_config_i_sink  pmic_drivers_mpp.lib(pm_mpp.o)
    0x08020f5c   0x00000036   Code   RO         2539    i.pm_mpp_configure_type  pmic_drivers_mpp.lib(pm_mpp.o)
    0x08020f92   0x00000002   PAD
    0x08020f94   0x00000104   Code   RO         3456    i.pm_mpp_driver_init  pmic_drivers_mpp.lib(pm_mpp_driver.o)
    0x08021098   0x0000003e   Code   RO         2540    i.pm_mpp_enable     pmic_drivers_mpp.lib(pm_mpp.o)
    0x080210d6   0x00000002   PAD
    0x080210d8   0x00000014   Code   RO         3457    i.pm_mpp_get_data   pmic_drivers_mpp.lib(pm_mpp_driver.o)
    0x080210ec   0x00000004   Code   RO         1671    i.pm_oem_init       pmic_framework.lib(pm_init.o)
    0x080210f0   0x000000ac   Code   RO         3477    i.pm_pbs_client_driver_init  pm_pbs_driver.lib(pm_pbs_client_driver.o)
    0x0802119c   0x0000004e   Code   RO         3465    i.pm_pbs_config_access  pm_pbs_driver.lib(pm_pbs_driver.o)
    0x080211ea   0x0000000c   Code   RO         3466    i.pm_pbs_disable_access  pm_pbs_driver.lib(pm_pbs_driver.o)
    0x080211f6   0x0000000c   Code   RO         3467    i.pm_pbs_enable_access  pm_pbs_driver.lib(pm_pbs_driver.o)
    0x08021202   0x00000002   PAD
    0x08021204   0x000000a8   Code   RO         2562    i.pm_pbs_info_init  pm_pbs_driver.lib(pm_pbs_info.o)
    0x080212ac   0x000001b8   Code   RO         2563    i.pm_pbs_info_misc_periph_read  pm_pbs_driver.lib(pm_pbs_info.o)
    0x08021464   0x00000134   Code   RO         2564    i.pm_pbs_info_rom_read  pm_pbs_driver.lib(pm_pbs_info.o)
    0x08021598   0x00000068   Code   RO         2565    i.pm_pbs_info_store_glb_ctxt  pm_pbs_driver.lib(pm_pbs_info.o)
    0x08021600   0x0000005e   Code   RO         3468    i.pm_pbs_ram_image_load  pm_pbs_driver.lib(pm_pbs_driver.o)
    0x0802165e   0x00000058   Code   RO         3469    i.pm_pbs_ram_image_verify  pm_pbs_driver.lib(pm_pbs_driver.o)
    0x080216b6   0x00000002   PAD
    0x080216b8   0x00000064   Code   RO         2573    i.pm_pbs_ram_version_validation_test  pmic_framework.lib(pm_config_sbl.o)
    0x0802171c   0x00000044   Code   RO         1623    i.pm_pon_get_all_pon_reasons  pmic_drivers_pon.lib(pm_pon.o)
    0x08021760   0x000000c8   Code   RO         1629    i.pm_pon_init       pmic_drivers_pon.lib(pm_pon.o)
    0x08021828   0x000000a8   Code   RO         1636    i.pm_pon_ps_hold_cfg  pmic_drivers_pon.lib(pm_pon.o)
    0x080218d0   0x000001a8   Code   RO         1637    i.pm_pon_reset_source_cfg  pmic_drivers_pon.lib(pm_pon.o)
    0x08021a78   0x00000054   Code   RO         1640    i.pm_pon_warm_reset_status  pmic_drivers_pon.lib(pm_pon.o)
    0x08021acc   0x0000002c   Code   RO         1641    i.pm_pon_warm_reset_status_clear  pmic_drivers_pon.lib(pm_pon.o)
    0x08021af8   0x00000078   Code   RO         3483    i.pm_pwm_driver_init  pmic_drivers_pwm.lib(pm_pwm_driver.o)
    0x08021b70   0x0000003c   Code   RO         2590    i.pm_resolve_chip_revision  pmic_framework.lib(pm_version.o)
    0x08021bac   0x000000ae   Code   RO         2616    i.pm_resource_manager_create_pmic_resource  pmic_framework.lib(pm_resource_manager.o)
    0x08021c5a   0x0000005c   Code   RO         2617    i.pm_resource_manager_init  pmic_framework.lib(pm_resource_manager.o)
    0x08021cb6   0x00000002   PAD
    0x08021cb8   0x0000009c   Code   RO         3496    i.pm_rgb_driver_init  pmic_drivers_rgb.lib(pm_rgb_driver.o)
    0x08021d54   0x000000a6   Code   RO         3490    i.pm_rgb_enable     pmic_drivers_rgb.lib(pm_rgb.o)
    0x08021dfa   0x00000002   PAD
    0x08021dfc   0x00000014   Code   RO         3497    i.pm_rgb_get_data   pmic_drivers_rgb.lib(pm_rgb_driver.o)
    0x08021e10   0x000000d0   Code   RO         2506    i.pm_rgb_led_config  pmic_app_rgb.lib(pm_app_rgb.o)
    0x08021ee0   0x0000004e   Code   RO         3492    i.pm_rgb_set_voltage_source  pmic_drivers_rgb.lib(pm_rgb.o)
    0x08021f2e   0x00000002   PAD
    0x08021f30   0x00000030   Code   RO         3502    i.pm_rtc_driver_init  pm_drivers_rtc.lib(pm_rtc_driver.o)
    0x08021f60   0x000000d8   Code   RO         2574    i.pm_sbl_config     pmic_framework.lib(pm_config_sbl.o)
    0x08022038   0x000001a4   Code   RO         2575    i.pm_sbl_config_test  pmic_framework.lib(pm_config_sbl.o)
    0x080221dc   0x0000003e   Code   RO         2576    i.pm_sbl_validate_reg_config  pmic_framework.lib(pm_config_sbl.o)
    0x0802221a   0x00000046   Code   RO         2577    i.pm_settings_validation_flag  pmic_framework.lib(pm_config_sbl.o)
    0x08022260   0x00000028   Code   RO         3518    i.pm_smb_deinit     pmic_drivers_smb.lib(pm_smb.o)
    0x08022288   0x00000058   Code   RO         3507    i.pm_smb_driver_init  pmic_drivers_smb.lib(pm_smb_driver.o)
    0x080222e0   0x00000014   Code   RO         3508    i.pm_smb_get_feature_list  pmic_drivers_smb.lib(pm_smb_driver.o)
    0x080222f4   0x0000000c   Code   RO         3509    i.pm_smb_get_info   pmic_drivers_smb.lib(pm_smb_driver.o)
    0x08022300   0x00000064   Code   RO         3522    i.pm_smb_init       pmic_drivers_smb.lib(pm_smb.o)
    0x08022364   0x000000c4   Code   RO         3523    i.pm_smb_set_ibat_fast  pmic_drivers_smb.lib(pm_smb.o)
    0x08022428   0x000000c4   Code   RO         3524    i.pm_smb_set_icl    pmic_drivers_smb.lib(pm_smb.o)
    0x080224ec   0x00000148   Code   RO         3525    i.pm_smb_set_icl_mode  pmic_drivers_smb.lib(pm_smb.o)
    0x08022634   0x000000a2   Code   RO         3544    i.pm_smbb_chg_get_attached_charger  pmic_drivers_smbb.lib(pm_smbb.o)
    0x080226d6   0x0000008a   Code   RO         3545    i.pm_smbb_chg_get_battery_present  pmic_drivers_smbb.lib(pm_smbb.o)
    0x08022760   0x00000038   Code   RO         3548    i.pm_smbb_chg_set_atc_led  pmic_drivers_smbb.lib(pm_smbb.o)
    0x08022798   0x000000cc   Code   RO         3549    i.pm_smbb_chg_set_battery_threshold  pmic_drivers_smbb.lib(pm_smbb.o)
    0x08022864   0x0000006c   Code   RO         3550    i.pm_smbb_chg_set_comp_override  pmic_drivers_smbb.lib(pm_smbb.o)
    0x080228d0   0x0000005e   Code   RO         3551    i.pm_smbb_chg_set_ibat_max  pmic_drivers_smbb.lib(pm_smbb.o)
    0x0802292e   0x0000005a   Code   RO         3552    i.pm_smbb_chg_set_itrkl  pmic_drivers_smbb.lib(pm_smbb.o)
    0x08022988   0x000000bc   Code   RO         3553    i.pm_smbb_chg_set_iusb_max  pmic_drivers_smbb.lib(pm_smbb.o)
    0x08022a44   0x000000ae   Code   RO         3554    i.pm_smbb_chg_set_mode  pmic_drivers_smbb.lib(pm_smbb.o)
    0x08022af2   0x00000002   PAD
    0x08022af4   0x000000a0   Code   RO         4224    i.pm_smbb_driver_init  pmic_drivers_smbb.lib(pm_smbb_driver.o)
    0x08022b94   0x00000014   Code   RO         4225    i.pm_smbb_get_data  pmic_drivers_smbb.lib(pm_smbb_driver.o)
    0x08022ba8   0x00000034   Code   RO         1674    i.pm_smem_init      pmic_framework.lib(pm_sbl_smem.o)
    0x08022bdc   0x00000248   Code   RO         3568    i.pm_smps_driver_init  pmic_drivers_buck_concrete_v6.lib(pm_smps_driver.o)
    0x08022e24   0x00000024   Code   RO         2601    i.pm_target_information_get_common_info  pmic_framework.lib(pm_target_information.o)
    0x08022e48   0x00000024   Code   RO         2602    i.pm_target_information_get_periph_count_info  pmic_framework.lib(pm_target_information.o)
    0x08022e6c   0x00000024   Code   RO         2603    i.pm_target_information_get_specific_info  pmic_framework.lib(pm_target_information.o)
    0x08022e90   0x00000160   Code   RO         2604    i.pm_target_information_init  pmic_framework.lib(pm_target_information.o)
    0x08022ff0   0x00000084   Code   RO         2605    i.pm_target_information_read_peripheral_rev  pmic_framework.lib(pm_target_information.o)
    0x08023074   0x00000090   Code   RO         2606    i.pm_target_information_spmi_chnl_cfg  pmic_framework.lib(pm_target_information.o)
    0x08023104   0x00000046   Code   RO         1642    i.pm_utils_get_upper_idx  pmic_drivers_pon.lib(pm_pon.o)
    0x0802314a   0x00000002   PAD
    0x0802314c   0x00000108   Code   RO         2591    i.pm_version_detect  pmic_framework.lib(pm_version.o)
    0x08023254   0x000000b0   Code   RO         3576    i.pm_vib_driver_init  pmic_drivers_vib.lib(pm_vib_driver.o)
    0x08023304   0x00000114   Code   RO         3582    i.pm_vs_driver_init  pmic_drivers_vs.lib(pm_vs_driver.o)
    0x08023418   0x0000007c   Code   RO         3590    i.pm_wled_driver_init  pmic_drivers_wled.lib(pm_wled_driver.o)
    0x08023494   0x0000001e   Code   RO         1618    i.pmapp_ps_hold_cfg  pmic_app_pon.lib(pm_app_pon.o)
    0x080234b2   0x00000002   PAD
    0x080234b4   0x00000070   Code   RO         1938    i.pmicArbIsr        Spmi.lib(PmicArb.o)
    0x08023524   0x0000001c   Code   RO         1290    i.ppidCmpr          Spmi.lib(SpmiCfg.o)
    0x08023540   0x00000104   Code   RO         2716    i.prepare_TDs_for_transfer  qhsusb_bulk_chg.lib(qhsusb_dci.o)
    0x08023644   0x00000094   Code   RO         2955    i.process_tx_data   UART.lib(Uart.o)
    0x080236d8   0x00000006   Code   RO         1683    i.qhsusb_al_bulk_get_max_packet_size  qhsusb_bulk_chg.lib(qhsusb_al_bulk.o)
    0x080236de   0x00000006   Code   RO         1684    i.qhsusb_al_bulk_get_max_raw_data_size  qhsusb_bulk_chg.lib(qhsusb_al_bulk.o)
    0x080236e4   0x00000030   Code   RO         1685    i.qhsusb_al_bulk_handle_rx_zlp_mode  qhsusb_bulk_chg.lib(qhsusb_al_bulk.o)
    0x08023714   0x000000c4   Code   RO         1686    i.qhsusb_al_bulk_init  qhsusb_bulk_chg.lib(qhsusb_al_bulk.o)
    0x080237d8   0x00000074   Code   RO         1687    i.qhsusb_al_bulk_poll  qhsusb_bulk_chg.lib(qhsusb_al_bulk.o)
    0x0802384c   0x000000c0   Code   RO         1688    i.qhsusb_al_bulk_receive  qhsusb_bulk_chg.lib(qhsusb_al_bulk.o)
    0x0802390c   0x0000003c   Code   RO         1689    i.qhsusb_al_bulk_receive_zlp  qhsusb_bulk_chg.lib(qhsusb_al_bulk.o)
    0x08023948   0x00000178   Code   RO         1690    i.qhsusb_al_bulk_rx_complete  qhsusb_bulk_chg.lib(qhsusb_al_bulk.o)
    0x08023ac0   0x00000030   Code   RO         1692    i.qhsusb_al_bulk_setup_timer  qhsusb_bulk_chg.lib(qhsusb_al_bulk.o)
    0x08023af0   0x00000044   Code   RO         1693    i.qhsusb_al_bulk_shutdown  qhsusb_bulk_chg.lib(qhsusb_al_bulk.o)
    0x08023b34   0x00000028   Code   RO         1694    i.qhsusb_al_bulk_start_timer  qhsusb_bulk_chg.lib(qhsusb_al_bulk.o)
    0x08023b5c   0x00000018   Code   RO         1695    i.qhsusb_al_bulk_stop_timer  qhsusb_bulk_chg.lib(qhsusb_al_bulk.o)
    0x08023b74   0x00000088   Code   RO         1696    i.qhsusb_al_bulk_transmit  qhsusb_bulk_chg.lib(qhsusb_al_bulk.o)
    0x08023bfc   0x00000018   Code   RO         1697    i.qhsusb_al_bulk_tx_complete  qhsusb_bulk_chg.lib(qhsusb_al_bulk.o)
    0x08023c14   0x00000004   Code   RO         1698    i.qhsusb_al_check_for_pbl_dload  qhsusb_bulk_chg.lib(qhsusb_al_bulk.o)
    0x08023c18   0x00000038   Code   RO         1699    i.qhsusb_al_check_timer_for_expiry  qhsusb_bulk_chg.lib(qhsusb_al_bulk.o)
    0x08023c50   0x00000014   Code   RO         3619    i.qhsusb_al_chg_deinit  qhsusb_bulk_chg.lib(qhsusb_al_charger.o)
    0x08023c64   0x00000016   Code   RO         3620    i.qhsusb_al_chg_disconnect_from_host  qhsusb_bulk_chg.lib(qhsusb_al_charger.o)
    0x08023c7a   0x00000084   Code   RO         3621    i.qhsusb_al_chg_enumerate_usb  qhsusb_bulk_chg.lib(qhsusb_al_charger.o)
    0x08023cfe   0x00000014   Code   RO         3622    i.qhsusb_al_chg_get_charger_port_type  qhsusb_bulk_chg.lib(qhsusb_al_charger.o)
    0x08023d12   0x00000002   PAD
    0x08023d14   0x0000002c   Code   RO         3623    i.qhsusb_al_chg_init  qhsusb_bulk_chg.lib(qhsusb_al_charger.o)
    0x08023d40   0x0000001a   Code   RO         3624    i.qhsusb_al_chg_is_vbus_present  qhsusb_bulk_chg.lib(qhsusb_al_charger.o)
    0x08023d5a   0x00000002   PAD
    0x08023d5c   0x00000078   Code   RO         3625    i.qhsusb_al_chg_poll  qhsusb_bulk_chg.lib(qhsusb_al_charger.o)
    0x08023dd4   0x00000004   Code   RO         3626    i.qhsusb_al_chg_should_chg_be_on  qhsusb_bulk_chg.lib(qhsusb_al_charger.o)
    0x08023dd8   0x0000000c   Code   RO         1700    i.qhsusb_al_disconnect_handler  qhsusb_bulk_chg.lib(qhsusb_al_bulk.o)
    0x08023de4   0x00000018   Code   RO         1701    i.qhsusb_al_enum_complete  qhsusb_bulk_chg.lib(qhsusb_al_bulk.o)
    0x08023dfc   0x00000004   Code   RO         3609    i.qhsusb_boot_dload_get_dload_info_ptr  qhsusb_bulk_chg.lib(qhsusb_boot_dload.o)
    0x08023e00   0x0000001c   Code   RO         3611    i.qhsusb_boot_dload_is_dload_info_pid_valid  qhsusb_bulk_chg.lib(qhsusb_boot_dload.o)
    0x08023e1c   0x0000001c   Code   RO         3612    i.qhsusb_boot_dload_is_dload_info_serial_num_valid  qhsusb_bulk_chg.lib(qhsusb_boot_dload.o)
    0x08023e38   0x0000002a   Code   RO         2677    i.qhsusb_dcd_control_transfer  qhsusb_bulk_chg.lib(qhsusb_dcd_ch9.o)
    0x08023e62   0x00000002   PAD
    0x08023e64   0x00000060   Code   RO         2678    i.qhsusb_dcd_init   qhsusb_bulk_chg.lib(qhsusb_dcd_ch9.o)
    0x08023ec4   0x0000000c   Code   RO         2680    i.qhsusb_dcd_poll   qhsusb_bulk_chg.lib(qhsusb_dcd_ch9.o)
    0x08023ed0   0x000000b8   Code   RO         2681    i.qhsusb_dcd_port_status_changed  qhsusb_bulk_chg.lib(qhsusb_dcd_ch9.o)
    0x08023f88   0x000000dc   Code   RO         2682    i.qhsusb_dcd_set_config  qhsusb_bulk_chg.lib(qhsusb_dcd_ch9.o)
    0x08024064   0x0000003c   Code   RO         2683    i.qhsusb_dcd_shutdown  qhsusb_bulk_chg.lib(qhsusb_dcd_ch9.o)
    0x080240a0   0x000000b0   Code   RO         2717    i.qhsusb_dci_cancel_transfer  qhsusb_bulk_chg.lib(qhsusb_dci.o)
    0x08024150   0x00000050   Code   RO         2718    i.qhsusb_dci_cancel_transfer_wo_dqh_dtd  qhsusb_bulk_chg.lib(qhsusb_dci.o)
    0x080241a0   0x000000f0   Code   RO         2800    i.qhsusb_dci_check_for_pbl_dload  qhsusb_bulk_chg.lib(qhsusb_dci_8909.o)
    0x08024290   0x00000004   Code   RO         2838    i.qhsusb_dci_clk_disable  qhsusb_bulk_chg.lib(qhsusb_dci_8909_hw_apis_sbl1.o)
    0x08024294   0x00000004   Code   RO         2839    i.qhsusb_dci_clk_enable  qhsusb_bulk_chg.lib(qhsusb_dci_8909_hw_apis_sbl1.o)
    0x08024298   0x0000000a   Code   RO         2840    i.qhsusb_dci_clk_is_usb_system_clk_on  qhsusb_bulk_chg.lib(qhsusb_dci_8909_hw_apis_sbl1.o)
    0x080242a2   0x00000002   PAD
    0x080242a4   0x000000a4   Code   RO         2719    i.qhsusb_dci_config_endpoint  qhsusb_bulk_chg.lib(qhsusb_dci.o)
    0x08024348   0x0000001c   Code   RO         2801    i.qhsusb_dci_connect  qhsusb_bulk_chg.lib(qhsusb_dci_8909.o)
    0x08024364   0x00000002   Code   RO         2841    i.qhsusb_dci_dcache_flush  qhsusb_bulk_chg.lib(qhsusb_dci_8909_hw_apis_sbl1.o)
    0x08024366   0x00000002   Code   RO         2842    i.qhsusb_dci_dcache_inval  qhsusb_bulk_chg.lib(qhsusb_dci_8909_hw_apis_sbl1.o)
    0x08024368   0x0000001a   Code   RO         2843    i.qhsusb_dci_delay_ms  qhsusb_bulk_chg.lib(qhsusb_dci_8909_hw_apis_sbl1.o)
    0x08024382   0x00000004   Code   RO         2844    i.qhsusb_dci_delay_us  qhsusb_bulk_chg.lib(qhsusb_dci_8909_hw_apis_sbl1.o)
    0x08024386   0x0000000a   Code   RO         2720    i.qhsusb_dci_detect_charger_type  qhsusb_bulk_chg.lib(qhsusb_dci.o)
    0x08024390   0x0000001c   Code   RO         2802    i.qhsusb_dci_disconnect  qhsusb_bulk_chg.lib(qhsusb_dci_8909.o)
    0x080243ac   0x0000004c   Code   RO         2721    i.qhsusb_dci_enable_test_mode  qhsusb_bulk_chg.lib(qhsusb_dci.o)
    0x080243f8   0x00000010   Code   RO         2723    i.qhsusb_dci_get_line_state  qhsusb_bulk_chg.lib(qhsusb_dci.o)
    0x08024408   0x00000010   Code   RO         2724    i.qhsusb_dci_get_speed  qhsusb_bulk_chg.lib(qhsusb_dci.o)
    0x08024418   0x000000b4   Code   RO         2726    i.qhsusb_dci_init   qhsusb_bulk_chg.lib(qhsusb_dci.o)
    0x080244cc   0x0000001c   Code   RO         2803    i.qhsusb_dci_is_attached  qhsusb_bulk_chg.lib(qhsusb_dci_8909.o)
    0x080244e8   0x00000014   Code   RO         2727    i.qhsusb_dci_is_suspended  qhsusb_bulk_chg.lib(qhsusb_dci.o)
    0x080244fc   0x00000004   Code   RO         2805    i.qhsusb_dci_is_wall_charger  qhsusb_bulk_chg.lib(qhsusb_dci_8909.o)
    0x08024500   0x000000e4   Code   RO         2728    i.qhsusb_dci_poll_events  qhsusb_bulk_chg.lib(qhsusb_dci.o)
    0x080245e4   0x00000014   Code   RO         2729    i.qhsusb_dci_read_scratch  qhsusb_bulk_chg.lib(qhsusb_dci.o)
    0x080245f8   0x0000001c   Code   RO         2730    i.qhsusb_dci_set_address  qhsusb_bulk_chg.lib(qhsusb_dci.o)
    0x08024614   0x0000000c   Code   RO         2731    i.qhsusb_dci_set_enum_flag  qhsusb_bulk_chg.lib(qhsusb_dci.o)
    0x08024620   0x0000000c   Code   RO         2732    i.qhsusb_dci_set_max_packet_size  qhsusb_bulk_chg.lib(qhsusb_dci.o)
    0x0802462c   0x00000010   Code   RO         2733    i.qhsusb_dci_set_runstop_bit  qhsusb_bulk_chg.lib(qhsusb_dci.o)
    0x0802463c   0x00000060   Code   RO         2734    i.qhsusb_dci_shutdown  qhsusb_bulk_chg.lib(qhsusb_dci.o)
    0x0802469c   0x00000058   Code   RO         2735    i.qhsusb_dci_stall_endpoint  qhsusb_bulk_chg.lib(qhsusb_dci.o)
    0x080246f4   0x0000004c   Code   RO         2736    i.qhsusb_dci_start_timer  qhsusb_bulk_chg.lib(qhsusb_dci.o)
    0x08024740   0x000000c0   Code   RO         2738    i.qhsusb_dci_transfer_request  qhsusb_bulk_chg.lib(qhsusb_dci.o)
    0x08024800   0x00000044   Code   RO         2739    i.qhsusb_dci_ulpi_read  qhsusb_bulk_chg.lib(qhsusb_dci.o)
    0x08024844   0x0000005c   Code   RO         2807    i.qhsusb_dci_ulpi_read_with_err_check  qhsusb_bulk_chg.lib(qhsusb_dci_8909.o)
    0x080248a0   0x0000005c   Code   RO         2740    i.qhsusb_dci_ulpi_write  qhsusb_bulk_chg.lib(qhsusb_dci.o)
    0x080248fc   0x0000004c   Code   RO         2741    i.qhsusb_dci_unconfig_endpoint  qhsusb_bulk_chg.lib(qhsusb_dci.o)
    0x08024948   0x00000064   Code   RO         2742    i.qhsusb_dci_unstall_endpoint  qhsusb_bulk_chg.lib(qhsusb_dci.o)
    0x080249ac   0x0000004c   Code   RO         2808    i.qhsusb_dci_usb_hw_reset  qhsusb_bulk_chg.lib(qhsusb_dci_8909.o)
    0x080249f8   0x00000010   Code   RO         2743    i.qhsusb_dci_write_scratch  qhsusb_bulk_chg.lib(qhsusb_dci.o)
    0x08024a08   0x0000001c   Code   RO         4265    i.qhsusb_fd_chg_detect_charger_type  qhsusb_bulk_chg.lib(qhsusb_fd_chg.o)
    0x08024a24   0x00000050   Code   RO         4267    i.qhsusb_fd_chg_init  qhsusb_bulk_chg.lib(qhsusb_fd_chg.o)
    0x08024a74   0x0000000c   Code   RO         4268    i.qhsusb_fd_chg_shutdown  qhsusb_bulk_chg.lib(qhsusb_fd_chg.o)
    0x08024a80   0x00000004   Code   RO         2625    i.qhsusb_fd_hdlc_bulk_in_progress  qhsusb_bulk_chg.lib(qhsusb_fd_hdlc.o)
    0x08024a84   0x000001f4   Code   RO         2627    i.qhsusb_fd_hdlc_init  qhsusb_bulk_chg.lib(qhsusb_fd_hdlc.o)
    0x08024c78   0x0000006c   Code   RO         2631    i.qhsusb_fd_hdlc_rx_pkt  qhsusb_bulk_chg.lib(qhsusb_fd_hdlc.o)
    0x08024ce4   0x0000002c   Code   RO         2632    i.qhsusb_fd_hdlc_set_core  qhsusb_bulk_chg.lib(qhsusb_fd_hdlc.o)
    0x08024d10   0x0000001c   Code   RO         2633    i.qhsusb_fd_hdlc_shutdown  qhsusb_bulk_chg.lib(qhsusb_fd_hdlc.o)
    0x08024d2c   0x000000d8   Code   RO         2635    i.qhsusb_fd_hdlc_tx_pkt  qhsusb_bulk_chg.lib(qhsusb_fd_hdlc.o)
    0x08024e04   0x00000078   Code   RO         2636    i.qhsusb_fd_hdlc_update_pid_and_serial_number_string  qhsusb_bulk_chg.lib(qhsusb_fd_hdlc.o)
    0x08024e7c   0x00000014   Code   RO         2638    i.qhsusb_fd_set_bulk_mode  qhsusb_bulk_chg.lib(qhsusb_fd_hdlc.o)
    0x08024e90   0x00000008   Code   RO         2809    i.qhsusb_get_shared_imem_address  qhsusb_bulk_chg.lib(qhsusb_dci_8909.o)
    0x08024e98   0x0000000c   Code   RO         2684    i.qhsusb_is_device_configured  qhsusb_bulk_chg.lib(qhsusb_dcd_ch9.o)
    0x08024ea4   0x00000030   Code   RO         2856    i.qhsusb_log        qhsusb_bulk_chg.lib(qhsusb_log.o)
    0x08024ed4   0x00000010   Code   RO         2744    i.qhsusb_loop_here  qhsusb_bulk_chg.lib(qhsusb_dci.o)
    0x08024ee4   0x00000030   Code   RO         2685    i.qhsusb_submit_urb  qhsusb_bulk_chg.lib(qhsusb_dcd_ch9.o)
    0x08024f14   0x000000dc   Code   RO          232    i.qmemcpy           boot_util.lib(boot_util.o)
    0x08024ff0   0x0000001c   Code   RO          895    i.qsee_is_memory_dump_allowed  seccfg.lib(seccfg.o)
    0x0802500c   0x00000014   Code   RO          896    i.qsee_is_retail_unlocked  seccfg.lib(seccfg.o)
    0x08025020   0x0000016c   Code   RO           95    i.qsee_jump_func    sbl1_config.o
    0x0802518c   0x000000c8   Code   RO          220    i.qsee_zero_peripheral_memory  seccfg_memset_pheripheral.o
    0x08025254   0x0000002c   Code   RO          897    i.query_ddr_map     seccfg.lib(seccfg.o)
    0x08025280   0x000000c6   Code   RO         2957    i.register_init     UART.lib(Uart.o)
    0x08025346   0x00000002   PAD
    0x08025348   0x00000048   Code   RO           96    i.rpm_load_cancel   sbl1_config.o
    0x08025390   0x0000001e   Code   RO         2958    i.rx_transfer_start  UART.lib(Uart.o)
    0x080253ae   0x00000002   PAD
    0x080253b0   0x00000058   Code   RO            9    i.sbl1_boot_logger_deinit  sbl1_mc.o
    0x08025408   0x00000038   Code   RO           10    i.sbl1_cleanse_security_regions  sbl1_mc.o
    0x08025440   0x000000dc   Code   RO           73    i.sbl1_ddr_init     sbl1_hw.o
    0x0802551c   0x00000188   Code   RO           74    i.sbl1_ddr_set_params  sbl1_hw.o
    0x080256a4   0x00000002   Code   RO           75    i.sbl1_ddr_set_params_enhance  sbl1_hw.o
    0x080256a6   0x00000002   PAD
    0x080256a8   0x00000020   Code   RO           11    i.sbl1_ddr_zi_init  sbl1_mc.o
    0x080256c8   0x0000002c   Code   RO           66    i.sbl1_dload_entry  sbl1_target.o
    0x080256f4   0x00000058   Code   RO           12    i.sbl1_efs_handle_cookies  sbl1_mc.o
    0x0802574c   0x00000030   Code   RO           76    i.sbl1_hw_deinit    sbl1_hw.o
    0x0802577c   0x00000004   Code   RO           77    i.sbl1_hw_dload_init  sbl1_hw.o
    0x08025780   0x0000000c   Code   RO           78    i.sbl1_hw_get_reset_status  sbl1_hw.o
    0x0802578c   0x000000a8   Code   RO           79    i.sbl1_hw_init      sbl1_hw.o
    0x08025834   0x000000b4   Code   RO           80    i.sbl1_hw_init_secondary  sbl1_hw.o
    0x080258e8   0x00000084   Code   RO           13    i.sbl1_hw_platform_pre_ddr  sbl1_mc.o
    0x0802596c   0x0000003c   Code   RO           14    i.sbl1_hw_platform_smem  sbl1_mc.o
    0x080259a8   0x0000004c   Code   RO           15    i.sbl1_init_sbl_qsee_interface  sbl1_mc.o
    0x080259f4   0x0000005c   Code   RO           81    i.sbl1_load_ddr_training_data  sbl1_hw.o
    0x08025a50   0x0000009c   Code   RO           16    i.sbl1_load_ddr_training_data_from_partition  sbl1_mc.o
    0x08025aec   0x00000108   Code   RO           17    i.sbl1_load_sec_partition  sbl1_mc.o
    0x08025bf4   0x0000018c   Code   RO           18    i.sbl1_main_ctl     sbl1_mc.o
    0x08025d80   0x0000005c   Code   RO           19    i.sbl1_populate_initial_mem_map  sbl1_mc.o
    0x08025ddc   0x0000003c   Code   RO           20    i.sbl1_post_ddr_init  sbl1_mc.o
    0x08025e18   0x0000001c   Code   RO           21    i.sbl1_post_ddr_training_init  sbl1_mc.o
    0x08025e34   0x000000b8   Code   RO           22    i.sbl1_relocate_page_table_to_ddr  sbl1_mc.o
    0x08025eec   0x00000098   Code   RO           23    i.sbl1_retrieve_shared_info_from_pbl  sbl1_mc.o
    0x08025f84   0x00000044   Code   RO           24    i.sbl1_save_ddr_training_data_to_partition  sbl1_mc.o
    0x08025fc8   0x00000030   Code   RO           25    i.sbl1_tlmm_init    sbl1_mc.o
    0x08025ff8   0x000000b0   Code   RO           26    i.sbl1_update_ddr_page_table  sbl1_mc.o
    0x080260a8   0x00000070   Code   RO           97    i.sbl1_update_partition_ids  sbl1_config.o
    0x08026118   0x000000cc   Code   RO           82    i.sbl1_wait_for_ddr_training  sbl1_hw.o
    0x080261e4   0x00000004   Code   RO          136    i.sbl_elf_optimized_segment_load  sbl1_sahara.o
    0x080261e8   0x00000068   Code   RO           27    i.sbl_error_handler  sbl1_mc.o
    0x08026250   0x00000044   Code   RO          137    i.sbl_sahara_authenticate  sbl1_sahara.o
    0x08026294   0x00000018   Code   RO          138    i.sbl_sahara_bulk_init  sbl1_sahara.o
    0x080262ac   0x00000010   Code   RO          139    i.sbl_sahara_check  sbl1_sahara.o
    0x080262bc   0x0000006c   Code   RO          140    i.sbl_sahara_clear_downloaded_data  sbl1_sahara.o
    0x08026328   0x0000003c   Code   RO          141    i.sbl_sahara_compare_hash  sbl1_sahara.o
    0x08026364   0x000000b4   Code   RO          142    i.sbl_sahara_elf_compute_hash_offsets  sbl1_sahara.o
    0x08026418   0x000000d0   Code   RO          143    i.sbl_sahara_entry  sbl1_sahara.o
    0x080264e8   0x0000003c   Code   RO          144    i.sbl_sahara_exec_cmd  sbl1_sahara.o
    0x08026524   0x00000028   Code   RO          145    i.sbl_sahara_finalize_hash  sbl1_sahara.o
    0x0802654c   0x00000004   Code   RO          146    i.sbl_sahara_get_bin_cert_chain_size  sbl1_sahara.o
    0x08026550   0x00000004   Code   RO          147    i.sbl_sahara_get_bin_code_size  sbl1_sahara.o
    0x08026554   0x00000004   Code   RO          148    i.sbl_sahara_get_bin_header_size  sbl1_sahara.o
    0x08026558   0x00000004   Code   RO          149    i.sbl_sahara_get_bin_image_dest  sbl1_sahara.o
    0x0802655c   0x00000004   Code   RO          150    i.sbl_sahara_get_bin_image_id  sbl1_sahara.o
    0x08026560   0x00000004   Code   RO          151    i.sbl_sahara_get_bin_image_size  sbl1_sahara.o
    0x08026564   0x00000004   Code   RO          152    i.sbl_sahara_get_bin_image_src  sbl1_sahara.o
    0x08026568   0x00000004   Code   RO          153    i.sbl_sahara_get_bin_signature_size  sbl1_sahara.o
    0x0802656c   0x00000008   Code   RO          155    i.sbl_sahara_get_interface  sbl1_sahara.o
    0x08026574   0x00000028   Code   RO          156    i.sbl_sahara_get_orig_hash_index  sbl1_sahara.o
    0x0802659c   0x00000004   Code   RO          158    i.sbl_sahara_image_load_post_proc  sbl1_sahara.o
    0x080265a0   0x00000024   Code   RO          159    i.sbl_sahara_init_hash  sbl1_sahara.o
    0x080265c4   0x00000018   Code   RO          160    i.sbl_sahara_is_auth_enabled  sbl1_sahara.o
    0x080265dc   0x00000024   Code   RO          161    i.sbl_sahara_mem_debug_copy_restricted  sbl1_sahara.o
    0x08026600   0x00000028   Code   RO          162    i.sbl_sahara_preprocess_header  sbl1_sahara.o
    0x08026628   0x0000003c   Code   RO          163    i.sbl_sahara_reset  sbl1_sahara.o
    0x08026664   0x00000004   Code   RO          164    i.sbl_sahara_rx_bulk  sbl1_sahara.o
    0x08026668   0x00000002   Code   RO          165    i.sbl_sahara_set_shutdown_mode  sbl1_sahara.o
    0x0802666a   0x00000002   PAD
    0x0802666c   0x00000020   Code   RO          166    i.sbl_sahara_skip_image_load  sbl1_sahara.o
    0x0802668c   0x00000014   Code   RO          167    i.sbl_sahara_unrecoverable_error_handler  sbl1_sahara.o
    0x080266a0   0x00000020   Code   RO          168    i.sbl_sahara_update_hash  sbl1_sahara.o
    0x080266c0   0x00000030   Code   RO          169    i.sbl_sahara_verify_hash  sbl1_sahara.o
    0x080266f0   0x0000026c   Code   RO         2332    i.secboot_authenticate  secboot_auth.lib(secboot.o)
    0x0802695c   0x000000d4   Code   RO         1534    i.secboot_authenticate_image  secboot_auth.lib(secboot_util.o)
    0x08026a30   0x00000044   Code   RO         2380    i.secboot_cal_cert_num  secboot_auth.lib(secboot_x509.o)
    0x08026a74   0x00000014   Code   RO         2333    i.secboot_deinit    secboot_auth.lib(secboot.o)
    0x08026a88   0x0000002c   Code   RO         2334    i.secboot_get_ftbl  secboot_auth.lib(secboot.o)
    0x08026ab4   0x00000056   Code   RO         1535    i.secboot_get_fuse_info_from_image  secboot_auth.lib(secboot_util.o)
    0x08026b0a   0x00000002   PAD
    0x08026b0c   0x000000e8   Code   RO         2335    i.secboot_hash      secboot_auth.lib(secboot.o)
    0x08026bf4   0x0000013c   Code   RO         2336    i.secboot_hash_certificates  secboot_auth.lib(secboot.o)
    0x08026d30   0x00000064   Code   RO         2405    i.secboot_hw_get_auth_id  secboot_auth.lib(secboot_hw.o)
    0x08026d94   0x0000003c   Code   RO         2406    i.secboot_hw_get_ftbl  secboot_auth.lib(secboot_hw.o)
    0x08026dd0   0x0000001e   Code   RO         2407    i.secboot_hw_get_is_hash_in_fuse  secboot_auth.lib(secboot_hw.o)
    0x08026dee   0x00000040   Code   RO         2408    i.secboot_hw_get_msm_hw_id  secboot_auth.lib(secboot_hw.o)
    0x08026e2e   0x0000007c   Code   RO         2409    i.secboot_hw_get_root_cert_info  secboot_auth.lib(secboot_hw.o)
    0x08026eaa   0x00000016   Code   RO         3101    i.secboot_hw_get_root_cert_sel  secboot_auth.lib(secboot_hw_apps.o)
    0x08026ec0   0x000000ac   Code   RO         2410    i.secboot_hw_get_root_of_trust  secboot_auth.lib(secboot_hw.o)
    0x08026f6c   0x00000016   Code   RO         2411    i.secboot_hw_get_serial_num  secboot_auth.lib(secboot_hw.o)
    0x08026f82   0x0000001e   Code   RO         2412    i.secboot_hw_get_use_serial_num  secboot_auth.lib(secboot_hw.o)
    0x08026fa0   0x00000062   Code   RO         2413    i.secboot_hw_is_auth_enabled  secboot_auth.lib(secboot_hw.o)
    0x08027002   0x00000002   PAD
    0x08027004   0x00000034   Code   RO         2414    i.secboot_hw_update_and_read_root_cert_sel  secboot_auth.lib(secboot_hw.o)
    0x08027038   0x000000a0   Code   RO         2337    i.secboot_init      secboot_auth.lib(secboot.o)
    0x080270d8   0x00000024   Code   RO         2338    i.secboot_init_fuses  secboot_auth.lib(secboot.o)
    0x080270fc   0x00000012   Code   RO         2339    i.secboot_log       secboot_auth.lib(secboot.o)
    0x0802710e   0x000000bc   Code   RO         2340    i.secboot_read_hw_fuses  secboot_auth.lib(secboot.o)
    0x080271ca   0x00000002   PAD
    0x080271cc   0x000000e8   Code   RO         2341    i.secboot_verify_cert_chain  secboot_auth.lib(secboot.o)
    0x080272b4   0x00000288   Code   RO         2342    i.secboot_verify_cert_signature  secboot_auth.lib(secboot.o)
    0x0802753c   0x00000040   Code   RO         2343    i.secboot_verify_exponent  secboot_auth.lib(secboot.o)
    0x0802757c   0x000003dc   Code   RO         2344    i.secboot_verify_image_signature  secboot_auth.lib(secboot.o)
    0x08027958   0x0000005e   Code   RO         3104    i.secmath_BIGINT_modexp  secmath.lib(secmath_mod_exp.o)
    0x080279b6   0x0000006e   Code   RO         3107    i.secmath_BIGINT_read_unsigned_bin  secmath.lib(secmath_BIGINT_read_unsigned_bin.o)
    0x08027a24   0x00000084   Code   RO         1291    i.shellSort         Spmi.lib(SpmiCfg.o)
    0x08027aa8   0x0000006c   Code   RO         3526    i.smb_read          pmic_drivers_smb.lib(pm_smb.o)
    0x08027b14   0x00000054   Code   RO         3527    i.smb_write         pmic_drivers_smb.lib(pm_smb.o)
    0x08027b68   0x00000028   Code   RO         3528    i.smb_write_mask    pmic_drivers_smb.lib(pm_smb.o)
    0x08027b90   0x00000020   Code   RO         2230    i.smem_alloc        smem_boot.lib(smem.o)
    0x08027bb0   0x00000134   Code   RO         2232    i.smem_alloc_dynamic  smem_boot.lib(smem.o)
    0x08027ce4   0x00000060   Code   RO         2234    i.smem_alloc_static  smem_boot.lib(smem.o)
    0x08027d44   0x00000020   Code   RO         2273    i.smem_boot_debug_init  smem_boot.lib(smem_boot.o)
    0x08027d64   0x000000f4   Code   RO         2274    i.smem_boot_init    smem_boot.lib(smem_boot.o)
    0x08027e58   0x00000004   Code   RO         3012    i.smem_ext_get_smem_base  smem_ext_common.lib(smem_ext.o)
    0x08027e5c   0x00000004   Code   RO         3013    i.smem_ext_get_smem_size  smem_ext_common.lib(smem_ext.o)
    0x08027e60   0x000000c0   Code   RO         2237    i.smem_get_addr     smem_boot.lib(smem.o)
    0x08027f20   0x00000010   Code   RO         2238    i.smem_get_base_addr  smem_boot.lib(smem.o)
    0x08027f30   0x00000044   Code   RO         2240    i.smem_get_offset   smem_boot.lib(smem.o)
    0x08027f74   0x0000001c   Code   RO         2241    i.smem_get_phys_base_addr  smem_boot.lib(smem.o)
    0x08027f90   0x00000018   Code   RO         2242    i.smem_get_size     smem_boot.lib(smem.o)
    0x08027fa8   0x00000050   Code   RO         2243    i.smem_get_static_size  smem_boot.lib(smem.o)
    0x08027ff8   0x00000048   Code   RO         2275    i.smem_heap_info_init  smem_boot.lib(smem_boot.o)
    0x08028040   0x00000084   Code   RO         2244    i.smem_init         smem_boot.lib(smem.o)
    0x080280c4   0x00000004   Code   RO         3008    i.smem_map_base_va  smem_boot.lib(smem_mapping_rex.o)
    0x080280c8   0x0000000c   Code   RO         2276    i.smem_map_memory_va  smem_boot.lib(smem_boot.o)
    0x080280d4   0x0000001c   Code   RO         2277    i.smem_map_smem_targ_info  smem_boot.lib(smem_boot.o)
    0x080280f0   0x00000004   Code   RO         2278    i.smem_map_spinlock_region_va  smem_boot.lib(smem_boot.o)
    0x080280f4   0x00000024   Code   RO         3839    i.smem_os_ext_get_smem_base  smem_boot.lib(smem_rex.o)
    0x08028118   0x00000024   Code   RO         3840    i.smem_os_ext_get_smem_size  smem_boot.lib(smem_rex.o)
    0x0802813c   0x00000058   Code   RO         3006    i.smem_save_targ_smem_info  smem_boot.lib(smem_boot_target.o)
    0x08028194   0x00000024   Code   RO         2245    i.smem_set_base_addr  smem_boot.lib(smem.o)
    0x080281b8   0x0000002c   Code   RO         2246    i.smem_set_ext_mem_region  smem_boot.lib(smem.o)
    0x080281e4   0x00000024   Code   RO         2247    i.smem_set_heap_info  smem_boot.lib(smem.o)
    0x08028208   0x00000002   Code   RO         2279    i.smem_set_spin_lock_api  smem_boot.lib(smem_boot.o)
    0x0802820a   0x00000002   PAD
    0x0802820c   0x00000018   Code   RO         2248    i.smem_set_spinlock_base_addr  smem_boot.lib(smem.o)
    0x08028224   0x0000019c   Code   RO         2280    i.smem_setup_toc    smem_boot.lib(smem_boot.o)
    0x080283c0   0x00000002   Code   RO         2281    i.smem_spin_lock    smem_boot.lib(smem_boot.o)
    0x080283c2   0x00000002   Code   RO         2282    i.smem_spin_lock_init  smem_boot.lib(smem_boot.o)
    0x080283c4   0x00000002   Code   RO         2284    i.smem_spin_unlock  smem_boot.lib(smem_boot.o)
    0x080283c6   0x00000052   Code   RO         2249    i.smem_version_set  smem_boot.lib(smem.o)
    0x08028418   0x00000038   Code   RO         1532    i.strlcpy           libstd.lib(strlcpy.o)
    0x08028450   0x00000032   Code   RO         3883    i.sub               secmath.lib(secmath_montmul_utils.o)
    0x08028482   0x00000002   PAD
    0x08028484   0x000000f4   Code   RO         2745    i.transfer_data_request  qhsusb_bulk_chg.lib(qhsusb_dci.o)
    0x08028578   0x0000007c   Code   RO         3784    i.uart_log          UART.lib(Uart_log.o)
    0x080285f4   0x00000080   Code   RO         1939    i.waitForStatusDone  Spmi.lib(PmicArb.o)
    0x08028674   0x0000006c   Code   RO         1940    i.writeSpmiData     Spmi.lib(PmicArb.o)
    0x080286e0   0x00000261   Data   RO           29    .constdata          sbl1_mc.o
    0x08028941   0x00000003   PAD
    0x08028944   0x00000020   Data   RO           67    .constdata          sbl1_target.o
    0x08028964   0x00000050   Data   RO          216    .constdata          boot_dload_debug_target.o
    0x080289b4   0x0000002f   Data   RO          222    .constdata          qc_version.o
    0x080289e3   0x0000001f   Data   RO          223    .constdata          oem_version.o
    0x08028a02   0x0000001d   Data   RO          224    .constdata          oem_version.o
    0x08028a1f   0x00000056   Data   RO          225    .constdata          SBL1_nand_oem_uuid.o
    0x08028a75   0x00000019   Data   RO          371    .constdata          boot_error_dload.lib(boot_dload_debug.o)
    0x08028a8e   0x00000002   PAD
    0x08028a90   0x00000008   Data   RO          754    .constdata          boot_nand.lib(boot_flash_dev_nand.o)
    0x08028a98   0x00000005   Data   RO         1292    .constdata          Spmi.lib(SpmiCfg.o)
    0x08028a9d   0x00000003   PAD
    0x08028aa0   0x0000000c   Data   RO         1401    .constdata          DALFwk.lib(DALModEnv.o)
    0x08028aac   0x00000098   Data   RO         1566    .constdata          Clock_msm8909_SBL.lib(ClockSBL.o)
    0x08028b44   0x00000060   Data   RO         1600    .constdata          Clock_msm8909_SBL.lib(ClockTools.o)
    0x08028ba4   0x00000010   Data   RO         1867    .constdata          boot_nand.lib(boot_flash_trans_nand.o)
    0x08028bb4   0x0000103c   Data   RO         1999    .constdata          DALConfig.lib(DALConfig_boot.o)
    0x08029bf0   0x00000150   Data   RO         2000    .constdata          DALConfig.lib(DALConfig_boot.o)
    0x08029d40   0x00000010   Data   RO         2001    .constdata          DALConfig.lib(DALConfig_boot.o)
    0x08029d50   0x00000060   Data   RO         2147    .constdata          bam.lib(bamtgtcfg.o)
    0x08029db0   0x00000050   Data   RO         2251    .constdata          smem_boot.lib(smem.o)
    0x08029e00   0x00000034   Data   RO         2345    .constdata          secboot_auth.lib(secboot.o)
    0x08029e34   0x000000ac   Data   RO         2381    .constdata          secboot_auth.lib(secboot_x509.o)
    0x08029ee0   0x00000180   Data   RO         2415    .constdata          secboot_auth.lib(secboot_hw.o)
    0x0802a060   0x00000051   Data   RO         2608    .constdata          pmic_framework.lib(pm_target_information.o)
    0x0802a0b1   0x00000004   Data   RO         2640    .constdata          qhsusb_bulk_chg.lib(qhsusb_fd_hdlc.o)
    0x0802a0b5   0x0000003e   Data   RO         2641    .constdata          qhsusb_bulk_chg.lib(qhsusb_fd_hdlc.o)
    0x0802a0f3   0x00000024   Data   RO         2642    .constdata          qhsusb_bulk_chg.lib(qhsusb_fd_hdlc.o)
    0x0802a117   0x00000022   Data   RO         2643    .constdata          qhsusb_bulk_chg.lib(qhsusb_fd_hdlc.o)
    0x0802a139   0x00000003   PAD
    0x0802a13c   0x0000000c   Data   RO         2875    .constdata          I2cDriver.lib(I2cDriverDalInfo.o)
    0x0802a148   0x00000194   Data   RO         2947    .constdata          SpmiDalCfg.lib(GeniImage.o)
    0x0802a2dc   0x00000018   Data   RO         2959    .constdata          UART.lib(Uart.o)
    0x0802a2f4   0x00000008   Data   RO         2991    .constdata          adc_bsp_lib.lib(AdcBsp.o)
    0x0802a2fc   0x00000008   Data   RO         2992    .constdata          adc_bsp_lib.lib(AdcBsp.o)
    0x0802a304   0x00000060   Data   RO         2994    .constdata          adc_bsp_lib.lib(VAdcBsp.o)
    0x0802a364   0x00000110   Data   RO         2995    .constdata          adc_bsp_lib.lib(VAdcBsp.o)
    0x0802a474   0x00000008   Data   RO         2996    .constdata          adc_bsp_lib.lib(VAdcBsp.o)
    0x0802a47c   0x000001e0   Data   RO         2997    .constdata          adc_bsp_lib.lib(VAdcBsp.o)
    0x0802a65c   0x000000c0   Data   RO         2998    .constdata          adc_bsp_lib.lib(VAdcBsp.o)
    0x0802a71c   0x00000064   Data   RO         2999    .constdata          adc_bsp_lib.lib(VAdcBsp.o)
    0x0802a780   0x0000000c   Data   RO         3002    .constdata          adc.lib(DalVAdcInfo.o)
    0x0802a78c   0x0000000c   Data   RO         3003    .constdata          tsens_bsp_lib.lib(BootTempCheckBsp.o)
    0x0802a798   0x00000078   Data   RO         3004    .constdata          tsens_bsp_lib.lib(TsensBootBsp.o)
    0x0802a810   0x00000020   Data   RO         3005    .constdata          tsens_bsp_lib.lib(TsensBootBsp.o)
    0x0802a830   0x00000080   Data   RO         3016    .constdata          smem_config.lib(smem_8916_structs.o)
    0x0802a8b0   0x0000000c   Data   RO         3109    .constdata          DALflash.lib(flash_dal_info.o)
    0x0802a8bc   0x0000000c   Data   RO         3153    .constdata          chipinfo.lib(DalChipInfoInfo.o)
    0x0802a8c8   0x0000000c   Data   RO         3172    .constdata          platforminfo.lib(PlatformInfoFwk.o)
    0x0802a8d4   0x00000038   Data   RO         3173    .constdata          platforminfo.lib(PlatformInfoFwk.o)
    0x0802a90c   0x00000001   Data   RO         3291    .constdata          pmic_config_boot.lib(pm_config_target.o)
    0x0802a90d   0x00000001   PAD
    0x0802a90e   0x00000204   Data   RO         3292    .constdata          pmic_config_boot.lib(pm_config_target.o)
    0x0802ab12   0x00000002   PAD
    0x0802ab14   0x00000004   Data   RO         3293    .constdata          pmic_config_boot.lib(pm_config_target.o)
    0x0802ab18   0x00000001   Data   RO         3307    .constdata          pmic_config_boot.lib(pm_config_target.o)
    0x0802ab19   0x00000001   PAD
    0x0802ab1a   0x00000228   Data   RO         3308    .constdata          pmic_config_boot.lib(pm_config_target.o)
    0x0802ad42   0x00000002   PAD
    0x0802ad44   0x00000004   Data   RO         3309    .constdata          pmic_config_boot.lib(pm_config_target.o)
    0x0802ad48   0x00000004   Data   RO         3337    .constdata          pmic_drivers_coincell.lib(pm_coincell_driver.o)
    0x0802ad4c   0x00000008   Data   RO         3344    .constdata          pmic_drivers_gpio.lib(pm_gpio_driver.o)
    0x0802ad54   0x00000008   Data   RO         3408    .constdata          pm_ldo_driver.lib(pm_ldo_driver.o)
    0x0802ad5c   0x00000008   Data   RO         3453    .constdata          pmic_drivers_lpg.lib(pm_lpg_driver.o)
    0x0802ad64   0x00000008   Data   RO         3460    .constdata          pmic_drivers_mpp.lib(pm_mpp_driver.o)
    0x0802ad6c   0x00000008   Data   RO         3480    .constdata          pm_pbs_driver.lib(pm_pbs_client_driver.o)
    0x0802ad74   0x00000008   Data   RO         3499    .constdata          pmic_drivers_rgb.lib(pm_rgb_driver.o)
    0x0802ad7c   0x00000080   Data   RO         3530    .constdata          pmic_drivers_smb.lib(pm_smb.o)
    0x0802adfc   0x00000008   Data   RO         3572    .constdata          pmic_drivers_buck_concrete_v6.lib(pm_smps_driver.o)
    0x0802ae04   0x00000008   Data   RO         3579    .constdata          pmic_drivers_vib.lib(pm_vib_driver.o)
    0x0802ae0c   0x00000008   Data   RO         3586    .constdata          pmic_drivers_vs.lib(pm_vs_driver.o)
    0x0802ae14   0x0000000c   Data   RO         3607    .constdata          DALtlmm.lib(DALTLMMInfo.o)
    0x0802ae20   0x0000001d   Data   RO         3719    .constdata          UART.lib(Uart_sbl_os.o)
    0x0802ae3d   0x00000003   PAD
    0x0802ae40   0x00000044   Data   RO         3820    .constdata          adc.lib(DalVAdcFwk.o)
    0x0802ae84   0x00000c00   Data   RO         3910    .constdata          utils_tools.lib(crc.o)
    0x0802ba84   0x00000070   Data   RO         3946    .constdata          DALflash.lib(flash_dal_fwk.o)
    0x0802baf4   0x00000020   Data   RO         4086    .constdata          DALflash_nand_dma_reduced.lib(flash_nand_config.o)
    0x0802bb14   0x00000020   Data   RO         4087    .constdata          DALflash_nand_dma_reduced.lib(flash_nand_config.o)
    0x0802bb34   0x00000048   Data   RO         4175    .constdata          chipinfo.lib(DalChipInfoFwk.o)
    0x0802bb7c   0x00000008   Data   RO         4221    .constdata          pmic_drivers_lbc.lib(pm_lbc_driver.o)
    0x0802bb84   0x00000008   Data   RO         4227    .constdata          pmic_drivers_smbb.lib(pm_smbb_driver.o)
    0x0802bb8c   0x0000003c   Data   RO         4246    .constdata          DALtlmm.lib(DALTLMMFwk.o)
    0x0802bbc8   0x00000022   Data   RO         4271    .constdata          qhsusb_bulk_chg.lib(qhsusb_fd_chg.o)
    0x0802bbea   0x00000002   PAD
    0x0802bbec   0x00000028   Data   RO         4551    .constdata          HALflash_qpic_bam_reduced.lib(flash_hal_nandc_common.o)
    0x0802bc14   0x00000014   Data   RO         4552    .constdata          HALflash_qpic_bam_reduced.lib(flash_hal_nandc_common.o)
    0x0802bc28   0x00000028   Data   RO         4553    .constdata          HALflash_qpic_bam_reduced.lib(flash_hal_nandc_common.o)
    0x0802bc50   0x00000014   Data   RO         4554    .constdata          HALflash_qpic_bam_reduced.lib(flash_hal_nandc_common.o)
    0x0802bc64   0x00000028   Data   RO         4555    .constdata          HALflash_qpic_bam_reduced.lib(flash_hal_nandc_common.o)
    0x0802bc8c   0x00000014   Data   RO         4556    .constdata          HALflash_qpic_bam_reduced.lib(flash_hal_nandc_common.o)
    0x0802bca0   0x00000028   Data   RO         4557    .constdata          HALflash_qpic_bam_reduced.lib(flash_hal_nandc_common.o)
    0x0802bcc8   0x00000014   Data   RO         4558    .constdata          HALflash_qpic_bam_reduced.lib(flash_hal_nandc_common.o)
    0x0802bcdc   0x00000180   Data   RO         4612    .constdata          chipinfo.lib(DalChipInfoLocal.o)
    0x0802be5c   0x00000028   Data   RO         4918    .constdata          c_2.l(_printf_hex_int.o)
    0x0802be84   0x00000011   Data   RO         4953    .constdata          c_2.l(__printf_flags_ss_wp.o)
    0x0802be95   0x0000004c   Data   RO           98    .conststring        sbl1_config.o
    0x0802bee1   0x00000070   Data   RO          217    .conststring        boot_dload_debug_target.o
    0x0802bf51   0x000000d6   Data   RO          298    .conststring        boot_target_hw.lib(boot_pbl_v1.o)
    0x0802c027   0x00000014   Data   RO          755    .conststring        boot_nand.lib(boot_flash_dev_nand.o)
    0x0802c03b   0x00000034   Data   RO         1868    .conststring        boot_nand.lib(boot_flash_trans_nand.o)
    0x0802c06f   0x000000d0   Data   RO         2002    .conststring        DALConfig.lib(DALConfig_boot.o)
    0x0802c13f   0x00000013   Data   RO         2960    .conststring        UART.lib(Uart.o)
    0x0802c152   0x00000057   Data   RO         3000    .conststring        adc_bsp_lib.lib(VAdcBsp.o)
    0x0802c1a9   0x00000014   Data   RO         3001    .conststring        adc_bsp_lib.lib(VAdcBsp.o)
    0x0802c1bd   0x00000102   Data   RO         4613    .conststring        chipinfo.lib(DalChipInfoLocal.o)



  Load Region CODE_STACKS (Base: 0x08045800, Size: 0x00000000, Max: 0x00006000, ABSOLUTE)

    Execution Region SBL1_SVC_STACK (Base: 0x08045800, Size: 0x00002000, Max: 0x00002000, ABSOLUTE, UNINIT)

    Base Addr    Size         Type   Attr      Idx    E Section Name        Object

    0x08045800   0x00002000   Zero   RW            1    SBL1_SVC_STACK.bss  anon$$obj.o


    Execution Region SBL1_UND_STACK (Base: 0x08047800, Size: 0x00002000, Max: 0x00002000, ABSOLUTE, UNINIT)

    Base Addr    Size         Type   Attr      Idx    E Section Name        Object

    0x08047800   0x00002000   Zero   RW            2    SBL1_UND_STACK.bss  anon$$obj.o


    Execution Region SBL1_ABT_STACK (Base: 0x08049800, Size: 0x00002000, Max: 0x00002000, ABSOLUTE, UNINIT)

    Base Addr    Size         Type   Attr      Idx    E Section Name        Object

    0x08049800   0x00002000   Zero   RW            3    SBL1_ABT_STACK.bss  anon$$obj.o



  Load Region CODE_RAM (Base: 0x0804b800, Size: 0x00005e40, Max: 0x00035000, ABSOLUTE)

    Execution Region SBL1_DATA_RW (Base: 0x0804c000, Size: 0x0000563c, Max: 0xffffffff, ABSOLUTE)

    Base Addr    Size         Type   Attr      Idx    E Section Name        Object

    0x0804c000   0x00000084   Data   RW           32    .data               sbl1_mc.o
    0x0804c084   0x00000004   Data   RW           33    .data               sbl1_mc.o
    0x0804c088   0x00000004   Data   RW           68    .data               sbl1_target.o
    0x0804c08c   0x00000008   Data   RW           69    .data               sbl1_target.o
    0x0804c094   0x00000004   Data   RW           83    .data               sbl1_hw.o
    0x0804c098   0x00000030   Data   RW           99    .data               sbl1_config.o
    0x0804c0c8   0x0000003c   Data   RW          100    .data               sbl1_config.o
    0x0804c104   0x00000048   Data   RW          101    .data               sbl1_config.o
    0x0804c14c   0x00000038   Data   RW          102    .data               sbl1_config.o
    0x0804c184   0x0000000c   Data   RW          103    .data               sbl1_config.o
    0x0804c190   0x00000190   Data   RW          104    .data               sbl1_config.o
    0x0804c320   0x00000400   Data   RW          109    .data               boot_cdt_array.o
    0x0804c720   0x00000004   Data   RW          110    .data               boot_cdt_array.o
    0x0804c724   0x000000f0   Data   RW          111    .data               boot_rollback_img_set.o
    0x0804c814   0x00000004   Data   RW          112    .data               boot_rollback_img_set.o
    0x0804c818   0x00000044   Data   RW          172    .data               sbl1_sahara.o
    0x0804c85c   0x00000078   Data   RW          173    .data               sbl1_sahara.o
    0x0804c8d4   0x00000020   Data   RW          174    .data               sbl1_sahara.o
    0x0804c8f4   0x0000001c   Data   RW          175    .data               sbl1_sahara.o
    0x0804c910   0x00000010   Data   RW          253    .data               boot_util.lib(boot_statistics.o)
    0x0804c920   0x00000008   Data   RW          266    .data               boot_mmu.lib(boot_page_table.o)
    0x0804c928   0x00000024   Data   RW          299    .data               boot_target_hw.lib(boot_pbl_v1.o)
    0x0804c94c   0x00000014   Data   RW          322    .data               boot_error_dload.lib(boot_error_handler.o)
    0x0804c960   0x0000000c   Data   RW          372    .data               boot_error_dload.lib(boot_dload_debug.o)
    0x0804c96c   0x00000074   Data   RW          430    .data               boot_error_dload.lib(boot_sahara.o)
    0x0804c9e0   0x00000001   Data   RW          472    .data               boot_error_dload.lib(boot_hash_buffer.o)
    0x0804c9e1   0x00000003   PAD
    0x0804c9e4   0x0000000c   Data   RW          484    .data               boot_error_dload.lib(boot_hash.o)
    0x0804c9f0   0x00000004   Data   RW          511    .data               boot_logger.lib(boot_logger.o)
    0x0804c9f4   0x00000004   Data   RW          708    .data               boot_flash_common.lib(boot_clobber_prot.o)
    0x0804c9f8   0x00000008   Data   RW          736    .data               boot_flash_common.lib(boot_flash_dev_if.o)
    0x0804ca00   0x00000034   Data   RW          756    .data               boot_nand.lib(boot_flash_dev_nand.o)
    0x0804ca34   0x00000010   Data   RW          789    .data               boot_image_loading.lib(boot_gpt_partition_id.o)
    0x0804ca44   0x00000010   Data   RW          790    .data               boot_image_loading.lib(boot_gpt_partition_id.o)
    0x0804ca54   0x00000010   Data   RW          792    .data               boot_image_loading.lib(boot_gpt_partition_id.o)
    0x0804ca64   0x00000010   Data   RW          794    .data               boot_image_loading.lib(boot_gpt_partition_id.o)
    0x0804ca74   0x00000010   Data   RW          797    .data               boot_image_loading.lib(boot_gpt_partition_id.o)
    0x0804ca84   0x00000008   Data   RW          801    .data               boot_cdt.lib(boot_config_data.o)
    0x0804ca8c   0x00000004   Data   RW          816    .data               boot_mem_manage.lib(boot_ram_init.o)
    0x0804ca90   0x00000001   Data   RW          825    .data               boot_mem_manage.lib(boot_ddr_info.o)
    0x0804ca91   0x00000003   PAD
    0x0804ca94   0x0000000c   Data   RW          867    .data               boot_security.lib(boot_rollback_version.o)
    0x0804caa0   0x00000008   Data   RW          888    .data               adc.lib(AdcBoot.o)
    0x0804caa8   0x0000000f   Data   RW          908    .data               apt.lib(boot_apt_test.o)
    0x0804cab7   0x00000001   PAD
    0x0804cab8   0x00000004   Data   RW          995    .data               DDR_TEST.lib(ddr_test.o)
    0x0804cabc   0x00000092   Data   RW         1011    .data               boot_logger.lib(boot_logger_ram.o)
    0x0804cb4e   0x00000002   PAD
    0x0804cb50   0x0000009b   Data   RW         1033    .data               boot_logger.lib(boot_logger_uart.o)
    0x0804cbeb   0x00000001   PAD
    0x0804cbec   0x00000010   Data   RW         1119    .data               boot_nand.lib(boot_flash_dev_dal.o)
    0x0804cbfc   0x00000008   Data   RW         1156    .data               boot_nand.lib(boot_flash_dev_nand_if.o)
    0x0804cc04   0x00000030   Data   RW         1196    .data               boot_image_loading.lib(boot_elf_loader.o)
    0x0804cc34   0x00000010   Data   RW         1228    .data               boot_cdt.lib(boot_config_eeprom.o)
    0x0804cc44   0x00000008   Data   RW         1254    .data               icb.lib(icbcfg.o)
    0x0804cc4c   0x00000004   Data   RW         1293    .data               Spmi.lib(SpmiCfg.o)
    0x0804cc50   0x0000001c   Data   RW         1345    .data               DALFwk.lib(DALMemDesc.o)
    0x0804cc6c   0x00000004   Data   RW         1402    .data               DALFwk.lib(DALModEnv.o)
    0x0804cc70   0x00000008   Data   RW         1403    .data               DALFwk.lib(DALModEnv.o)
    0x0804cc78   0x00000020   Data   RW         1454    .data               DALFwk.lib(DALHeap.o)
    0x0804cc98   0x00000010   Data   RW         1495    .data               bam.lib(bams.o)
    0x0804cca8   0x00000008   Data   RW         1523    .data               tsens.lib(BootTempCheck.o)
    0x0804ccb0   0x00000010   Data   RW         1528    .data               tsens.lib(TsensBoot.o)
    0x0804ccc0   0x0000000c   Data   RW         1541    .data               busywait_lib.lib(busywait_hw_qtimer.o)
    0x0804cccc   0x00000008   Data   RW         1567    .data               Clock_msm8909_SBL.lib(ClockSBL.o)
    0x0804ccd4   0x00000004   Data   RW         1592    .data               Clock_msm8909_SBL.lib(ClockSBLCPU.o)
    0x0804ccd8   0x00000008   Data   RW         1611    .data               pmic_app_led.lib(pm_app_led.o)
    0x0804cce0   0x00000114   Data   RW         1647    .data               pmic_drivers_pon.lib(pm_pon.o)
    0x0804cdf4   0x00000008   Data   RW         1679    .data               pmic_target_sbl1_system.lib(pm_sbl_boot.o)
    0x0804cdfc   0x00000042   Data   RW         1704    .data               qhsusb_bulk_chg.lib(qhsusb_al_bulk.o)
    0x0804ce3e   0x00000002   PAD
    0x0804ce40   0x00000020   Data   RW         1869    .data               boot_nand.lib(boot_flash_trans_nand.o)
    0x0804ce60   0x00000010   Data   RW         1982    .data               Spmi.lib(SpmiOsImage.o)
    0x0804ce70   0x00000004   Data   RW         1996    .data               Spmi.lib(SpmiHal.o)
    0x0804ce74   0x0000015c   Data   RW         2003    .data               DALConfig.lib(DALConfig_boot.o)
    0x0804cfd0   0x0000001c   Data   RW         2005    .data               DALConfig.lib(DALModDir_boot.o)
    0x0804cfec   0x00000008   Data   RW         2006    .data               DALConfig.lib(DALModDir_boot.o)
    0x0804cff4   0x00000018   Data   RW         2007    .data               DALConfig.lib(DALModDir_boot.o)
    0x0804d00c   0x00000010   Data   RW         2008    .data               DALConfig.lib(DALModDir_boot.o)
    0x0804d01c   0x00000004   Data   RW         2014    .data               version_image.lib(image_version.o)
    0x0804d020   0x00000004   Data   RW         2098    .data               bam.lib(bamcore.o)
    0x0804d024   0x00000008   Data   RW         2148    .data               bam.lib(bamtgtcfg.o)
    0x0804d02c   0x00000010   Data   RW         2163    .data               tsens.lib(TsensiConversion.o)
    0x0804d03c   0x00000028   Data   RW         2252    .data               smem_boot.lib(smem.o)
    0x0804d064   0x00000004   Data   RW         2285    .data               smem_boot.lib(smem_boot.o)
    0x0804d068   0x00000008   Data   RW         2314    .data               CeML.lib(CeML.o)
    0x0804d070   0x00000004   Data   RW         2416    .data               secboot_auth.lib(secboot_hw.o)
    0x0804d074   0x00000004   Data   RW         2430    .data               DALflash_nand_dma_reduced.lib(flash_boot_ops_setup.o)
    0x0804d078   0x00000544   Data   RW         2440    .data               Clock_msm8909_SBL.lib(ClockSBLConfig.o)
    0x0804d5bc   0x00000004   Data   RW         2450    .data               Clock_msm8909_SBL.lib(ClockTLMMSpare.o)
    0x0804d5c0   0x00000058   Data   RW         2487    .data               pmic_app_chg.lib(pm_app_chg_alg.o)
    0x0804d618   0x00000004   Data   RW         2524    .data               pmic_comm.lib(pm_comm.o)
    0x0804d61c   0x00000008   Data   RW         2567    .data               pm_pbs_driver.lib(pm_pbs_info.o)
    0x0804d624   0x00000010   Data   RW         2579    .data               pmic_framework.lib(pm_config_sbl.o)
    0x0804d634   0x00000001   Data   RW         2593    .data               pmic_framework.lib(pm_version.o)
    0x0804d635   0x00000003   PAD
    0x0804d638   0x00000010   Data   RW         2609    .data               pmic_framework.lib(pm_target_information.o)
    0x0804d648   0x00000260   Data   RW         2644    .data               qhsusb_bulk_chg.lib(qhsusb_fd_hdlc.o)
    0x0804d8a8   0x00000030   Data   RW         2645    .data               qhsusb_bulk_chg.lib(qhsusb_fd_hdlc.o)
    0x0804d8d8   0x00000018   Data   RW         2687    .data               qhsusb_bulk_chg.lib(qhsusb_dcd_ch9.o)
    0x0804d8f0   0x00000028   Data   RW         2747    .data               qhsusb_bulk_chg.lib(qhsusb_dci.o)
    0x0804d918   0x00000003   Data   RW         2812    .data               qhsusb_bulk_chg.lib(qhsusb_dci_8909.o)
    0x0804d91b   0x00000001   PAD
    0x0804d91c   0x00000008   Data   RW         2859    .data               qhsusb_bulk_chg.lib(qhsusb_log.o)
    0x0804d924   0x00000030   Data   RW         2876    .data               I2cDriver.lib(I2cDriverDalInfo.o)
    0x0804d954   0x00000280   Data   RW         2928    .data               icb_cfg_lib.lib(icbcfg_data.o)
    0x0804dbd4   0x00000008   Data   RW         2929    .data               icb_cfg_lib.lib(icbcfg_data.o)
    0x0804dbdc   0x00000004   PAD
    0x0804dbe0   0x00000010   Data   RW         2931    .data               icb_cfg_lib.lib(icbcfg_data.o)
    0x0804dbf0   0x00000004   Data   RW         2932    .data               icb_cfg_lib.lib(icbcfg_data.o)
    0x0804dbf4   0x00000020   Data   RW         2933    .data               icb_cfg_lib.lib(icbcfg_data.o)
    0x0804dc14   0x00000004   PAD
    0x0804dc18   0x00000020   Data   RW         2934    .data               icb_cfg_lib.lib(icbcfg_data.o)
    0x0804dc38   0x00000028   Data   RW         2935    .data               icb_cfg_lib.lib(icbcfg_data.o)
    0x0804dc60   0x00000008   Data   RW         2936    .data               icb_cfg_lib.lib(icbcfg_data.o)
    0x0804dc68   0x0000000c   Data   RW         2941    .data               Spmi.lib(SpmiOs.o)
    0x0804dc74   0x0000003c   Data   RW         2961    .data               UART.lib(Uart.o)
    0x0804dcb0   0x00000010   Data   RW         2981    .data               DALFwk.lib(DALGlbCtxt.o)
    0x0804dcc0   0x00000010   Data   RW         3110    .data               DALflash.lib(flash_dal_info.o)
    0x0804dcd0   0x0000000c   Data   RW         3125    .data               DALflash_nand_dma_reduced.lib(flash_nand_init.o)
    0x0804dcdc   0x00000008   Data   RW         3146    .data               DALflash_nand_dma_reduced.lib(flash_nand_partition.o)
    0x0804dce4   0x00000004   Data   RW         3154    .data               chipinfo.lib(DalChipInfoInfo.o)
    0x0804dce8   0x00000004   Data   RW         3174    .data               platforminfo.lib(PlatformInfoFwk.o)
    0x0804dcec   0x0000008c   Data   RW         3175    .data               platforminfo.lib(PlatformInfoFwk.o)
    0x0804dd78   0x00000002   Data   RW         3242    .data               pmic_config_boot.lib(pm_config_common.o)
    0x0804dd7a   0x00000002   PAD
    0x0804dd7c   0x00000004   Data   RW         3243    .data               pmic_config_boot.lib(pm_config_common.o)
    0x0804dd80   0x00000018   Data   RW         3244    .data               pmic_config_boot.lib(pm_config_common.o)
    0x0804dd98   0x00000004   Data   RW         3245    .data               pmic_config_boot.lib(pm_config_common.o)
    0x0804dd9c   0x00000018   Data   RW         3246    .data               pmic_config_boot.lib(pm_config_common.o)
    0x0804ddb4   0x00000004   Data   RW         3247    .data               pmic_config_boot.lib(pm_config_common.o)
    0x0804ddb8   0x00000018   Data   RW         3248    .data               pmic_config_boot.lib(pm_config_common.o)
    0x0804ddd0   0x00000004   Data   RW         3249    .data               pmic_config_boot.lib(pm_config_common.o)
    0x0804ddd4   0x00000024   Data   RW         3250    .data               pmic_config_boot.lib(pm_config_common.o)
    0x0804ddf8   0x00000004   Data   RW         3251    .data               pmic_config_boot.lib(pm_config_common.o)
    0x0804ddfc   0x00000024   Data   RW         3252    .data               pmic_config_boot.lib(pm_config_common.o)
    0x0804de20   0x00000004   Data   RW         3253    .data               pmic_config_boot.lib(pm_config_common.o)
    0x0804de24   0x0000003c   Data   RW         3254    .data               pmic_config_boot.lib(pm_config_common.o)
    0x0804de60   0x00000004   Data   RW         3255    .data               pmic_config_boot.lib(pm_config_common.o)
    0x0804de64   0x00000018   Data   RW         3256    .data               pmic_config_boot.lib(pm_config_common.o)
    0x0804de7c   0x00000004   Data   RW         3257    .data               pmic_config_boot.lib(pm_config_common.o)
    0x0804de80   0x00000024   Data   RW         3258    .data               pmic_config_boot.lib(pm_config_common.o)
    0x0804dea4   0x00000004   Data   RW         3259    .data               pmic_config_boot.lib(pm_config_common.o)
    0x0804dea8   0x00000018   Data   RW         3260    .data               pmic_config_boot.lib(pm_config_common.o)
    0x0804dec0   0x00000004   Data   RW         3261    .data               pmic_config_boot.lib(pm_config_common.o)
    0x0804dec4   0x0000000c   Data   RW         3262    .data               pmic_config_boot.lib(pm_config_common.o)
    0x0804ded0   0x00000004   Data   RW         3263    .data               pmic_config_boot.lib(pm_config_common.o)
    0x0804ded4   0x0000000c   Data   RW         3264    .data               pmic_config_boot.lib(pm_config_common.o)
    0x0804dee0   0x00000004   Data   RW         3265    .data               pmic_config_boot.lib(pm_config_common.o)
    0x0804dee4   0x0000000c   Data   RW         3266    .data               pmic_config_boot.lib(pm_config_common.o)
    0x0804def0   0x0000000a   Data   RW         3267    .data               pmic_config_boot.lib(pm_config_common.o)
    0x0804defa   0x00000024   Data   RW         3268    .data               pmic_config_boot.lib(pm_config_common.o)
    0x0804df1e   0x00000024   Data   RW         3269    .data               pmic_config_boot.lib(pm_config_common.o)
    0x0804df42   0x00000024   Data   RW         3270    .data               pmic_config_boot.lib(pm_config_common.o)
    0x0804df66   0x0000001c   Data   RW         3272    .data               pmic_config_boot.lib(pm_config_common.o)
    0x0804df82   0x00000054   Data   RW         3273    .data               pmic_config_boot.lib(pm_config_common.o)
    0x0804dfd6   0x00000052   Data   RW         3274    .data               pmic_config_boot.lib(pm_config_common.o)
    0x0804e028   0x00000008   Data   RW         3275    .data               pmic_config_boot.lib(pm_config_common.o)
    0x0804e030   0x00000050   Data   RW         3276    .data               pmic_config_boot.lib(pm_config_common.o)
    0x0804e080   0x0000003c   Data   RW         3277    .data               pmic_config_boot.lib(pm_config_common.o)
    0x0804e0bc   0x00000004   Data   RW         3278    .data               pmic_config_boot.lib(pm_config_common.o)
    0x0804e0c0   0x00000004   Data   RW         3279    .data               pmic_config_boot.lib(pm_config_common.o)
    0x0804e0c4   0x0000000e   Data   RW         3280    .data               pmic_config_boot.lib(pm_config_common.o)
    0x0804e0d2   0x00000028   Data   RW         3281    .data               pmic_config_boot.lib(pm_config_common.o)
    0x0804e0fa   0x0000002c   Data   RW         3282    .data               pmic_config_boot.lib(pm_config_common.o)
    0x0804e126   0x0000000a   Data   RW         3283    .data               pmic_config_boot.lib(pm_config_common.o)
    0x0804e130   0x0000002c   Data   RW         3284    .data               pmic_config_boot.lib(pm_config_common.o)
    0x0804e15c   0x0000000a   Data   RW         3285    .data               pmic_config_boot.lib(pm_config_common.o)
    0x0804e166   0x0000002a   Data   RW         3286    .data               pmic_config_boot.lib(pm_config_common.o)
    0x0804e190   0x0000002c   Data   RW         3287    .data               pmic_config_boot.lib(pm_config_common.o)
    0x0804e1bc   0x0000001a   Data   RW         3288    .data               pmic_config_boot.lib(pm_config_common.o)
    0x0804e1d6   0x0000000a   Data   RW         3289    .data               pmic_config_boot.lib(pm_config_common.o)
    0x0804e1e0   0x0000000c   Data   RW         3294    .data               pmic_config_boot.lib(pm_config_target.o)
    0x0804e1ec   0x00000018   Data   RW         3295    .data               pmic_config_boot.lib(pm_config_target.o)
    0x0804e204   0x0000000c   Data   RW         3296    .data               pmic_config_boot.lib(pm_config_target.o)
    0x0804e210   0x00000002   Data   RW         3297    .data               pmic_config_boot.lib(pm_config_target.o)
    0x0804e212   0x00000002   PAD
    0x0804e214   0x00000014   Data   RW         3298    .data               pmic_config_boot.lib(pm_config_target.o)
    0x0804e228   0x00000004   Data   RW         3299    .data               pmic_config_boot.lib(pm_config_target.o)
    0x0804e22c   0x00000004   Data   RW         3300    .data               pmic_config_boot.lib(pm_config_target.o)
    0x0804e230   0x00000032   Data   RW         3301    .data               pmic_config_boot.lib(pm_config_target.o)
    0x0804e262   0x00000016   Data   RW         3302    .data               pmic_config_boot.lib(pm_config_target.o)
    0x0804e278   0x00000004   Data   RW         3303    .data               pmic_config_boot.lib(pm_config_target.o)
    0x0804e27c   0x00000aec   Data   RW         3304    .data               pmic_config_boot.lib(pm_config_target_sbl_sequence.o)
    0x0804ed68   0x00000400   Data   RW         3305    .data               pmic_config_boot.lib(pm_config_target_pbs_ram.o)
    0x0804f168   0x00000008   Data   RW         3310    .data               pmic_config_boot.lib(pm_config_target.o)
    0x0804f170   0x00000018   Data   RW         3311    .data               pmic_config_boot.lib(pm_config_target.o)
    0x0804f188   0x0000000c   Data   RW         3312    .data               pmic_config_boot.lib(pm_config_target.o)
    0x0804f194   0x00000002   Data   RW         3313    .data               pmic_config_boot.lib(pm_config_target.o)
    0x0804f196   0x00000002   PAD
    0x0804f198   0x00000014   Data   RW         3314    .data               pmic_config_boot.lib(pm_config_target.o)
    0x0804f1ac   0x00000004   Data   RW         3315    .data               pmic_config_boot.lib(pm_config_target.o)
    0x0804f1b0   0x00000004   Data   RW         3316    .data               pmic_config_boot.lib(pm_config_target.o)
    0x0804f1b4   0x00000032   Data   RW         3317    .data               pmic_config_boot.lib(pm_config_target.o)
    0x0804f1e6   0x00000016   Data   RW         3318    .data               pmic_config_boot.lib(pm_config_target.o)
    0x0804f1fc   0x00000004   Data   RW         3319    .data               pmic_config_boot.lib(pm_config_target.o)
    0x0804f200   0x00000c54   Data   RW         3320    .data               pmic_config_boot.lib(pm_config_target_sbl_sequence.o)
    0x0804fe54   0x00000400   Data   RW         3321    .data               pmic_config_boot.lib(pm_config_target_pbs_ram.o)
    0x08050254   0x00000004   Data   RW         3470    .data               pm_pbs_driver.lib(pm_pbs_driver.o)
    0x08050258   0x00000008   Data   RW         3510    .data               pmic_drivers_smb.lib(pm_smb_driver.o)
    0x08050260   0x00000040   Data   RW         3511    .data               pmic_drivers_smb.lib(pm_smb_driver.o)
    0x080502a0   0x00000020   Data   RW         3512    .data               pmic_drivers_smb.lib(pm_smb_driver.o)
    0x080502c0   0x0000002c   Data   RW         3513    .data               pmic_drivers_smb.lib(pm_smb_driver.o)
    0x080502ec   0x00000014   Data   RW         3531    .data               pmic_drivers_smb.lib(pm_smb.o)
    0x08050300   0x00000008   Data   RW         3608    .data               DALtlmm.lib(DALTLMMInfo.o)
    0x08050308   0x00000010   Data   RW         3627    .data               qhsusb_bulk_chg.lib(qhsusb_al_charger.o)
    0x08050318   0x00000004   Data   RW         3673    .data               I2cDriver.lib(I2cDeviceQup.o)
    0x0805031c   0x00000208   Data   RW         3785    .data               UART.lib(Uart_log.o)
    0x08050524   0x00000004   PAD
    0x08050528   0x000001d8   Data   RW         3821    .data               adc.lib(DalVAdcFwk.o)
    0x08050700   0x00000005   Data   RW         3856    .data               CeEL.lib(CeEL_Env.o)
    0x08050705   0x00000003   PAD
    0x08050708   0x000001c0   Data   RW         3947    .data               DALflash.lib(flash_dal_fwk.o)
    0x080508c8   0x00000018   Data   RW         3978    .data               DALflash.lib(flash_properties.o)
    0x080508e0   0x00000064   Data   RW         4037    .data               DALflash_nand_dma_reduced.lib(flash_onfi.o)
    0x08050944   0x00000001   Data   RW         4063    .data               DALflash_nand_dma_reduced.lib(flash_nand_entry.o)
    0x08050945   0x00000003   PAD
    0x08050948   0x00000010   Data   RW         4088    .data               DALflash_nand_dma_reduced.lib(flash_nand_config.o)
    0x08050958   0x0000002c   Data   RW         4089    .data               DALflash_nand_dma_reduced.lib(flash_nand_config.o)
    0x08050984   0x00000130   Data   RW         4093    .data               DALflash_nand_dma_reduced.lib(flash_nand_config.o)
    0x08050ab4   0x00000028   Data   RW         4094    .data               DALflash_nand_dma_reduced.lib(flash_nand_config.o)
    0x08050adc   0x000000ac   Data   RW         4176    .data               chipinfo.lib(DalChipInfoFwk.o)
    0x08050b88   0x0000000c   Data   RW         4206    .data               platforminfo.lib(PlatformInfo.o)
    0x08050b94   0x00000004   PAD
    0x08050b98   0x000000a0   Data   RW         4247    .data               DALtlmm.lib(DALTLMMFwk.o)
    0x08050c38   0x000000c0   Data   RW         4272    .data               qhsusb_bulk_chg.lib(qhsusb_fd_chg.o)
    0x08050cf8   0x00000022   Data   RW         4273    .data               qhsusb_bulk_chg.lib(qhsusb_fd_chg.o)
    0x08050d1a   0x00000022   Data   RW         4274    .data               qhsusb_bulk_chg.lib(qhsusb_fd_chg.o)
    0x08050d3c   0x00000014   Data   RW         4275    .data               qhsusb_bulk_chg.lib(qhsusb_fd_chg.o)
    0x08050d50   0x00000018   Data   RW         4276    .data               qhsusb_bulk_chg.lib(qhsusb_fd_chg.o)
    0x08050d68   0x00000010   Data   RW         4277    .data               qhsusb_bulk_chg.lib(qhsusb_fd_chg.o)
    0x08050d78   0x00000014   Data   RW         4278    .data               qhsusb_bulk_chg.lib(qhsusb_fd_chg.o)
    0x08050d8c   0x00000018   Data   RW         4279    .data               qhsusb_bulk_chg.lib(qhsusb_fd_chg.o)
    0x08050da4   0x00000010   Data   RW         4280    .data               qhsusb_bulk_chg.lib(qhsusb_fd_chg.o)
    0x08050db4   0x00000054   Data   RW         4429    .data               DALflash_i2c_nor.lib(flash_nor_entry_reduced.o)
    0x08050e08   0x00000498   Data   RW         4454    .data               DALflash_i2c_nor.lib(flash_nor_i2c_config.o)
    0x080512a0   0x00000048   Data   RW         4455    .data               DALflash_i2c_nor.lib(flash_nor_i2c_config.o)
    0x080512e8   0x00000060   Data   RW         4472    .data               extdrv_i2c_v2.lib(flash_extdrv_i2c_v2.o)
    0x08051348   0x00000004   Data   RW         4492    .data               HALflash.lib(flash_hal_common.o)
    0x0805134c   0x00000050   Data   RW         4559    .data               HALflash_qpic_bam_reduced.lib(flash_hal_nandc_common.o)
    0x0805139c   0x000001f8   Data   RW         4614    .data               chipinfo.lib(DalChipInfoLocal.o)
    0x08051594   0x0000001c   Data   RW         4645    .data               DALtlmm.lib(DALTLMM.o)
    0x080515b0   0x00000004   Data   RW         4731    .data               HALflash_qpic_bam_reduced.lib(flash_hal_nandc_predef_bam_core.o)
    0x080515b4   0x00000008   Data   RW         4747    .data               DALtlmm.lib(DALTLMMState.o)
    0x080515bc   0x00000008   Data   RW         4760    .data               HALtlmmV2.lib(HALtlmm.o)
    0x080515c4   0x00000054   Data   RW         4773    .data               DALflash_i2c_nor.lib(flash_nor_i2c_core.o)
    0x08051618   0x00000020   Data   RW         4865    .data               flash_bam.lib(flash_bam_wrapper.o)
    0x08051638   0x00000004   Data   RW          324    ERR_DATA_PTR        boot_error_dload.lib(boot_error_handler.o)


    Execution Region SBL1_DATA_ZI (Base: 0x08051640, Size: 0x000048ac, Max: 0xffffffff, ABSOLUTE)

    Base Addr    Size         Type   Attr      Idx    E Section Name        Object

    0x08051640   0x000002c8   Zero   RW           28    .bss                sbl1_mc.o
    0x08051908   0x00000054   Zero   RW          297    .bss                boot_target_hw.lib(boot_pbl_v1.o)
    0x0805195c   0x00000100   Zero   RW          321    .bss                boot_error_dload.lib(boot_error_handler.o)
    0x08051a5c   0x00000104   Zero   RW          707    .bss                boot_flash_common.lib(boot_clobber_prot.o)
    0x08051b60   0x000003a8   Zero   RW          753    .bss                boot_nand.lib(boot_flash_dev_nand.o)
    0x08051f08   0x0000018c   Zero   RW          824    .bss                boot_mem_manage.lib(boot_ddr_info.o)
    0x08052094   0x0000000c   PAD
    0x080520a0   0x000000b8   Zero   RW          848    .bss                boot_security.lib(boot_authenticator.o)
    0x08052158   0x00000020   Zero   RW          887    .bss                adc.lib(AdcBoot.o)
    0x08052178   0x000000f0   Zero   RW          898    .bss                seccfg.lib(seccfg.o)
    0x08052268   0x00000010   Zero   RW          994    .bss                DDR_TEST.lib(ddr_test.o)
    0x08052278   0x00000009   Zero   RW         1010    .bss                boot_logger.lib(boot_logger_ram.o)
    0x08052281   0x00000209   Zero   RW         1032    .bss                boot_logger.lib(boot_logger_uart.o)
    0x0805248a   0x00000002   PAD
    0x0805248c   0x00000b28   Zero   RW         1118    .bss                boot_nand.lib(boot_flash_dev_dal.o)
    0x08052fb4   0x0000007c   Zero   RW         1227    .bss                boot_cdt.lib(boot_config_eeprom.o)
    0x08053030   0x00000020   Zero   RW         1253    .bss                icb.lib(icbcfg.o)
    0x08053050   0x000002b8   Zero   RW         1324    .bss                Spmi.lib(SpmiBus.o)
    0x08053308   0x00000020   Zero   RW         1400    .bss                DALFwk.lib(DALModEnv.o)
    0x08053328   0x0000000c   Zero   RW         1540    .bss                busywait_lib.lib(busywait_hw_qtimer.o)
    0x08053334   0x0000006c   Zero   RW         1866    .bss                boot_nand.lib(boot_flash_trans_nand.o)
    0x080533a0   0x00000488   Zero   RW         1941    .bss                Spmi.lib(PmicArb.o)
    0x08053828   0x00000080   Zero   RW         1993    .bss                Spmi.lib(SpmiOsLogs.o)
    0x080538a8   0x00000080   Zero   RW         2010    .bss                version_uuid.lib(image_uuid.o)
    0x08053928   0x00000100   Zero   RW         2162    .bss                tsens.lib(TsensiConversion.o)
    0x08053a28   0x00000018   Zero   RW         2250    .bss                smem_boot.lib(smem.o)
    0x08053a40   0x00000150   Zero   RW         2566    .bss                pm_pbs_driver.lib(pm_pbs_info.o)
    0x08053b90   0x0000003c   Zero   RW         2578    .bss                pmic_framework.lib(pm_config_sbl.o)
    0x08053bcc   0x0000008c   Zero   RW         2592    .bss                pmic_framework.lib(pm_version.o)
    0x08053c58   0x00000018   Zero   RW         2607    .bss                pmic_framework.lib(pm_target_information.o)
    0x08053c70   0x00000020   Zero   RW         3124    .bss                DALflash_nand_dma_reduced.lib(flash_nand_init.o)
    0x08053c90   0x0000004c   Zero   RW         3145    .bss                DALflash_nand_dma_reduced.lib(flash_nand_partition.o)
    0x08053cdc   0x0000001c   Zero   RW         3171    .bss                platforminfo.lib(PlatformInfoFwk.o)
    0x08053cf8   0x00000010   Zero   RW         3290    .bss                pmic_config_boot.lib(pm_config_target.o)
    0x08053d08   0x00000010   Zero   RW         3306    .bss                pmic_config_boot.lib(pm_config_target.o)
    0x08053d18   0x0000001c   Zero   RW         3324    .bss                pmic_drivers_chg.lib(pm_chg_driver.o)
    0x08053d34   0x0000001c   Zero   RW         3330    .bss                pm_drivers_clks.lib(pm_clk_driver.o)
    0x08053d50   0x0000001c   Zero   RW         3336    .bss                pmic_drivers_coincell.lib(pm_coincell_driver.o)
    0x08053d6c   0x0000001c   Zero   RW         3343    .bss                pmic_drivers_gpio.lib(pm_gpio_driver.o)
    0x08053d88   0x0000001c   Zero   RW         3351    .bss                pmic_drivers_ibb.lib(pm_ibb_driver.o)
    0x08053da4   0x0000001c   Zero   RW         3358    .bss                pmic_drivers_lab.lib(pm_lab_driver.o)
    0x08053dc0   0x0000001c   Zero   RW         3407    .bss                pm_ldo_driver.lib(pm_ldo_driver.o)
    0x08053ddc   0x0000001c   Zero   RW         3452    .bss                pmic_drivers_lpg.lib(pm_lpg_driver.o)
    0x08053df8   0x0000001c   Zero   RW         3459    .bss                pmic_drivers_mpp.lib(pm_mpp_driver.o)
    0x08053e14   0x0000001c   Zero   RW         3479    .bss                pm_pbs_driver.lib(pm_pbs_client_driver.o)
    0x08053e30   0x0000001c   Zero   RW         3486    .bss                pmic_drivers_pwm.lib(pm_pwm_driver.o)
    0x08053e4c   0x0000001c   Zero   RW         3498    .bss                pmic_drivers_rgb.lib(pm_rgb_driver.o)
    0x08053e68   0x0000001c   Zero   RW         3504    .bss                pm_drivers_rtc.lib(pm_rtc_driver.o)
    0x08053e84   0x00000040   Zero   RW         3529    .bss                pmic_drivers_smb.lib(pm_smb.o)
    0x08053ec4   0x0000001c   Zero   RW         3571    .bss                pmic_drivers_buck_concrete_v6.lib(pm_smps_driver.o)
    0x08053ee0   0x0000001c   Zero   RW         3578    .bss                pmic_drivers_vib.lib(pm_vib_driver.o)
    0x08053efc   0x0000001c   Zero   RW         3585    .bss                pmic_drivers_vs.lib(pm_vs_driver.o)
    0x08053f18   0x0000001c   Zero   RW         3593    .bss                pmic_drivers_wled.lib(pm_wled_driver.o)
    0x08053f34   0x00000014   Zero   RW         3990    .bss                DALflash.lib(flash_dal_util.o)
    0x08053f48   0x0000001c   Zero   RW         3991    .bss                DALflash.lib(flash_dal_util.o)
    0x08053f64   0x000000e8   Zero   RW         4062    .bss                DALflash_nand_dma_reduced.lib(flash_nand_entry.o)
    0x0805404c   0x000000fc   Zero   RW         4125    .bss                HALflash_qpic_bam_reduced.lib(flash_hal_main.o)
    0x08054148   0x0000001c   Zero   RW         4174    .bss                chipinfo.lib(DalChipInfoFwk.o)
    0x08054164   0x0000001c   Zero   RW         4220    .bss                pmic_drivers_lbc.lib(pm_lbc_driver.o)
    0x08054180   0x0000001c   Zero   RW         4226    .bss                pmic_drivers_smbb.lib(pm_smbb_driver.o)
    0x0805419c   0x0000001c   Zero   RW         4245    .bss                DALtlmm.lib(DALTLMMFwk.o)
    0x080541b8   0x00000014   Zero   RW         4505    .bss                HALflash.lib(flash_hal_properties.o)
    0x080541cc   0x000001c4   Zero   RW         4644    .bss                DALtlmm.lib(DALTLMM.o)
    0x08054390   0x0000000c   Zero   RW         4712    .bss                DALflash_i2c_nor.lib(flash_nor_i2c_init.o)
    0x0805439c   0x0000000c   Zero   RW         4746    .bss                DALtlmm.lib(DALTLMMState.o)
    0x080543a8   0x00000270   Zero   RW         4812    .bss                HALflash_qpic_bam_reduced.lib(flash_hal_nandc_predef_bam_init.o)
    0x08054618   0x000000a4   Zero   RW         4864    .bss                flash_bam.lib(flash_bam_wrapper.o)
    0x080546bc   0x00001800   Zero   RW           36    BOOT_INTERNAL_HEAP  sbl1_mc.o
    0x08055ebc   0x00000004   Zero   RW          275    CACHE_MMU_ZI        boot_mmu.lib(boot_armv7_mmu.o)
    0x08055ec0   0x0000002c   Zero   RW          323    ERR_DATA            boot_error_dload.lib(boot_error_handler.o)


    Execution Region SBL1_LOG_META_INFO_SECTION (Base: 0x08055eec, Size: 0x00000040, Max: 0x00000040, ABSOLUTE, UNINIT)

    Base Addr    Size         Type   Attr      Idx    E Section Name        Object

    0x08055eec   0x00000000   Data   RW         5039    linker$$defined$$symbols  anon$$obj.o
    0x08055eec   0x00000040   Zero   RW            4    SBL1_LOG_META_INFO_SECTION.bss  anon$$obj.o


    Execution Region SBL1_LOG_BUF_SECTION (Base: 0x08055f2c, Size: 0x00000800, Max: 0x00000800, ABSOLUTE, UNINIT)

    Base Addr    Size         Type   Attr      Idx    E Section Name        Object

    0x08055f2c   0x00000000   Data   RW         5040    linker$$defined$$symbols  anon$$obj.o
    0x08055f2c   0x00000800   Zero   RW            5    SBL1_LOG_BUF_SECTION.bss  anon$$obj.o



  Load Region DEVICEPROGRAMMER_BUFFERS (Base: 0x80000000, Size: 0x00000000, Max: 0x00300000, ABSOLUTE)

    Execution Region DEVPRO_BUFF (Base: 0x80000000, Size: 0x00000000, Max: 0xffffffff, ABSOLUTE)

    **** No section assigned to this execution region ****



  Load Region BOOT_DDR (Base: 0x87c00000, Size: 0x00000000, Max: 0x000e0000, ABSOLUTE)

    Execution Region SBL1_DDR_ZI (Base: 0x87c00000, Size: 0x0002d5c0, Max: 0x00068000, ABSOLUTE)

    Base Addr    Size         Type   Attr      Idx    E Section Name        Object

    0x87c00000   0x00000000   Data   RW         5041    linker$$defined$$symbols  anon$$obj.o
    0x87c00000   0x0000002c   Zero   RW         2313    .bss                CeML.lib(CeML.o)
    0x87c0002c   0x000001a0   Zero   RW         3855    .bss                CeEL.lib(CeEL_Env.o)
    0x87c001cc   0x000000bc   Zero   RW           34    BOOT_CRASH_DUMP_ZONE  sbl1_mc.o
    0x87c00288   0x00000028   Zero   RW           70    BOOT_DDR_ZI_DATA_ZONE  sbl1_target.o
    0x87c002b0   0x00000010   PAD
    0x87c002c0   0x0000a000   Zero   RW          473    BOOT_DDR_ZI_DATA_ZONE  boot_error_dload.lib(boot_hash_buffer.o)
    0x87c0a2c0   0x00001000   Zero   RW          757    BOOT_DDR_ZI_DATA_ZONE  boot_nand.lib(boot_flash_dev_nand.o)
    0x87c0b2c0   0x00002300   Zero   RW         1197    BOOT_DDR_ZI_DATA_ZONE  boot_image_loading.lib(boot_elf_loader.o)
    0x87c0d5c0   0x00020000   Zero   RW           35    BOOT_EXTERNAL_HEAP  sbl1_mc.o


    Execution Region SBL1_DDR_PAGE_TABLE (Base: 0x87c68000, Size: 0x00007800, Max: 0x00008000, ABSOLUTE)

    Base Addr    Size         Type   Attr      Idx    E Section Name        Object

    0x87c68000   0x00004000   Zero   RW          267    BOOT_PAGE_TABLE_ZONE  boot_mmu.lib(boot_page_table.o)
    0x87c6c000   0x00003800   Zero   RW          268    BOOT_PAGE_TABLE_ZONE  boot_mmu.lib(boot_page_table.o)


    Execution Region SBL1_DLOAD_ZI (Base: 0x87c70000, Size: 0x00003968, Max: 0xffffffff, ABSOLUTE)

    Base Addr    Size         Type   Attr      Idx    E Section Name        Object

    0x87c70000   0x00000000   Data   RW         5042    linker$$defined$$symbols  anon$$obj.o
    0x87c70000   0x00001190   Zero   RW          170    .bss                sbl1_sahara.o
    0x87c71190   0x00000ee8   Zero   RW          370    .bss                boot_error_dload.lib(boot_dload_debug.o)
    0x87c72078   0x00000bd0   Zero   RW          429    .bss                boot_error_dload.lib(boot_sahara.o)
    0x87c72c48   0x00000d10   Zero   RW          176    BOOT_UNCACHED_DDR_ZI_ZONE  sbl1_sahara.o
    0x87c73958   0x00000010   Zero   RW          218    BOOT_UNCACHED_DDR_ZI_ZONE  boot_dload_debug_target.o


    Execution Region SBL1_DEVPRO_USB_ZI_DUMMY (Base: 0x87c73968, Size: 0x00000000, Max: 0xffffffff, ABSOLUTE)

    **** No section assigned to this execution region ****


    Execution Region SBL1_DEVICEPROGRAMMER_USB_ZI (Base: 0x87c74000, Size: 0x000035b0, Max: 0xffffffff, ABSOLUTE)

    Base Addr    Size         Type   Attr      Idx    E Section Name        Object

    0x87c74000   0x00000000   Data   RW         5043    linker$$defined$$symbols  anon$$obj.o
    0x87c74000   0x00000200   Zero   RW         1703    .bss                qhsusb_bulk_chg.lib(qhsusb_al_bulk.o)
    0x87c74200   0x00000534   Zero   RW         2639    .bss                qhsusb_bulk_chg.lib(qhsusb_fd_hdlc.o)
    0x87c74734   0x0000004a   Zero   RW         2686    .bss                qhsusb_bulk_chg.lib(qhsusb_dcd_ch9.o)
    0x87c7477e   0x00000082   PAD
    0x87c74800   0x00002180   Zero   RW         2746    .bss                qhsusb_bulk_chg.lib(qhsusb_dci.o)
    0x87c76980   0x0000000c   Zero   RW         2810    .bss                qhsusb_bulk_chg.lib(qhsusb_dci_8909.o)
    0x87c7698c   0x00000c00   Zero   RW         2858    .bss                qhsusb_bulk_chg.lib(qhsusb_log.o)
    0x87c7758c   0x00000022   Zero   RW         4270    .bss                qhsusb_bulk_chg.lib(qhsusb_fd_chg.o)


    Execution Region SBL1_DDR_LOG_META_INFO_SECTION (Base: 0x87cdf600, Size: 0x00000040, Max: 0x00000040, ABSOLUTE, UNINIT)

    Base Addr    Size         Type   Attr      Idx    E Section Name        Object

    0x87cdf600   0x00000040   Zero   RW            6    SBL1_DDR_LOG_META_INFO_SECTION.bss  anon$$obj.o


    Execution Region SBL1_DDR_LOG_BUF_SECTION (Base: 0x87cdf640, Size: 0x000009c0, Max: 0x000009c0, ABSOLUTE, UNINIT)

    Base Addr    Size         Type   Attr      Idx    E Section Name        Object

    0x87cdf640   0x000009c0   Zero   RW            7    SBL1_DDR_LOG_BUF_SECTION.bss  anon$$obj.o



  Load Region BOOT_SYSTEM_DEBUG (Base: 0x00220000, Size: 0x000028b4, Max: 0x00003000, ABSOLUTE)

    Execution Region SYSTEM_DEBUG_CO_RO (Base: 0x00220000, Size: 0x000002b8, Max: 0x00003000, ABSOLUTE)

    Base Addr    Size         Type   Attr      Idx    E Section Name        Object

    0x00220000   0x00000178   Code   RO          114    SYSTEM_DEBUG_ENTRY  sys_debug.o
    0x00220178   0x00000026   Code   RO          116    i.Boot_ToggleClock  sys_debug_mc.o
    0x0022019e   0x00000002   PAD
    0x002201a0   0x000000ac   Code   RO          118    i.sys_debug_enable_clocks  sys_debug_mc.o
    0x0022024c   0x0000006c   Code   RO          121    i.sys_debug_main_ctl  sys_debug_mc.o


    Execution Region BOOT_A53 (Base: 0x002202b8, Size: 0x00000118, Max: 0xffffffff, ABSOLUTE)

    Base Addr    Size         Type   Attr      Idx    E Section Name        Object

    0x002202b8   0x00000048   Code   RO         1005    BOOT_A53_ASM        boot_target_hw.lib(boot_a53_asm.o)
    0x00220300   0x00000008   Ven    RO         5079    Veneer$$Code        anon$$obj.o
    0x00220308   0x00000008   Ven    RO         5080    Veneer$$Code        anon$$obj.o
    0x00220310   0x00000048   Code   RO          278    i.boot_hw_powerdown  boot_target_hw.lib(boot_a53.o)
    0x00220358   0x00000030   Code   RO          279    i.boot_hw_reset     boot_target_hw.lib(boot_a53.o)
    0x00220388   0x00000048   Code   RO          281    i.boot_switch_to_aarch64  boot_target_hw.lib(boot_a53.o)


    Execution Region BOOT_SEGMENT2_DDRFW (Base: 0x002203d0, Size: 0x000024e4, Max: 0xffffffff, ABSOLUTE)

    Base Addr    Size         Type   Attr      Idx    E Section Name        Object

    0x002203d0   0x0000000a   Ven    RO         5081    Veneer$$Code        anon$$obj.o
    0x002203da   0x00000002   PAD
    0x002203dc   0x00000008   Ven    RO         5082    Veneer$$Code        anon$$obj.o
    0x002203e4   0x00000008   Ven    RO         5083    Veneer$$Code        anon$$obj.o
    0x002203ec   0x00000008   Ven    RO         5084    Veneer$$Code        anon$$obj.o
    0x002203f4   0x00000008   Ven    RO         5085    Veneer$$Code        anon$$obj.o
    0x002203fc   0x00000008   Ven    RO         5086    Veneer$$Code        anon$$obj.o
    0x00220404   0x0000000a   Ven    RO         5087    Veneer$$Code        anon$$obj.o
    0x0022040e   0x00000002   PAD
    0x00220410   0x00000008   Ven    RO         5088    Veneer$$Code        anon$$obj.o
    0x00220418   0x00000008   Ven    RO         5089    Veneer$$Code        anon$$obj.o
    0x00220420   0x00000008   Ven    RO         5090    Veneer$$Code        anon$$obj.o
    0x00220428   0x00000002   Code   RO         1726    i.DDR_SYNC_INIT     DDR_DRIVERS.lib(ddr_sync.o)
    0x0022042a   0x00000002   Code   RO         1727    i.DDR_SYNC_LOCK     DDR_DRIVERS.lib(ddr_sync.o)
    0x0022042c   0x00000002   Code   RO         1728    i.DDR_SYNC_UNLOCK   DDR_DRIVERS.lib(ddr_sync.o)
    0x0022042e   0x00000002   PAD
    0x00220430   0x0000007c   Code   RO         2869    i.HAL_SDRAM_AHB2PHY_Broadcast_Enable  DDR_HAL.lib(AHB2PHY.o)
    0x002204ac   0x000000a4   Code   RO         1751    i.HAL_SDRAM_BIMC_Rank_Detection  DDR_HAL.lib(BIMC_v1.o)
    0x00220550   0x0000006c   Code   RO         1752    i.HAL_SDRAM_BIMC_Update_Clock_Period  DDR_HAL.lib(BIMC_v1.o)
    0x002205bc   0x00000014   Code   RO         1753    i.HAL_SDRAM_DDR_Wait  DDR_HAL.lib(BIMC_v1.o)
    0x002205d0   0x0000001c   Code   RO         1777    i.HAL_SDRAM_DPE_Disable_Power_Down  DDR_HAL.lib(BIMC_DPE_v1.o)
    0x002205ec   0x000000c0   Code   RO         1778    i.HAL_SDRAM_DPE_Force_Update_Latency  DDR_HAL.lib(BIMC_DPE_v1.o)
    0x002206ac   0x0000008c   Code   RO         1779    i.HAL_SDRAM_DPE_Init  DDR_HAL.lib(BIMC_DPE_v1.o)
    0x00220738   0x00000038   Code   RO         1780    i.HAL_SDRAM_DPE_Post_Clock_Switch  DDR_HAL.lib(BIMC_DPE_v1.o)
    0x00220770   0x00000064   Code   RO         1781    i.HAL_SDRAM_DPE_Pre_Clock_Switch  DDR_HAL.lib(BIMC_DPE_v1.o)
    0x002207d4   0x00000154   Code   RO         1782    i.HAL_SDRAM_DPE_Update_AC_Parameters  DDR_HAL.lib(BIMC_DPE_v1.o)
    0x00220928   0x000000ec   Code   RO         1783    i.HAL_SDRAM_DPE_Update_Latency  DDR_HAL.lib(BIMC_DPE_v1.o)
    0x00220a14   0x0000001a   Code   RO         1754    i.HAL_SDRAM_Enter_Deep_Power_Down  DDR_HAL.lib(BIMC_v1.o)
    0x00220a2e   0x00000032   Code   RO         1755    i.HAL_SDRAM_Enter_Self_Refresh  DDR_HAL.lib(BIMC_v1.o)
    0x00220a60   0x00000020   Code   RO         1756    i.HAL_SDRAM_Exit_Deep_Power_Down  DDR_HAL.lib(BIMC_v1.o)
    0x00220a80   0x0000003a   Code   RO         1757    i.HAL_SDRAM_Exit_Self_Refresh  DDR_HAL.lib(BIMC_v1.o)
    0x00220aba   0x00000072   Code   RO         1758    i.HAL_SDRAM_Get_Base_Addr  DDR_HAL.lib(BIMC_v1.o)
    0x00220b2c   0x0000017c   Code   RO         1759    i.HAL_SDRAM_Init    DDR_HAL.lib(BIMC_v1.o)
    0x00220ca8   0x00000078   Code   RO         1823    i.HAL_SDRAM_PHY_Disable_CDC_Cal  DDR_HAL.lib(DDR_PHY.o)
    0x00220d20   0x0000002a   Code   RO         1824    i.HAL_SDRAM_PHY_Disable_IO_Cal  DDR_HAL.lib(DDR_PHY.o)
    0x00220d4a   0x00000002   PAD
    0x00220d4c   0x0000009c   Code   RO         1825    i.HAL_SDRAM_PHY_Disable_Rapid_CDC_Cal  DDR_HAL.lib(DDR_PHY.o)
    0x00220de8   0x0000004c   Code   RO         1826    i.HAL_SDRAM_PHY_Enable_CDC_Cal  DDR_HAL.lib(DDR_PHY.o)
    0x00220e34   0x00000020   Code   RO         1827    i.HAL_SDRAM_PHY_Enable_IO_Cal  DDR_HAL.lib(DDR_PHY.o)
    0x00220e54   0x00000094   Code   RO         1828    i.HAL_SDRAM_PHY_Enable_Rapid_CDC_Cal  DDR_HAL.lib(DDR_PHY.o)
    0x00220ee8   0x000000cc   Code   RO         1829    i.HAL_SDRAM_PHY_Init  DDR_HAL.lib(DDR_PHY.o)
    0x00220fb4   0x000000bc   Code   RO         1830    i.HAL_SDRAM_PHY_Manual_CDC_Cal  DDR_HAL.lib(DDR_PHY.o)
    0x00221070   0x00000066   Code   RO         1831    i.HAL_SDRAM_PHY_Manual_IO_Cal  DDR_HAL.lib(DDR_PHY.o)
    0x002210d6   0x00000002   PAD
    0x002210d8   0x00000048   Code   RO         1832    i.HAL_SDRAM_PHY_Update_CDC_Config  DDR_HAL.lib(DDR_PHY.o)
    0x00221120   0x00000070   Code   RO          962    i.HAL_SDRAM_PHY_Update_CDC_Delay_Target  DDR_DRIVERS.lib(ddr_target.o)
    0x00221190   0x00000040   Code   RO         1834    i.HAL_SDRAM_PHY_Update_Drive_Strength  DDR_HAL.lib(DDR_PHY.o)
    0x002211d0   0x00000090   Code   RO         1760    i.HAL_SDRAM_RL      DDR_HAL.lib(BIMC_v1.o)
    0x00221260   0x0000015c   Code   RO         1761    i.HAL_SDRAM_Ram_Size_Detection  DDR_HAL.lib(BIMC_v1.o)
    0x002213bc   0x00000058   Code   RO         1791    i.HAL_SDRAM_Read_MR  DDR_HAL.lib(BIMC_SHKE_v1.o)
    0x00221414   0x00000200   Code   RO         2862    i.HAL_SDRAM_SCMO_Init  DDR_HAL.lib(BIMC_SCMO_v1.o)
    0x00221614   0x00000058   Code   RO         2863    i.HAL_SDRAM_SCMO_Rank_Disable  DDR_HAL.lib(BIMC_SCMO_v1.o)
    0x0022166c   0x00000030   Code   RO         2864    i.HAL_SDRAM_SCMO_Rank_Enable  DDR_HAL.lib(BIMC_SCMO_v1.o)
    0x0022169c   0x000000a0   Code   RO         1792    i.HAL_SDRAM_SHKE_DPD_Enter  DDR_HAL.lib(BIMC_SHKE_v1.o)
    0x0022173c   0x00000048   Code   RO         1793    i.HAL_SDRAM_SHKE_DPD_Exit  DDR_HAL.lib(BIMC_SHKE_v1.o)
    0x00221784   0x00000218   Code   RO         1794    i.HAL_SDRAM_SHKE_Device_Init  DDR_HAL.lib(BIMC_SHKE_v1.o)
    0x0022199c   0x00000034   Code   RO         1795    i.HAL_SDRAM_SHKE_Disable_Auto_Refresh  DDR_HAL.lib(BIMC_SHKE_v1.o)
    0x002219d0   0x00000034   Code   RO         1796    i.HAL_SDRAM_SHKE_Disable_HW_Self_Refresh  DDR_HAL.lib(BIMC_SHKE_v1.o)
    0x00221a04   0x0000001c   Code   RO         1797    i.HAL_SDRAM_SHKE_Disable_Periodic_SRR  DDR_HAL.lib(BIMC_SHKE_v1.o)
    0x00221a20   0x0000001c   Code   RO         1798    i.HAL_SDRAM_SHKE_Disable_ZQCAL  DDR_HAL.lib(BIMC_SHKE_v1.o)
    0x00221a3c   0x00000034   Code   RO         1799    i.HAL_SDRAM_SHKE_Enable_Auto_Refresh  DDR_HAL.lib(BIMC_SHKE_v1.o)
    0x00221a70   0x00000034   Code   RO         1800    i.HAL_SDRAM_SHKE_Enable_HW_Self_Refresh  DDR_HAL.lib(BIMC_SHKE_v1.o)
    0x00221aa4   0x0000001c   Code   RO         1801    i.HAL_SDRAM_SHKE_Enable_Periodic_SRR  DDR_HAL.lib(BIMC_SHKE_v1.o)
    0x00221ac0   0x0000001c   Code   RO         1802    i.HAL_SDRAM_SHKE_Enable_ZQCAL  DDR_HAL.lib(BIMC_SHKE_v1.o)
    0x00221adc   0x00000044   Code   RO         1803    i.HAL_SDRAM_SHKE_Enter_Self_Refresh  DDR_HAL.lib(BIMC_SHKE_v1.o)
    0x00221b20   0x00000044   Code   RO         1804    i.HAL_SDRAM_SHKE_Exit_Self_Refresh  DDR_HAL.lib(BIMC_SHKE_v1.o)
    0x00221b64   0x0000005c   Code   RO         1805    i.HAL_SDRAM_SHKE_Init  DDR_HAL.lib(BIMC_SHKE_v1.o)
    0x00221bc0   0x00000058   Code   RO         1762    i.HAL_SDRAM_WL      DDR_HAL.lib(BIMC_v1.o)
    0x00221c18   0x00000060   Code   RO         1806    i.HAL_SDRAM_Write_MR  DDR_HAL.lib(BIMC_SHKE_v1.o)
    0x00221c78   0x0000001a   Code   RO         1885    i.HAL_bimc_GetSlaveSegment  icb.lib(HALbimc.o)
    0x00221c92   0x0000000a   Code   RO         1886    i.HAL_bimc_Init     icb.lib(HALbimc.o)
    0x00221c9c   0x0000001a   Code   RO         1902    i.HAL_bimc_SetSlaveSegment  icb.lib(HALbimc.o)
    0x00221cb6   0x00000002   PAD
    0x00221cb8   0x00000118   Code   RO         2885    i.bimc_GetSlaveSegment  icb.lib(HALbimcImpl.o)
    0x00221dd0   0x0000002c   Code   RO         2886    i.bimc_Init         icb.lib(HALbimcImpl.o)
    0x00221dfc   0x000000d0   Code   RO         2902    i.bimc_SetSlaveSegment  icb.lib(HALbimcImpl.o)
    0x00221ecc   0x00000004   Code   RO          629    i.boot_ddr_do_ddr_training  boot_extern_driver_interface.lib(boot_extern_ddr_interface.o)
    0x00221ed0   0x00000004   Code   RO          630    i.boot_ddr_get_info  boot_extern_driver_interface.lib(boot_extern_ddr_interface.o)
    0x00221ed4   0x00000004   Code   RO          631    i.boot_ddr_get_partition  boot_extern_driver_interface.lib(boot_extern_ddr_interface.o)
    0x00221ed8   0x00000004   Code   RO          632    i.boot_ddr_get_size  boot_extern_driver_interface.lib(boot_extern_ddr_interface.o)
    0x00221edc   0x00000004   Code   RO          633    i.boot_ddr_initialize_device  boot_extern_driver_interface.lib(boot_extern_ddr_interface.o)
    0x00221ee0   0x00000004   Code   RO          634    i.boot_ddr_params_get_training_data  boot_extern_driver_interface.lib(boot_extern_ddr_interface.o)
    0x00221ee4   0x00000004   Code   RO          636    i.boot_ddr_params_is_training_required  boot_extern_driver_interface.lib(boot_extern_ddr_interface.o)
    0x00221ee8   0x00000004   Code   RO          637    i.boot_ddr_params_set_training_data  boot_extern_driver_interface.lib(boot_extern_ddr_interface.o)
    0x00221eec   0x00000004   Code   RO          638    i.boot_ddr_post_init  boot_extern_driver_interface.lib(boot_extern_ddr_interface.o)
    0x00221ef0   0x00000004   Code   RO          639    i.boot_ddr_restore_from_wdog_reset  boot_extern_driver_interface.lib(boot_extern_ddr_interface.o)
    0x00221ef4   0x00000004   Code   RO          640    i.boot_ddr_set_params  boot_extern_driver_interface.lib(boot_extern_ddr_interface.o)
    0x00221ef8   0x000000e0   Code   RO          642    i.boot_ddr_test     boot_extern_driver_interface.lib(boot_extern_ddr_interface.o)
    0x00221fd8   0x00000020   Code   RO          963    i.ddr_busywait      DDR_DRIVERS.lib(ddr_target.o)
    0x00221ff8   0x00000020   Code   RO          964    i.ddr_busywait_init  DDR_DRIVERS.lib(ddr_target.o)
    0x00222018   0x00000010   Code   RO         1763    i.ddr_divide_func   DDR_HAL.lib(BIMC_v1.o)
    0x00222028   0x00000002   Code   RO          965    i.ddr_do_phy_training  DDR_DRIVERS.lib(ddr_target.o)
    0x0022202a   0x00000002   PAD
    0x0022202c   0x0000006c   Code   RO          913    i.ddr_enter_deep_power_down  DDR_DRIVERS.lib(ddr_drivers.o)
    0x00222098   0x00000070   Code   RO          914    i.ddr_enter_self_refresh  DDR_DRIVERS.lib(ddr_drivers.o)
    0x00222108   0x00000070   Code   RO          916    i.ddr_exit_deep_power_down  DDR_DRIVERS.lib(ddr_drivers.o)
    0x00222178   0x00000070   Code   RO          917    i.ddr_exit_self_refresh  DDR_DRIVERS.lib(ddr_drivers.o)
    0x002221e8   0x00000138   Code   RO          919    i.ddr_get_info      DDR_DRIVERS.lib(ddr_drivers.o)
    0x00222320   0x0000003c   Code   RO          939    i.ddr_get_params    DDR_DRIVERS.lib(ddr_params.o)
    0x0022235c   0x00000080   Code   RO          920    i.ddr_get_partition  DDR_DRIVERS.lib(ddr_drivers.o)
    0x002223dc   0x0000000c   Code   RO          940    i.ddr_get_shared_header  DDR_DRIVERS.lib(ddr_params.o)
    0x002223e8   0x0000003c   Code   RO          921    i.ddr_get_size      DDR_DRIVERS.lib(ddr_drivers.o)
    0x00222424   0x00000048   Code   RO          923    i.ddr_init          DDR_DRIVERS.lib(ddr_drivers.o)
    0x0022246c   0x00000080   Code   RO          924    i.ddr_initialize_device  DDR_DRIVERS.lib(ddr_drivers.o)
    0x002224ec   0x0000000c   Code   RO          943    i.ddr_param_interleaved  DDR_DRIVERS.lib(ddr_params.o)
    0x002224f8   0x0000008c   Code   RO          944    i.ddr_params_detection  DDR_DRIVERS.lib(ddr_params.o)
    0x00222584   0x00000010   Code   RO          945    i.ddr_params_get_training_data  DDR_DRIVERS.lib(ddr_params.o)
    0x00222594   0x00000004   Code   RO          967    i.ddr_params_is_training_required  DDR_DRIVERS.lib(ddr_target.o)
    0x00222598   0x00000058   Code   RO          946    i.ddr_params_set_shared_memory  DDR_DRIVERS.lib(ddr_params.o)
    0x002225f0   0x00000030   Code   RO          947    i.ddr_params_set_training_data  DDR_DRIVERS.lib(ddr_params.o)
    0x00222620   0x00000004   Code   RO          968    i.ddr_post_init     DDR_DRIVERS.lib(ddr_target.o)
    0x00222624   0x0000009c   Code   RO          969    i.ddr_restore_from_wdog_reset  DDR_DRIVERS.lib(ddr_target.o)
    0x002226c0   0x00000028   Code   RO          948    i.ddr_restore_param_wdog_reset  DDR_DRIVERS.lib(ddr_params.o)
    0x002226e8   0x00000036   Code   RO         1733    i.ddr_set_config    DDR_DRIVERS.lib(ddr_config.o)
    0x0022271e   0x00000002   PAD
    0x00222720   0x0000005c   Code   RO          949    i.ddr_set_params    DDR_DRIVERS.lib(ddr_params.o)
    0x0022277c   0x00000118   Code   RO          971    i.ddr_target_init   DDR_DRIVERS.lib(ddr_target.o)
    0x00222894   0x00000020   Data   RO          643    .constdata          boot_extern_driver_interface.lib(boot_extern_ddr_interface.o)



  Load Region BOOT_SYSTEM_DEBUG_DATA (Base: 0x00223000, Size: 0x00000980, Max: 0x00001000, ABSOLUTE)

    Execution Region SYSTEM_DEBUG_DATA (Base: 0x00223000, Size: 0x00000960, Max: 0x00001000, ABSOLUTE)

    Base Addr    Size         Type   Attr      Idx    E Section Name        Object

    0x00223000   0x00000018   Data   RW          644    .data               boot_extern_driver_interface.lib(boot_extern_ddr_interface.o)
    0x00223018   0x0000000c   Data   RW          926    .data               DDR_DRIVERS.lib(ddr_drivers.o)
    0x00223024   0x00000024   Data   RW          950    .data               DDR_DRIVERS.lib(ddr_params.o)
    0x00223048   0x00000040   Data   RW          973    .data               DDR_DRIVERS.lib(ddr_target.o)
    0x00223088   0x00000310   Data   RW         1734    .data               DDR_DRIVERS.lib(ddr_config.o)
    0x00223398   0x00000058   Data   RW         1735    .data               DDR_DRIVERS.lib(ddr_config.o)
    0x002233f0   0x000000c0   Data   RW         1736    .data               DDR_DRIVERS.lib(ddr_config.o)
    0x002234b0   0x000000b8   Data   RW         1737    .data               DDR_DRIVERS.lib(ddr_config.o)
    0x00223568   0x00000088   Data   RW         1738    .data               DDR_DRIVERS.lib(ddr_config.o)
    0x002235f0   0x00000008   Data   RW         1739    .data               DDR_DRIVERS.lib(ddr_config.o)
    0x002235f8   0x00000010   Data   RW         1740    .data               DDR_DRIVERS.lib(ddr_config.o)
    0x00223608   0x00000008   Data   RW         1741    .data               DDR_DRIVERS.lib(ddr_config.o)
    0x00223610   0x00000004   Data   RW         1742    .data               DDR_DRIVERS.lib(ddr_config.o)
    0x00223614   0x00000004   Data   RW         1743    .data               DDR_DRIVERS.lib(ddr_config.o)
    0x00223618   0x00000004   Data   RW         1744    .data               DDR_DRIVERS.lib(ddr_config.o)
    0x0022361c   0x00000004   Data   RW         1745    .data               DDR_DRIVERS.lib(ddr_config.o)
    0x00223620   0x00000004   Data   RW         1746    .data               DDR_DRIVERS.lib(ddr_config.o)
    0x00223624   0x00000004   Data   RW         1747    .data               DDR_DRIVERS.lib(ddr_config.o)
    0x00223628   0x00000004   Data   RW         1748    .data               DDR_DRIVERS.lib(ddr_config.o)
    0x0022362c   0x00000004   Data   RW         1749    .data               DDR_DRIVERS.lib(ddr_config.o)
    0x00223630   0x00000314   Data   RW          115    SYSTEM_DEBUG_DATA   sys_debug.o
    0x00223944   0x0000001c   Zero   RW          925    .bss                DDR_DRIVERS.lib(ddr_drivers.o)


    Execution Region BOOT_SEGMENT2_DDRFW_TBL (Base: 0x00223960, Size: 0x00000038, Max: 0xffffffff, ABSOLUTE)

    Base Addr    Size         Type   Attr      Idx    E Section Name        Object

    0x00223960   0x00000038   Data   RW          974    ddr_func_ptr        DDR_DRIVERS.lib(ddr_target.o)


    Execution Region SYSTEM_DEBUG_QSEE_INFO (Base: 0x00223998, Size: 0x00000020, Max: 0x00000020, ABSOLUTE, UNINIT)

    Base Addr    Size         Type   Attr      Idx    E Section Name        Object

    0x00223998   0x00000000   Data   RW         5044    linker$$defined$$symbols  anon$$obj.o
    0x00223998   0x00000020   Zero   RW            8    SYSTEM_DEBUG_QSEE_INFO.bss  anon$$obj.o


==============================================================================

Image component sizes


      Code (inc. data)   RO Data    RW Data    ZI Data      Debug   Object Name

         0          0         86          0          0          0   SBL1_nand_oem_uuid.o
         0          0          0       1028          0          0   boot_cdt_array.o
       444        136        192          0         16        140   boot_dload_debug_target.o
         0          0          0        244          0          0   boot_rollback_img_set.o
         0          0         60          0          0          0   oem_version.o
         0          0         47          0          0          0   qc_version.o
       704         44          0          0          0        164   sbl1.o
       550        136         76        648          0        516   sbl1_config.o
      1322        548          0          4          0       1256   sbl1_hw.o
      2368        544        609        136     138116       3028   sbl1_mc.o
      1186        204          0        248       7840       3892   sbl1_sahara.o
       268         54         32         12         40        268   sbl1_target.o
       200         26          0          0          0        152   seccfg_memset_pheripheral.o
       376         16          0        788          0          0   sys_debug.o
       318         40          0          0          0        384   sys_debug_mc.o

    ----------------------------------------------------------------------
      8078       1868       1105       3108     175308       9800   Object Totals
       328        120          0          0      29280          0   (incl. Generated)
        14          0          3          0         16          0   (incl. Padding)

    ----------------------------------------------------------------------

      Code (inc. data)   RO Data    RW Data    ZI Data      Debug   Library Member Name

      1416         48          0          0          0       1224   CeCL.o
         8          0          0          0          0        232   CeCL_Ce0.o
       240         10          0          0          0       1472   CeEL.o
       116         12          0          5        416        232   CeEL_Env.o
        74          0          0          0          0        256   CeEL_Reg.o
      2010         80          0          8         44       1060   CeML.o
       664          8          0          0          0        644   ClockSBLCommon.o
      1438        220        152          8          0       2232   ClockSBL.o
       124         10          0          4          0        248   ClockSBLCPU.o
       450         52          0       1348          0        720   ClockSBLConfig.o
       144         20          0          4          0        256   ClockTLMMSpare.o
       156         14         96          0          0        252   ClockTools.o
         0          0       4716        348          0          0   DALConfig_boot.o
         0          0          0         76          0          0   DALModDir_boot.o
       648        138          0         16          0       1024   DALGlbCtxt.o
       122         14          0         32          0        484   DALHeap.o
       996         68          0         28          0        916   DALMemDesc.o
      1026         64         12         12         32       3808   DALModEnv.o
       806          6          0          0          0        684   DALProps.o
       474          0          0          0          0        896   dalfwkbase.o
       144          0          0          0          0        492   flash_dal.o
       750         20        112        448          0       3424   flash_dal_fwk.o
         0          0         12         16          0          0   flash_dal_info.o
       162         14          0          0         48        844   flash_dal_util.o
       106         28          0         24          0        268   flash_properties.o
       288          4          0         84          0       2616   flash_nor_entry_reduced.o
        24         12          0       1248          0        232   flash_nor_i2c_config.o
       342          0          0         84          0        404   flash_nor_i2c_core.o
       644         50          0          0         12       1264   flash_nor_i2c_init.o
        88         12          0          4          0        256   flash_boot_ops_setup.o
         4          0          0          0          0        116   flash_dal_nand_reduced.o
        12          6         64        404          0        116   flash_nand_config.o
       690         16          0          0          0        800   flash_nand_core.o
      1212        156          0          1        232       1924   flash_nand_entry.o
      1540         64          0         12         32       1692   flash_nand_init.o
       996         52          0          8         76        696   flash_nand_partition.o
       752         14          0        100          0        420   flash_onfi.o
      1374        278          0         28        452       2132   DALTLMM.o
       180         20         60        160         28       1764   DALTLMMFwk.o
         0          0         12          8          0          0   DALTLMMInfo.o
       360         48          0          8         12        368   DALTLMMState.o
        54          0          0       1448          0        128   ddr_config.o
      1144         42          0         12         28       1212   ddr_drivers.o
       508         60          0         36          0       1088   ddr_params.o
         6          0          0          0          0        348   ddr_sync.o
       622        140          0        120          0        992   ddr_target.o
       124          6          0          0          0        124   AHB2PHY.o
      1092         58          0          0          0        896   BIMC_DPE_v1.o
       648         20          0          0          0        372   BIMC_SCMO_v1.o
      1500        116          0          0          0       1988   BIMC_SHKE_v1.o
      1548        130          0          0          0       1700   BIMC_v1.o
      1204         90          0          0          0       1468   DDR_PHY.o
      2154       1078          0          4         16       1200   ddr_test.o
         0          0          0          4          0          0   flash_hal_common.o
       212         40          0          0         20        728   flash_hal_properties.o
        84          0          0          0          0          0   flash_hal_util_asm.o
       636        122          0          0        252       2196   flash_hal_main.o
       966         58        240         80          0       1096   flash_hal_nandc_common.o
       522         74          0          4          0        636   flash_hal_nandc_predef_bam_core.o
      1500         58          0          0          0       1436   flash_hal_nandc_predef_bam_exec.o
      2982         70          0          0        624       1704   flash_hal_nandc_predef_bam_init.o
       210         28          0          0          0        720   flash_hal_nandc_predef_bam_pprocess.o
         8          0          0          0          0        232   flash_hal_nandc_reduced.o
       216         28          0          8          0        600   HALtlmm.o
      3824         84          0          4          0       3860   I2cDeviceQup.o
         4          0         12         48          0        116   I2cDriverDalInfo.o
       614        108          0          0          0       1116   I2cPlatSvc.o
       236         26          0          0          0       1576   I2cSys.o
       146          4          0          0          0        380   PrngCL.o
         8          0          0          0          0        232   PrngEL.o
        38          0          0          0          0        140   PrngML.o
      1348         90          0          0       1160       1656   PmicArb.o
      1024        174          0          0        696       1092   SpmiBus.o
      1068         54          5          4          0       1132   SpmiCfg.o
        20          4          0          4          0        116   SpmiHal.o
       428         72          0          0          0        524   SpmiMaster.o
       316        126          0         12          0        504   SpmiOs.o
       306         62          0         16          0       1208   SpmiOsImage.o
         0          0          0          0        128          0   SpmiOsLogs.o
       442          6          0          0          0        536   SpmiRadixTree.o
       232         64        404          0          0        116   GeniImage.o
       970         20         43         60          0        936   Uart.o
       478          0          0          0          0       3152   Uart_hal.o
       124         10          0        520          0        128   Uart_log.o
       748        148         29          0          0       1020   Uart_sbl_os.o
       538         80          0          8         32        548   AdcBoot.o
       210          6          0          0          0        376   AdcScalingUtil.o
      1816         32          0          0          0       3152   DalVAdc.o
       250         12         68        472          0       1988   DalVAdcFwk.o
         0          0         12          0          0          0   DalVAdcInfo.o
       812         46          0          0          0       1184   VAdcHal.o
         0          0         16          0          0          0   AdcBsp.o
         0          0       1255          0          0          0   VAdcBsp.o
       524        246          0         15          0        536   boot_apt_test.o
        20          0          0          0          0          0   boot_apt_test_asm.o
      1568         52          0          4          0       2668   bamcore.o
       166          4          0          0          0       1536   bamosal.o
      2728         22          0         16          0       2240   bams.o
       112         12         96          8          0        252   bamtgtcfg.o
       408        128          0          8          0        412   boot_config_data.o
       748        142          0         16        124        528   boot_config_eeprom.o
       242         46          0          0          0        712   boot_dload.o
      1036        264         25         12       3816       1532   boot_dload_debug.o
       806        384          0         24        300       1684   boot_error_handler.o
       422         18          0         12          0        652   boot_hash.o
        38         16          0          1      40960        464   boot_hash_buffer.o
      4680        272          0        116       3024       4636   boot_sahara.o
         4          0          0          0          0        116   boot_extern_apt_interface.o
         4          0          0          0          0        116   boot_extern_bam_interface.o
         8          0          0          0          0        232   boot_extern_bus_interface.o
         8          0          0          0          0        232   boot_extern_busywait_interface.o
        48          0          0          0          0       1276   boot_extern_clk_interface.o
        28          0          0          0          0        812   boot_extern_crypto_interface.o
        58          0          0          0          0       1168   boot_extern_dal_interface.o
       268         44         32         24          0       1428   boot_extern_ddr_interface.o
        58          0          0          0          0        952   boot_extern_flash_interface.o
        32          0          0          0          0        928   boot_extern_hsusb_interface.o
        12          0          0          0          0        232   boot_extern_platforminfo_interface.o
        38          0          0          0          0        928   boot_extern_pmic_interface.o
         8          0          0          0          0        232   boot_extern_secboot_interface.o
        32          0          0          0          0        480   boot_extern_seccfg_interface.o
        24          0          0          0          0        696   boot_extern_smem_interface.o
        48          6          0          0          0        128   boot_extern_tlmm_interface.o
         8          0          0          0          0        232   boot_extern_tsensor_interface.o
        12          0          0          0          0        348   boot_uart.o
       552        108          0          4        260        764   boot_clobber_prot.o
       334        102          0          0          0        508   boot_clobber_prot_local.o
        82         50          0          0          0        244   boot_flash.o
       176         88          0          8          0        372   boot_flash_dev_if.o
        88         30          0          0          0        132   boot_flash_target.o
       848         78          0          0          0        296   boot_config.o
      3240        524          0         48       8960       2588   boot_elf_loader.o
         0          0          0         80          0          0   boot_gpt_partition_id.o
       304         22          0          0          0        144   boot_loader.o
        62         16          0          0          0        244   boot_mc.o
       620        106          0          4          0       2388   boot_logger.o
       502         42          0        146          9        532   boot_logger_ram.o
       216         12          0          0          0        744   boot_logger_timer.o
       368         26          0        155        521        496   boot_logger_uart.o
       500         84          0          1        396        380   boot_ddr_info.o
        76          8          0          4          0        252   boot_ram_init.o
       560         78          0          0          0        656   boot_ram_partition.o
       176         50          0          0          0        508   boot_smem.o
       984          4          0          0          4          0   boot_armv7_mmu.o
       746         22          0          8      30720        804   boot_page_table.o
      1938        300          0         16       2856       3888   boot_flash_dev_dal.o
       656        220         28         52       5032       1708   boot_flash_dev_nand.o
       132         74          0          8          0        248   boot_flash_dev_nand_if.o
       136         30          0          0          0        128   boot_flash_partition.o
      1208        216         68         32        108       1148   boot_flash_trans_nand.o
       100         40          0          0          0        124   boot_secure_watchdog.o
       816        120          0          0        184        908   boot_authenticator.o
       398         76          0         12          0        756   boot_rollback_version.o
       192         66          0          0          0        368   boot_a53.o
        72          0          0          0          0          0   boot_a53_asm.o
       196         54        214         36         84        520   boot_pbl_v1.o
        52          6          0          0          0        140   boot_thermal_management.o
       126          0          0          0          0        372   boot_sbl_qsee_interface.o
       244         76          0         16          0        740   boot_statistics.o
       372          0          0          0          0        856   boot_util.o
       256          4          0          0          0          0   boot_util_asm.o
       188         64          0         12         12        256   busywait_hw_qtimer.o
        56          6          0          0          0         88   __2snprintf.o
       396          6         17          0          0         92   __printf_flags_ss_wp.o
        14          0          0          0          0         68   __printf_wp.o
        44          0          0          0          0        108   _printf_char.o
        48          6          0          0          0         96   _printf_char_common.o
         6          0          0          0          0          0   _printf_d.o
       116         18          0          0          0         92   _printf_dec.o
        92          4         40          0          0         88   _printf_hex_int.o
       184          0          0          0          0         88   _printf_intcommon.o
        82          0          0          0          0        108   _printf_pad.o
         0          0          0          0          0          0   _printf_percent.o
         4          0          0          0          0          0   _printf_percent_end.o
         6          0          0          0          0          0   _printf_s.o
        82          0          0          0          0         80   _printf_str.o
         6          0          0          0          0          0   _printf_u.o
         6          0          0          0          0          0   _printf_x.o
        16          0          0          0          0         68   _snputc.o
        10          0          0          0          0         68   _sputc.o
        16          0          0          0          0         72   abort.o
         4          0          0          0          0         68   aeabi_ldiv0_sigfpe.o
        16          0          0          0          0         68   aeabi_memset.o
         8          0          0          0          0         68   defsig_abrt_formal.o
         8          0          0          0          0         68   defsig_fpe_formal.o
         0          0          0          0          0          0   indicate_semi.o
        38          0          0          0          0         68   llshl.o
       816         64          0          0          0         84   lludiv5.o
        88          0          0          0          0         76   memcmp.o
        12          0          0          0          0         76   memcpy.o
        22          0          0          0          0         76   memset.o
        10          0          0          0          0         76   rt_div0.o
        68          0          0          0          0         68   rt_memclr.o
        78          0          0          0          0         80   rt_memclr_w.o
       212          0          0          0          0         68   rt_memcpy.o
       100          0          0          0          0         80   rt_memcpy_w.o
       212          0          0          0          0         68   rt_memmove.o
       128          0          0          0          0         80   rt_memmove_w.o
        44          0          0          0          0         68   rtudiv10.o
        20          0          0          0          0         68   strchr.o
       160          4          0          0          0         80   strcmp.o
        58          0          0          0          0         68   strlen.o
       240          4          0          0          0         80   strncmp.o
        12          4          0          0          0         68   sys_exit.o
        22          0          0          0          0         68   uread4.o
         2          0          0          0          0         68   use_no_semi.o
        22          0          0          0          0         68   uwrite4.o
       148          0          0          0          0       1748   DalChipInfo.o
       194         16         72        172         28       2112   DalChipInfoFwk.o
         0          0         12          4          0          0   DalChipInfoInfo.o
      1228        374        642        504          0       1296   DalChipInfoLocal.o
      1010         94          0         96          0       1480   flash_extdrv_i2c_v2.o
       816         82          0         32        164       1068   flash_bam_wrapper.o
        62          0          0          0          0        388   HALbimc.o
       532         10          0          0          0        396   HALbimcImpl.o
      3486        200          0          8         32       1888   icbcfg.o
         0          0          0        780          0          0   icbcfg_data.o
        26          0          0          0          0        124   memscpy.o
        56          0          0          0          0        124   strlcpy.o
       974         58          0         12          0       1388   PlatformInfo.o
       174         16         68        144         28       1868   PlatformInfoFwk.o
       308         24          0          0         28        140   pm_clk_driver.o
        48          4          0          0         28        132   pm_rtc_driver.o
       728         74          8          0         28        368   pm_ldo_driver.o
       172         36          8          0         28        132   pm_pbs_client_driver.o
       328          8          0          4          0        768   pm_pbs_driver.o
      1144         50          0          8        336        668   pm_pbs_info.o
      2564        732          0         88          0       2108   pm_app_chg_alg.o
       942         10          0          0          0       2328   pm_app_chg_util.o
       460         46          0          8          0        548   pm_app_led.o
        30          0          0          0          0        116   pm_app_pon.o
       208          0          0          0          0        136   pm_app_rgb.o
       120         10          0          4          0        264   pm_comm.o
       240          0          0          0          0        784   pm_comm_spmi_lite.o
         0          0          0       1126          0          0   pm_config_common.o
         0          0       1078        304         32          0   pm_config_target.o
         0          0          0       2048          0          0   pm_config_target_pbs_ram.o
         0          0          0       5952          0          0   pm_config_target_sbl_sequence.o
       584         34          8          0         28        144   pm_smps_driver.o
        48          0          0          0          0        148   pm_chg.o
       108          8          0          0         28        252   pm_chg_driver.o
       156         38          4          0         28        136   pm_coincell_driver.o
       160         34          8          0         28        132   pm_gpio_driver.o
       120         24          0          0         28        132   pm_ibb_driver.o
       120         24          0          0         28        132   pm_lab_driver.o
      1404          0          0          0          0       1952   pm_lbc.o
       176         34          8          0         28        248   pm_lbc_driver.o
       588          0          0          0          0        932   pm_lpg.o
       176         34          8          0         28        248   pm_lpg_driver.o
       608          0          0          0          0        700   pm_mpp.o
       280         34          8          0         28        252   pm_mpp_driver.o
      1058         76          0        276          0        912   pm_pon.o
       120         24          0          0         28        132   pm_pwm_driver.o
       244          0          0          0          0        260   pm_rgb.o
       176         34          8          0         28        248   pm_rgb_driver.o
      1132        170        128         20         64       1172   pm_smb.o
       120         36          0        148          0        360   pm_smb_driver.o
      1214          0          0          0          0       1204   pm_smbb.o
       180         38          8          0         28        248   pm_smbb_driver.o
       176         30          8          0         28        132   pm_vib_driver.o
       276         28          8          0         28        136   pm_vs_driver.o
       124         28          0          0         28        132   pm_wled_driver.o
       868        186          0         16         60        676   pm_config_sbl.o
        20          0          0          0          0        240   pm_init.o
       266         36          0          0          0        400   pm_resource_manager.o
        52          0          0          0          0        124   pm_sbl_smem.o
       736        300         81         16         24        792   pm_target_information.o
        86         16          0          0          0        264   pm_utils.o
       472         44          0          1        140        740   pm_version.o
       852        334          0          8          0        396   pm_sbl_boot.o
      1436         98          0         66        512       2312   qhsusb_al_bulk.o
       388          8          0         16          0       1008   qhsusb_al_charger.o
        60         12          0          0          0        348   qhsusb_boot_dload.o
      1662         54          0         24         74       2624   qhsusb_dcd_ch9.o
      3170        310          0         40       8576       4340   qhsusb_dci.o
      1436         66          0          3         12       2712   qhsusb_dci_8909.o
        52          0          0          0          0        832   qhsusb_dci_8909_hw_apis_sbl1.o
       210         24         34        380         34        624   qhsusb_fd_chg.o
      1388        112        136        656       1332       1696   qhsusb_fd_hdlc.o
        48          8          0          8       3072        132   qhsusb_log.o
      3566        116         52          0          0       1744   secboot.o
      1220         24          0          0          0       1284   secboot_asn1.o
       784         40        384          4          0       1368   secboot_hw.o
        22          0          0          0          0        116   secboot_hw_apps.o
       298          0          0          0          0        276   secboot_util.o
      4044         42        172          0          0       2952   secboot_x509.o
        92         24          0          0        240        368   seccfg.o
       128          0          0          0          0        164   seccfg_memzi.o
       110          0          0          0          0        132   secmath_BIGINT_read_unsigned_bin.o
       724          0          0          0          0        548   secmath_barrett_reduce.o
       532          0          0          0          0        284   secmath_mod_exp.o
       332          0          0          0          0        284   secmath_montmul_ref.o
       262          0          0          0          0        628   secmath_montmul_utils.o
      1198        120         80         40         24       1928   smem.o
       812         96          0          4          0       1356   smem_boot.o
        88         12          0          0          0        124   smem_boot_target.o
         4          0          0          0          0        116   smem_mapping_rex.o
        72         14          0          0          0        248   smem_rex.o
         0          0        128          0          0          0   smem_8916_structs.o
         8          0          0          0          0        232   smem_ext.o
       144         40          0          8          0        132   BootTempCheck.o
       758         96          0          0          0       2224   HALtsens.o
       496         34          0         16          0        280   TsensBoot.o
       674         40          0         16        256        760   TsensiConversion.o
         0          0         12          0          0          0   BootTempCheckBsp.o
         0          0        152          0          0          0   TsensBootBsp.o
       116         22       3072          0          0        124   crc.o
       250         18          0          4          0        264   image_version.o
        32          8          0          0        128        128   image_uuid.o

    ----------------------------------------------------------------------
    145382      14498      14255      21396     117556     210684   Library Totals
       252          0         20         44        146          0   (incl. Padding)

    ----------------------------------------------------------------------

      Code (inc. data)   RO Data    RW Data    ZI Data      Debug   Library Name

      1424         48          0          0          0       1456   CeCL.lib
       430         22          0          5        416       1960   CeEL.lib
      2010         80          0          8         44       1060   CeML.lib
       664          8          0          0          0        644   Clock_Common_SBL.lib
      2312        316        248       1364          0       3708   Clock_msm8909_SBL.lib
         0          0       4716        424          0          0   DALConfig.lib
      4072        290         12         88         32       7812   DALFwk.lib
      1162         62        124        488         48       5028   DALflash.lib
      1298         66          0       1416         12       4516   DALflash_i2c_nor.lib
      5294        320         64        529        340       6020   DALflash_nand_dma_reduced.lib
      1914        346         72        204        492       4264   DALtlmm.lib
      2334        242          0       1616         28       3768   DDR_DRIVERS.lib
      6116        420          0          0          0       6548   DDR_HAL.lib
      2154       1078          0          4         16       1200   DDR_TEST.lib
       296         40          0          4         20        728   HALflash.lib
      6824        410        240         84        876       8020   HALflash_qpic_bam_reduced.lib
       216         28          0          8          0        600   HALtlmmV2.lib
      4678        218         12         52          0       6668   I2cDriver.lib
       146          4          0          0          0        380   PrngCL.lib
         8          0          0          0          0        232   PrngEL.lib
        38          0          0          0          0        140   PrngML.lib
      4952        588          5         36       1984       6768   Spmi.lib
       232         64        404          0          0        116   SpmiDalCfg.lib
      2320        178         72        580          0       5236   UART.lib
      3626        176         80        480         32       7248   adc.lib
         0          0       1271          0          0          0   adc_bsp_lib.lib
       544        246          0         15          0        536   apt.lib
      4574         90         96         28          0       6696   bam.lib
      1156        270          0         24        124        940   boot_cdt.lib
      7224       1000         25        165      48100       9680   boot_error_dload.lib
       698         50         32         24          0      10536   boot_extern_driver_interface.lib
      1232        378          0         12        260       2020   boot_flash_common.lib
      4454        640          0        128       8960       3272   boot_image_loading.lib
      1706        186          0        305        530       4160   boot_logger.lib
      1312        220          0          5        396       1796   boot_mem_manage.lib
      1730         26          0          8      30724        804   boot_mmu.lib
      4070        840         96        108       7996       7120   boot_nand.lib
       100         40          0          0          0        124   boot_secure_watchdog.lib
      1214        196          0         12        184       1664   boot_security.lib
       512        126        214         36         84       1028   boot_target_hw.lib
       998         80          0         16          0       1968   boot_util.lib
       188         64          0         12         12        256   busywait_lib.lib
      3584        116         57          0          0       2924   c_2.l
      1570        390        726        680         28       5156   chipinfo.lib
      1010         94          0         96          0       1480   extdrv_i2c_v2.lib
       816         82          0         32        164       1068   flash_bam.lib
      4080        210          0          8         32       2672   icb.lib
         0          0          0        780          0          0   icb_cfg_lib.lib
        82          0          0          0          0        248   libstd.lib
      1148         74         68        156         28       3256   platforminfo.lib
       308         24          0          0         28        140   pm_drivers_clks.lib
        48          4          0          0         28        132   pm_drivers_rtc.lib
       728         74          8          0         28        368   pm_ldo_driver.lib
      1644         94          8         12        364       1568   pm_pbs_driver.lib
      3506        742          0         88          0       4436   pmic_app_chg.lib
       460         46          0          8          0        548   pmic_app_led.lib
        30          0          0          0          0        116   pmic_app_pon.lib
       208          0          0          0          0        136   pmic_app_rgb.lib
       120         10          0          4          0        264   pmic_comm.lib
       240          0          0          0          0        784   pmic_comm_spmi_lite.lib
         0          0       1078       9430         32          0   pmic_config_boot.lib
       584         34          8          0         28        144   pmic_drivers_buck_concrete_v6.lib
       156          8          0          0         28        400   pmic_drivers_chg.lib
       156         38          4          0         28        136   pmic_drivers_coincell.lib
       160         34          8          0         28        132   pmic_drivers_gpio.lib
       120         24          0          0         28        132   pmic_drivers_ibb.lib
       120         24          0          0         28        132   pmic_drivers_lab.lib
      1580         34          8          0         28       2200   pmic_drivers_lbc.lib
       764         34          8          0         28       1180   pmic_drivers_lpg.lib
       888         34          8          0         28        952   pmic_drivers_mpp.lib
      1058         76          0        276          0        912   pmic_drivers_pon.lib
       120         24          0          0         28        132   pmic_drivers_pwm.lib
       420         34          8          0         28        508   pmic_drivers_rgb.lib
      1252        206        128        168         64       1532   pmic_drivers_smb.lib
      1394         38          8          0         28       1452   pmic_drivers_smbb.lib
       176         30          8          0         28        132   pmic_drivers_vib.lib
       276         28          8          0         28        136   pmic_drivers_vs.lib
       124         28          0          0         28        132   pmic_drivers_wled.lib
      2500        582         81         33        224       3236   pmic_framework.lib
       852        334          0          8          0        396   pmic_target_sbl1_system.lib
      9850        692        170       1193      13612      16628   qhsusb_bulk_chg.lib
      9934        222        608          4          0       7740   secboot_auth.lib
       220         24          0          0        240        532   seccfg.lib
      1960          0          0          0          0       1876   secmath.lib
      2174        242         80         44         24       3772   smem_boot.lib
         0          0        128          0          0          0   smem_config.lib
         8          0          0          0          0        232   smem_ext_common.lib
      2072        210          0         40        256       3396   tsens.lib
         0          0        164          0          0          0   tsens_bsp_lib.lib
       116         22       3072          0          0        124   utils_tools.lib
       250         18          0          4          0        264   version_image.lib
        32          8          0          0        128        128   version_uuid.lib

    ----------------------------------------------------------------------
    145382      14498      14255      21396     117556     210684   Library Totals

    ----------------------------------------------------------------------

==============================================================================


      Code (inc. data)   RO Data    RW Data    ZI Data      Debug   

    153460      16366      15360      24504     292864      47316   Grand Totals
    153460      16366      15360      24504     292864      47316   ELF Image Totals
    153460      16366      15360      24504          0          0   ROM Totals

==============================================================================

    Total RO  Size (Code + RO Data)               168820 ( 164.86kB)
    Total RW  Size (RW Data + ZI Data)            317368 ( 309.93kB)
    Total ROM Size (Code + RO Data + RW Data)     193324 ( 188.79kB)

==============================================================================

