ARM Linker, 5.01 [Build 94] 

==============================================================================

Image Symbol Table

    Local Symbols

    Symbol Name                              Value     Ov Type        Size  Object(Section)

    CMNLIBENTRYCODE                          0x00000000   Section       24  cmnlib_entry.o(CMNLIBENTRYCODE)
    ../clib/angel/rt.s                       0x00000000   Number         0  rt_raise.o ABSOLUTE
    ../clib/angel/rt.s                       0x00000000   Number         0  rt_ctype_table.o ABSOLUTE
    ../clib/angel/rt.s                       0x00000000   Number         0  aeabi_idiv0.o ABSOLUTE
    ../clib/angel/rt.s                       0x00000000   Number         0  rt_locale_intlibspace.o ABSOLUTE
    ../clib/angel/rt.s                       0x00000000   Number         0  aeabi_idiv0_sigfpe.o ABSOLUTE
    ../clib/angel/rt.s                       0x00000000   Number         0  aeabi_ldiv0.o ABSOLUTE
    ../clib/angel/rt.s                       0x00000000   Number         0  aeabi_ldiv0_sigfpe.o ABSOLUTE
    ../clib/angel/rt.s                       0x00000000   Number         0  rt_div0.o ABSOLUTE
    ../clib/angel/rt.s                       0x00000000   Number         0  rt_locale.o ABSOLUTE
    ../clib/angel/sys.s                      0x00000000   Number         0  libspace.o ABSOLUTE
    ../clib/angel/sys.s                      0x00000000   Number         0  use_no_semi.o ABSOLUTE
    ../clib/angel/sys.s                      0x00000000   Number         0  indicate_semi.o ABSOLUTE
    ../clib/angel/sysapp.c                   0x00000000   Number         0  sys_command.o ABSOLUTE
    ../clib/angel/sysapp.c                   0x00000000   Number         0  sys_wrch.o ABSOLUTE
    ../clib/angel/sysapp.c                   0x00000000   Number         0  sys_exit.o ABSOLUTE
    ../clib/armsys.c                         0x00000000   Number         0  no_argv.o ABSOLUTE
    ../clib/armsys.c                         0x00000000   Number         0  _get_argv_nomalloc.o ABSOLUTE
    ../clib/armsys.c                         0x00000000   Number         0  argv_veneer.o ABSOLUTE
    ../clib/armsys.c                         0x00000000   Number         0  argv_veneer.o ABSOLUTE
    ../clib/bigflt.c                         0x00000000   Number         0  bigflt0.o ABSOLUTE
    ../clib/btod.s                           0x00000000   Number         0  btod.o ABSOLUTE
    ../clib/ctype.c                          0x00000000   Number         0  isblank.o ABSOLUTE
    ../clib/division.s                       0x00000000   Number         0  aeabi_sdivfast_rs.o ABSOLUTE
    ../clib/division.s                       0x00000000   Number         0  aeabi_sdivfast_rs_div0.o ABSOLUTE
    ../clib/division.s                       0x00000000   Number         0  rtudiv10.o ABSOLUTE
    ../clib/divrt.s                          0x00000000   Number         0  divrt_9e_div0.o ABSOLUTE
    ../clib/divrt.s                          0x00000000   Number         0  divrt_9e.o ABSOLUTE
    ../clib/heapalloc.c                      0x00000000   Number         0  hrguard.o ABSOLUTE
    ../clib/libinit.s                        0x00000000   Number         0  libinit2.o ABSOLUTE
    ../clib/locale.c                         0x00000000   Number         0  _wcrtomb.o ABSOLUTE
    ../clib/locale.s                         0x00000000   Number         0  lc_ctype_c.o ABSOLUTE
    ../clib/locale.s                         0x00000000   Number         0  lc_numeric_c.o ABSOLUTE
    ../clib/longlong.s                       0x00000000   Number         0  lludiv10.o ABSOLUTE
    ../clib/longlong.s                       0x00000000   Number         0  llsshr.o ABSOLUTE
    ../clib/longlong.s                       0x00000000   Number         0  lludiv5.o ABSOLUTE
    ../clib/longlong.s                       0x00000000   Number         0  llshl.o ABSOLUTE
    ../clib/longlong.s                       0x00000000   Number         0  llushr.o ABSOLUTE
    ../clib/memcpset.s                       0x00000000   Number         0  rt_memmove_w.o ABSOLUTE
    ../clib/memcpset.s                       0x00000000   Number         0  strcmp.o ABSOLUTE
    ../clib/memcpset.s                       0x00000000   Number         0  rt_memcpy_w_qsp.o ABSOLUTE
    ../clib/memcpset.s                       0x00000000   Number         0  rt_memclr_w.o ABSOLUTE
    ../clib/memcpset.s                       0x00000000   Number         0  rt_memclr.o ABSOLUTE
    ../clib/memcpset.s                       0x00000000   Number         0  aeabi_memset.o ABSOLUTE
    ../clib/memcpset.s                       0x00000000   Number         0  memset.o ABSOLUTE
    ../clib/memcpset.s                       0x00000000   Number         0  rt_memmove.o ABSOLUTE
    ../clib/memcpset.s                       0x00000000   Number         0  rt_memcpy.o ABSOLUTE
    ../clib/misc.s                           0x00000000   Number         0  printf_stubs.o ABSOLUTE
    ../clib/printf.c                         0x00000000   Number         0  _printf_hex_int_ll.o ABSOLUTE
    ../clib/printf.c                         0x00000000   Number         0  _printf_hex_int.o ABSOLUTE
    ../clib/printf.c                         0x00000000   Number         0  _printf_hex_ll.o ABSOLUTE
    ../clib/printf.c                         0x00000000   Number         0  _printf_hex_ptr.o ABSOLUTE
    ../clib/printf.c                         0x00000000   Number         0  _printf_hex_int_ptr.o ABSOLUTE
    ../clib/printf.c                         0x00000000   Number         0  _printf_hex_ll_ptr.o ABSOLUTE
    ../clib/printf.c                         0x00000000   Number         0  _printf_oct_int_ll.o ABSOLUTE
    ../clib/printf.c                         0x00000000   Number         0  _printf_hex_int_ll_ptr.o ABSOLUTE
    ../clib/printf.c                         0x00000000   Number         0  _printf_oct_int.o ABSOLUTE
    ../clib/printf.c                         0x00000000   Number         0  _printf_oct_ll.o ABSOLUTE
    ../clib/printf.c                         0x00000000   Number         0  _printf_longlong_dec.o ABSOLUTE
    ../clib/printf.c                         0x00000000   Number         0  _printf_wctomb.o ABSOLUTE
    ../clib/printf.c                         0x00000000   Number         0  _printf_char.o ABSOLUTE
    ../clib/printf.c                         0x00000000   Number         0  _snputc.o ABSOLUTE
    ../clib/printf.c                         0x00000000   Number         0  _sputc.o ABSOLUTE
    ../clib/printf.c                         0x00000000   Number         0  _printf_char_common.o ABSOLUTE
    ../clib/printf.c                         0x00000000   Number         0  _printf_charcount.o ABSOLUTE
    ../clib/printf.c                         0x00000000   Number         0  _printf_intcommon.o ABSOLUTE
    ../clib/printf.c                         0x00000000   Number         0  _printf_truncate.o ABSOLUTE
    ../clib/printf.c                         0x00000000   Number         0  _printf_pad.o ABSOLUTE
    ../clib/printf.c                         0x00000000   Number         0  noretval__2snprintf.o ABSOLUTE
    ../clib/printf.c                         0x00000000   Number         0  __2snprintf.o ABSOLUTE
    ../clib/printf.c                         0x00000000   Number         0  c89vsnprintf.o ABSOLUTE
    ../clib/printf.c                         0x00000000   Number         0  __printf.o ABSOLUTE
    ../clib/printf.c                         0x00000000   Number         0  _printf_str.o ABSOLUTE
    ../clib/printf.c                         0x00000000   Number         0  _printf_dec.o ABSOLUTE
    ../clib/printf.c                         0x00000000   Number         0  __printf_flags.o ABSOLUTE
    ../clib/printf.c                         0x00000000   Number         0  __printf_ss.o ABSOLUTE
    ../clib/printf.c                         0x00000000   Number         0  _printf_fp_dec.o ABSOLUTE
    ../clib/printf.c                         0x00000000   Number         0  __printf_nopercent.o ABSOLUTE
    ../clib/printf.c                         0x00000000   Number         0  _printf_wchar.o ABSOLUTE
    ../clib/printf.c                         0x00000000   Number         0  __printf_flags_ss.o ABSOLUTE
    ../clib/printf.c                         0x00000000   Number         0  _printf_fp_infnan.o ABSOLUTE
    ../clib/printf.c                         0x00000000   Number         0  __printf_wp.o ABSOLUTE
    ../clib/printf.c                         0x00000000   Number         0  __printf_flags_wp.o ABSOLUTE
    ../clib/printf.c                         0x00000000   Number         0  __printf_flags_ss_wp.o ABSOLUTE
    ../clib/printf.c                         0x00000000   Number         0  __printf_ss_wp.o ABSOLUTE
    ../clib/printf_percent.s                 0x00000000   Number         0  _printf_percent.o ABSOLUTE
    ../clib/printf_percent.s                 0x00000000   Number         0  _printf_d.o ABSOLUTE
    ../clib/printf_percent.s                 0x00000000   Number         0  _printf_s.o ABSOLUTE
    ../clib/printf_percent.s                 0x00000000   Number         0  _printf_llx.o ABSOLUTE
    ../clib/printf_percent.s                 0x00000000   Number         0  _printf_llo.o ABSOLUTE
    ../clib/printf_percent.s                 0x00000000   Number         0  _printf_g.o ABSOLUTE
    ../clib/printf_percent.s                 0x00000000   Number         0  _printf_e.o ABSOLUTE
    ../clib/printf_percent.s                 0x00000000   Number         0  _printf_f.o ABSOLUTE
    ../clib/printf_percent.s                 0x00000000   Number         0  _printf_u.o ABSOLUTE
    ../clib/printf_percent.s                 0x00000000   Number         0  _printf_i.o ABSOLUTE
    ../clib/printf_percent.s                 0x00000000   Number         0  _printf_o.o ABSOLUTE
    ../clib/printf_percent.s                 0x00000000   Number         0  _printf_p.o ABSOLUTE
    ../clib/printf_percent.s                 0x00000000   Number         0  _printf_x.o ABSOLUTE
    ../clib/printf_percent.s                 0x00000000   Number         0  _printf_n.o ABSOLUTE
    ../clib/printf_percent.s                 0x00000000   Number         0  _printf_c.o ABSOLUTE
    ../clib/printf_percent.s                 0x00000000   Number         0  _printf_a.o ABSOLUTE
    ../clib/printf_percent.s                 0x00000000   Number         0  _printf_percent_end.o ABSOLUTE
    ../clib/printf_percent.s                 0x00000000   Number         0  _printf_lli.o ABSOLUTE
    ../clib/printf_percent.s                 0x00000000   Number         0  _printf_lld.o ABSOLUTE
    ../clib/printf_percent.s                 0x00000000   Number         0  _printf_llu.o ABSOLUTE
    ../clib/printf_percent.s                 0x00000000   Number         0  _printf_ll.o ABSOLUTE
    ../clib/printf_percent.s                 0x00000000   Number         0  _printf_l.o ABSOLUTE
    ../clib/printf_percent.s                 0x00000000   Number         0  _printf_lc.o ABSOLUTE
    ../clib/printf_percent.s                 0x00000000   Number         0  _printf_ls.o ABSOLUTE
    ../clib/signal.c                         0x00000000   Number         0  defsig_general.o ABSOLUTE
    ../clib/signal.c                         0x00000000   Number         0  __raise.o ABSOLUTE
    ../clib/signal.c                         0x00000000   Number         0  defsig_fpe_inner.o ABSOLUTE
    ../clib/signal.c                         0x00000000   Number         0  defsig_exit.o ABSOLUTE
    ../clib/signal.c                         0x00000000   Number         0  defsig_rtmem_outer.o ABSOLUTE
    ../clib/signal.c                         0x00000000   Number         0  defsig_rtmem_formal.o ABSOLUTE
    ../clib/signal.c                         0x00000000   Number         0  defsig_fpe_formal.o ABSOLUTE
    ../clib/signal.c                         0x00000000   Number         0  defsig_fpe_outer.o ABSOLUTE
    ../clib/signal.c                         0x00000000   Number         0  defsig_abrt_inner.o ABSOLUTE
    ../clib/signal.c                         0x00000000   Number         0  defsig_rtred_inner.o ABSOLUTE
    ../clib/signal.c                         0x00000000   Number         0  defsig_rtmem_inner.o ABSOLUTE
    ../clib/signal.c                         0x00000000   Number         0  defsig_stak_inner.o ABSOLUTE
    ../clib/signal.c                         0x00000000   Number         0  defsig_pvfn_inner.o ABSOLUTE
    ../clib/signal.c                         0x00000000   Number         0  defsig_cppl_inner.o ABSOLUTE
    ../clib/signal.c                         0x00000000   Number         0  defsig_segv_inner.o ABSOLUTE
    ../clib/signal.c                         0x00000000   Number         0  defsig_other.o ABSOLUTE
    ../clib/signal.s                         0x00000000   Number         0  defsig.o ABSOLUTE
    ../clib/string.c                         0x00000000   Number         0  strlen.o ABSOLUTE
    ../clib/string.c                         0x00000000   Number         0  memcmp.o ABSOLUTE
    ../clib/unhosted.s                       0x00000000   Number         0  uread4.o ABSOLUTE
    ../clib/unhosted.s                       0x00000000   Number         0  uwrite4.o ABSOLUTE
    ../clib/unhosted.s                       0x00000000   Number         0  uread8.o ABSOLUTE
    ../fplib/fpinit.s                        0x00000000   Number         0  fpinit.o ABSOLUTE
    ../fplib/istatus.s                       0x00000000   Number         0  istatus.o ABSOLUTE
    ../fplib/printf1.s                       0x00000000   Number         0  printf1.o ABSOLUTE
    ../fplib/usenofp.s                       0x00000000   Number         0  usenofp.o ABSOLUTE
    ../mathlib/fpclassify.c                  0x00000000   Number         0  fpclassify.o ABSOLUTE
    /local/mnt/workspace/CRMBuilds/TZ.BF.2.5.c10-00004-M8909AAAAANAZT-2_20161130_222454/b/trustzone_images/core/kernel/libstd/src/memscpy.c 0x00000000   Number         0  memscpy.o ABSOLUTE
    /local/mnt/workspace/CRMBuilds/TZ.BF.2.5.c10-00004-M8909AAAAANAZT-2_20161130_222454/b/trustzone_images/core/kernel/libstd/src/timesafe_memcmp.c 0x00000000   Number         0  timesafe_memcmp.o ABSOLUTE
    /local/mnt/workspace/CRMBuilds/TZ.BF.2.5.c10-00004-M8909AAAAANAZT-2_20161130_222454/b/trustzone_images/core/securemsm/secmath/shared/src/secmath_BIGINT_prime_test.c 0x00000000   Number         0  secmath_BIGINT_prime_test.o ABSOLUTE
    /local/mnt/workspace/CRMBuilds/TZ.BF.2.5.c10-00004-M8909AAAAANAZT-2_20161130_222454/b/trustzone_images/core/securemsm/secmath/shared/src/secmath_BIGINT_read_radix.c 0x00000000   Number         0  secmath_BIGINT_read_radix.o ABSOLUTE
    /local/mnt/workspace/CRMBuilds/TZ.BF.2.5.c10-00004-M8909AAAAANAZT-2_20161130_222454/b/trustzone_images/core/securemsm/secmath/shared/src/secmath_BIGINT_read_unsigned_bin.c 0x00000000   Number         0  secmath_BIGINT_read_unsigned_bin.o ABSOLUTE
    /local/mnt/workspace/CRMBuilds/TZ.BF.2.5.c10-00004-M8909AAAAANAZT-2_20161130_222454/b/trustzone_images/core/securemsm/secmath/shared/src/secmath_barrett_reduce.c 0x00000000   Number         0  secmath_barrett_reduce.o ABSOLUTE
    /local/mnt/workspace/CRMBuilds/TZ.BF.2.5.c10-00004-M8909AAAAANAZT-2_20161130_222454/b/trustzone_images/core/securemsm/secmath/shared/src/secmath_hex_str_to_bin.c 0x00000000   Number         0  secmath_hex_str_to_bin.o ABSOLUTE
    /local/mnt/workspace/CRMBuilds/TZ.BF.2.5.c10-00004-M8909AAAAANAZT-2_20161130_222454/b/trustzone_images/core/securemsm/secmath/shared/src/secmath_is_prime_div_chk.c 0x00000000   Number         0  secmath_is_prime_div_chk.o ABSOLUTE
    /local/mnt/workspace/CRMBuilds/TZ.BF.2.5.c10-00004-M8909AAAAANAZT-2_20161130_222454/b/trustzone_images/core/securemsm/secmath/shared/src/secmath_mod_exp.c 0x00000000   Number         0  secmath_mod_exp.o ABSOLUTE
    /local/mnt/workspace/CRMBuilds/TZ.BF.2.5.c10-00004-M8909AAAAANAZT-2_20161130_222454/b/trustzone_images/core/securemsm/secmath/shared/src/secmath_montmul_ref.c 0x00000000   Number         0  secmath_montmul_ref.o ABSOLUTE
    /local/mnt/workspace/CRMBuilds/TZ.BF.2.5.c10-00004-M8909AAAAANAZT-2_20161130_222454/b/trustzone_images/core/securemsm/secmath/shared/src/secmath_montmul_utils.c 0x00000000   Number         0  secmath_montmul_utils.o ABSOLUTE
    /local/mnt/workspace/CRMBuilds/TZ.BF.2.5.c10-00004-M8909AAAAANAZT-2_20161130_222454/b/trustzone_images/core/securemsm/secrsa/shared/src/secasn1.c 0x00000000   Number         0  secasn1.o ABSOLUTE
    /local/mnt/workspace/CRMBuilds/TZ.BF.2.5.c10-00004-M8909AAAAANAZT-2_20161130_222454/b/trustzone_images/core/securemsm/secrsa/shared/src/secpkcs8.c 0x00000000   Number         0  secpkcs8.o ABSOLUTE
    /local/mnt/workspace/CRMBuilds/TZ.BF.2.5.c10-00004-M8909AAAAANAZT-2_20161130_222454/b/trustzone_images/core/securemsm/secrsa/shared/src/secrsa_crt.c 0x00000000   Number         0  secrsa_crt.o ABSOLUTE
    /local/mnt/workspace/CRMBuilds/TZ.BF.2.5.c10-00004-M8909AAAAANAZT-2_20161130_222454/b/trustzone_images/core/securemsm/secrsa/shared/src/secrsa_encryption.c 0x00000000   Number         0  secrsa_encryption.o ABSOLUTE
    /local/mnt/workspace/CRMBuilds/TZ.BF.2.5.c10-00004-M8909AAAAANAZT-2_20161130_222454/b/trustzone_images/core/securemsm/secrsa/shared/src/secrsa_exptmod.c 0x00000000   Number         0  secrsa_exptmod.o ABSOLUTE
    /local/mnt/workspace/CRMBuilds/TZ.BF.2.5.c10-00004-M8909AAAAANAZT-2_20161130_222454/b/trustzone_images/core/securemsm/secrsa/shared/src/secrsa_keygen.c 0x00000000   Number         0  secrsa_keygen.o ABSOLUTE
    /local/mnt/workspace/CRMBuilds/TZ.BF.2.5.c10-00004-M8909AAAAANAZT-2_20161130_222454/b/trustzone_images/core/securemsm/secrsa/shared/src/secrsa_math.c 0x00000000   Number         0  secrsa_math.o ABSOLUTE
    /local/mnt/workspace/CRMBuilds/TZ.BF.2.5.c10-00004-M8909AAAAANAZT-2_20161130_222454/b/trustzone_images/core/securemsm/secrsa/shared/src/secrsa_math2.c 0x00000000   Number         0  secrsa_math2.o ABSOLUTE
    /local/mnt/workspace/CRMBuilds/TZ.BF.2.5.c10-00004-M8909AAAAANAZT-2_20161130_222454/b/trustzone_images/core/securemsm/secrsa/shared/src/secrsa_mem.c 0x00000000   Number         0  secrsa_mem.o ABSOLUTE
    /local/mnt/workspace/CRMBuilds/TZ.BF.2.5.c10-00004-M8909AAAAANAZT-2_20161130_222454/b/trustzone_images/core/securemsm/secrsa/shared/src/secrsa_padding.c 0x00000000   Number         0  secrsa_padding.o ABSOLUTE
    /local/mnt/workspace/CRMBuilds/TZ.BF.2.5.c10-00004-M8909AAAAANAZT-2_20161130_222454/b/trustzone_images/core/securemsm/secrsa/shared/src/secrsa_signature.c 0x00000000   Number         0  secrsa_signature.o ABSOLUTE
    /local/mnt/workspace/CRMBuilds/TZ.BF.2.5.c10-00004-M8909AAAAANAZT-2_20161130_222454/b/trustzone_images/core/securemsm/secrsa/shared/src/secrsa_utils.c 0x00000000   Number         0  secrsa_utils.o ABSOLUTE
    /local/mnt/workspace/CRMBuilds/TZ.BF.2.5.c10-00004-M8909AAAAANAZT-2_20161130_222454/b/trustzone_images/core/securemsm/trustzone/qsapps/libs/applib/common/build/commonlib/scorpion/MATAANAA/common/src/cmnlib_entry.o.i 0x00000000   Number         0  cmnlib_entry.o ABSOLUTE
    /local/mnt/workspace/CRMBuilds/TZ.BF.2.5.c10-00004-M8909AAAAANAZT-2_20161130_222454/b/trustzone_images/core/securemsm/trustzone/qsapps/libs/applib/common/build/commonlib/scorpion/MATAANAA/common/src/cmnlib_syscall.o.i 0x00000000   Number         0  cmnlib_syscall.o ABSOLUTE
    /local/mnt/workspace/CRMBuilds/TZ.BF.2.5.c10-00004-M8909AAAAANAZT-2_20161130_222454/b/trustzone_images/core/securemsm/trustzone/qsapps/libs/applib/common/src/cmnlib_comstr.c 0x00000000   Number         0  cmnlib_comstr.o ABSOLUTE
    /local/mnt/workspace/CRMBuilds/TZ.BF.2.5.c10-00004-M8909AAAAANAZT-2_20161130_222454/b/trustzone_images/core/securemsm/trustzone/qsapps/libs/applib/common/src/cmnlib_ecc_wrapper.c 0x00000000   Number         0  cmnlib_ecc_wrapper.o ABSOLUTE
    /local/mnt/workspace/CRMBuilds/TZ.BF.2.5.c10-00004-M8909AAAAANAZT-2_20161130_222454/b/trustzone_images/core/securemsm/trustzone/qsapps/libs/applib/common/src/cmnlib_main.c 0x00000000   Number         0  cmnlib_main.o ABSOLUTE
    /local/mnt/workspace/CRMBuilds/TZ.BF.2.5.c10-00004-M8909AAAAANAZT-2_20161130_222454/b/trustzone_images/core/securemsm/trustzone/qsapps/libs/applib/common/src/cmnlib_secmath_wrapper.c 0x00000000   Number         0  cmnlib_secmath_wrapper.o ABSOLUTE
    /local/mnt/workspace/CRMBuilds/TZ.BF.2.5.c10-00004-M8909AAAAANAZT-2_20161130_222454/b/trustzone_images/core/securemsm/trustzone/qsapps/libs/applib/common/src/cmnlib_secrsa_wrapper.c 0x00000000   Number         0  cmnlib_secrsa_wrapper.o ABSOLUTE
    /local/mnt/workspace/CRMBuilds/TZ.BF.2.5.c10-00004-M8909AAAAANAZT-2_20161130_222454/b/trustzone_images/core/securemsm/trustzone/qsapps/libs/applib/common/src/cmnlib_services_wrapper.c 0x00000000   Number         0  cmnlib_services_wrapper.o ABSOLUTE
    /local/mnt/workspace/CRMBuilds/TZ.BF.2.5.c10-00004-M8909AAAAANAZT-2_20161130_222454/b/trustzone_images/core/securemsm/trustzone/qsapps/libs/applib/common/src/cmnlib_ufaes_wrapper.c 0x00000000   Number         0  cmnlib_ufaes_wrapper.o ABSOLUTE
    /local/mnt/workspace/CRMBuilds/TZ.BF.2.5.c10-00004-M8909AAAAANAZT-2_20161130_222454/b/trustzone_images/core/securemsm/trustzone/qsapps/libs/applib/common/src/cmnlib_ufdes_wrapper.c 0x00000000   Number         0  cmnlib_ufdes_wrapper.o ABSOLUTE
    /local/mnt/workspace/CRMBuilds/TZ.BF.2.5.c10-00004-M8909AAAAANAZT-2_20161130_222454/b/trustzone_images/core/securemsm/trustzone/qsapps/libs/applib/common/src/cmnlib_ufsha_wrapper.c 0x00000000   Number         0  cmnlib_ufsha_wrapper.o ABSOLUTE
    /local/mnt/workspace/CRMBuilds/TZ.BF.2.5.c10-00004-M8909AAAAANAZT-2_20161130_222454/b/trustzone_images/core/securemsm/trustzone/qsapps/libs/applib/qsee/src/qsee_counter_shim.c 0x00000000   Number         0  qsee_counter_shim.o ABSOLUTE
    /local/mnt/workspace/CRMBuilds/TZ.BF.2.5.c10-00004-M8909AAAAANAZT-2_20161130_222454/b/trustzone_images/core/securemsm/trustzone/qsapps/libs/applib/qsee/src/qsee_crypto_shim.c 0x00000000   Number         0  qsee_crypto_shim.o ABSOLUTE
    /local/mnt/workspace/CRMBuilds/TZ.BF.2.5.c10-00004-M8909AAAAANAZT-2_20161130_222454/b/trustzone_images/core/securemsm/trustzone/qsapps/libs/oem/src/qsee_oem_utils.c 0x00000000   Number         0  qsee_oem_utils.o ABSOLUTE
    /local/mnt/workspace/CRMBuilds/TZ.BF.2.5.c10-00004-M8909AAAAANAZT-2_20161130_222454/b/trustzone_images/core/securemsm/trustzone/qsapps/libs/services/src/fs.c 0x00000000   Number         0  fs.o ABSOLUTE
    /local/mnt/workspace/CRMBuilds/TZ.BF.2.5.c10-00004-M8909AAAAANAZT-2_20161130_222454/b/trustzone_images/core/securemsm/trustzone/qsapps/libs/services/src/qsee_kdf.c 0x00000000   Number         0  qsee_kdf.o ABSOLUTE
    /local/mnt/workspace/CRMBuilds/TZ.BF.2.5.c10-00004-M8909AAAAANAZT-2_20161130_222454/b/trustzone_images/core/securemsm/trustzone/qsapps/libs/services/src/qsee_log.c 0x00000000   Number         0  qsee_log.o ABSOLUTE
    /local/mnt/workspace/CRMBuilds/TZ.BF.2.5.c10-00004-M8909AAAAANAZT-2_20161130_222454/b/trustzone_images/core/securemsm/trustzone/qsapps/libs/services/src/sfs.c 0x00000000   Number         0  sfs.o ABSOLUTE
    /local/mnt/workspace/CRMBuilds/TZ.BF.2.5.c10-00004-M8909AAAAANAZT-2_20161130_222454/b/trustzone_images/core/securemsm/trustzone/qsapps/libs/services/src/sfs_api.c 0x00000000   Number         0  sfs_api.o ABSOLUTE
    /local/mnt/workspace/CRMBuilds/TZ.BF.2.5.c10-00004-M8909AAAAANAZT-2_20161130_222454/b/trustzone_images/core/securemsm/trustzone/qsapps/libs/services/src/sfs_idx.c 0x00000000   Number         0  sfs_idx.o ABSOLUTE
    /local/mnt/workspace/CRMBuilds/TZ.BF.2.5.c10-00004-M8909AAAAANAZT-2_20161130_222454/b/trustzone_images/core/securemsm/trustzone/qsapps/libs/services/src/sfs_ll_funcs.c 0x00000000   Number         0  sfs_ll_funcs.o ABSOLUTE
    /local/mnt/workspace/CRMBuilds/TZ.BF.2.5.c10-00004-M8909AAAAANAZT-2_20161130_222454/b/trustzone_images/core/securemsm/trustzone/qsapps/libs/services/src/sfs_sec.c 0x00000000   Number         0  sfs_sec.o ABSOLUTE
    /local/mnt/workspace/CRMBuilds/TZ.BF.2.5.c10-00004-M8909AAAAANAZT-2_20161130_222454/b/trustzone_images/core/securemsm/trustzone/qsapps/libs/services/src/time.c 0x00000000   Number         0  time.o ABSOLUTE
    /local/mnt/workspace/CRMBuilds/TZ.BF.2.5.c10-00004-M8909AAAAANAZT-2_20161130_222454/b/trustzone_images/core/securemsm/unifiedcrypto/core/aes/src/aes_core.c 0x00000000   Number         0  aes_core.o ABSOLUTE
    /local/mnt/workspace/CRMBuilds/TZ.BF.2.5.c10-00004-M8909AAAAANAZT-2_20161130_222454/b/trustzone_images/core/securemsm/unifiedcrypto/core/aes/src/ccm.c 0x00000000   Number         0  ccm.o ABSOLUTE
    /local/mnt/workspace/CRMBuilds/TZ.BF.2.5.c10-00004-M8909AAAAANAZT-2_20161130_222454/b/trustzone_images/core/securemsm/unifiedcrypto/core/aes/src/gcm.c 0x00000000   Number         0  gcm.o ABSOLUTE
    /local/mnt/workspace/CRMBuilds/TZ.BF.2.5.c10-00004-M8909AAAAANAZT-2_20161130_222454/b/trustzone_images/core/securemsm/unifiedcrypto/core/aes/src/gf128mul.c 0x00000000   Number         0  gf128mul.o ABSOLUTE
    /local/mnt/workspace/CRMBuilds/TZ.BF.2.5.c10-00004-M8909AAAAANAZT-2_20161130_222454/b/trustzone_images/core/securemsm/unifiedcrypto/core/des/src/des_core.c 0x00000000   Number         0  des_core.o ABSOLUTE
    /local/mnt/workspace/CRMBuilds/TZ.BF.2.5.c10-00004-M8909AAAAANAZT-2_20161130_222454/b/trustzone_images/core/securemsm/unifiedcrypto/core/ecc/src/ecc_core.c 0x00000000   Number         0  ecc_core.o ABSOLUTE
    /local/mnt/workspace/CRMBuilds/TZ.BF.2.5.c10-00004-M8909AAAAANAZT-2_20161130_222454/b/trustzone_images/core/securemsm/unifiedcrypto/core/ecc_generic/src/qrlbn_arith.c 0x00000000   Number         0  qrlbn_arith.o ABSOLUTE
    /local/mnt/workspace/CRMBuilds/TZ.BF.2.5.c10-00004-M8909AAAAANAZT-2_20161130_222454/b/trustzone_images/core/securemsm/unifiedcrypto/core/ecc_generic/src/qrlbn_ecc.c 0x00000000   Number         0  qrlbn_ecc.o ABSOLUTE
    /local/mnt/workspace/CRMBuilds/TZ.BF.2.5.c10-00004-M8909AAAAANAZT-2_20161130_222454/b/trustzone_images/core/securemsm/unifiedcrypto/core/ecc_generic/src/qrlbn_ecc_protocols.c 0x00000000   Number         0  qrlbn_ecc_protocols.o ABSOLUTE
    /local/mnt/workspace/CRMBuilds/TZ.BF.2.5.c10-00004-M8909AAAAANAZT-2_20161130_222454/b/trustzone_images/core/securemsm/unifiedcrypto/core/ecc_generic/src/qrlbn_inverse.c 0x00000000   Number         0  qrlbn_inverse.o ABSOLUTE
    /local/mnt/workspace/CRMBuilds/TZ.BF.2.5.c10-00004-M8909AAAAANAZT-2_20161130_222454/b/trustzone_images/core/securemsm/unifiedcrypto/core/ecc_generic/src/qrlbn_random.c 0x00000000   Number         0  qrlbn_random.o ABSOLUTE
    /local/mnt/workspace/CRMBuilds/TZ.BF.2.5.c10-00004-M8909AAAAANAZT-2_20161130_222454/b/trustzone_images/core/securemsm/unifiedcrypto/core/ecc_generic/src/qrlbn_utils.c 0x00000000   Number         0  qrlbn_utils.o ABSOLUTE
    /local/mnt/workspace/CRMBuilds/TZ.BF.2.5.c10-00004-M8909AAAAANAZT-2_20161130_222454/b/trustzone_images/core/securemsm/unifiedcrypto/core/sha/src/sha_core.c 0x00000000   Number         0  sha_core.o ABSOLUTE
    /local/mnt/workspace/CRMBuilds/TZ.BF.2.5.c10-00004-M8909AAAAANAZT-2_20161130_222454/b/trustzone_images/core/securemsm/unifiedcrypto/environment/src/uc_env.c 0x00000000   Number         0  uc_env.o ABSOLUTE
    /local/mnt/workspace/CRMBuilds/TZ.BF.2.5.c10-00004-M8909AAAAANAZT-2_20161130_222454/b/trustzone_images/core/securemsm/unifiedcrypto/shared/aes/src/aes_shared.c 0x00000000   Number         0  aes_shared.o ABSOLUTE
    /local/mnt/workspace/CRMBuilds/TZ.BF.2.5.c10-00004-M8909AAAAANAZT-2_20161130_222454/b/trustzone_images/core/securemsm/unifiedcrypto/shared/des/src/des_shared.c 0x00000000   Number         0  des_shared.o ABSOLUTE
    /local/mnt/workspace/CRMBuilds/TZ.BF.2.5.c10-00004-M8909AAAAANAZT-2_20161130_222454/b/trustzone_images/core/securemsm/unifiedcrypto/shared/ecc/src/ecc_shared.c 0x00000000   Number         0  ecc_shared.o ABSOLUTE
    /local/mnt/workspace/CRMBuilds/TZ.BF.2.5.c10-00004-M8909AAAAANAZT-2_20161130_222454/b/trustzone_images/core/securemsm/unifiedcrypto/shared/ecc_generic/src/ecc_generic_shared.c 0x00000000   Number         0  ecc_generic_shared.o ABSOLUTE
    /local/mnt/workspace/CRMBuilds/TZ.BF.2.5.c10-00004-M8909AAAAANAZT-2_20161130_222454/b/trustzone_images/core/securemsm/unifiedcrypto/shared/sha/src/sha_shared.c 0x00000000   Number         0  sha_shared.o ABSOLUTE
    /local/mnt/workspace/CRMBuilds/TZ.BF.2.5.c10-00004-M8909AAAAANAZT-2_20161130_222454/b/trustzone_images/core/services/utils/src/memheap_lite.c 0x00000000   Number         0  memheap_lite.o ABSOLUTE
    dc.s                                     0x00000000   Number         0  dc.o ABSOLUTE
    .text                                    0x00000018   Section        0  cmnlib_comstr.o(.text)
    .text                                    0x000002ae   Section        0  cmnlib_secmath_wrapper.o(.text)
    .text                                    0x00000336   Section        0  cmnlib_secrsa_wrapper.o(.text)
    .text                                    0x00000602   Section        0  cmnlib_ecc_wrapper.o(.text)
    .text                                    0x00000b22   Section        0  cmnlib_ufaes_wrapper.o(.text)
    .text                                    0x00000d58   Section        0  cmnlib_ufdes_wrapper.o(.text)
    .text                                    0x00000e64   Section        0  cmnlib_ufsha_wrapper.o(.text)
    .text                                    0x00000f82   Section        0  qsee_crypto_shim.o(.text)
    .text                                    0x00001328   Section        0  qsee_counter_shim.o(.text)
    .text                                    0x0000142a   Section        0  memheap_lite.o(.text)
    osal_enter_crit_sect                     0x0000142b   Thumb Code     4  memheap_lite.o(.text)
    osal_exit_crit_sect                      0x0000142f   Thumb Code     4  memheap_lite.o(.text)
    osal_delete_crit_sect                    0x00001433   Thumb Code     4  memheap_lite.o(.text)
    mem_heap_handle_failure                  0x00001437   Thumb Code     4  memheap_lite.o(.text)
    mem_heap_enter_crit_sect                 0x0000143b   Thumb Code    22  memheap_lite.o(.text)
    mem_heap_leave_crit_sect                 0x00001451   Thumb Code    22  memheap_lite.o(.text)
    mem_get_next_block                       0x00001481   Thumb Code   160  memheap_lite.o(.text)
    mem_init_block_header                    0x00001521   Thumb Code    40  memheap_lite.o(.text)
    mem_find_free_block                      0x0000171b   Thumb Code   278  memheap_lite.o(.text)
    .text                                    0x00001af2   Section        0  secmath_BIGINT_read_radix.o(.text)
    .text                                    0x00001b44   Section        0  secmath_BIGINT_read_unsigned_bin.o(.text)
    .text                                    0x00001bc4   Section        0  secrsa_encryption.o(.text)
    .text                                    0x00001e0e   Section        0  secrsa_exptmod.o(.text)
    .text                                    0x00001f92   Section        0  secrsa_signature.o(.text)
    .text                                    0x000021f2   Section        0  secrsa_utils.o(.text)
    .text                                    0x00002422   Section        0  secpkcs8.o(.text)
    .text                                    0x00002780   Section        0  time.o(.text)
    .text                                    0x00002988   Section        0  qsee_kdf.o(.text)
    i.ECC_hash_to_bigval                     0x000029b6   Section        0  ecc_core.o(i.ECC_hash_to_bigval)
    i.ECDH_derive                            0x00002a24   Section        0  ecc_core.o(i.ECDH_derive)
    i.ECDH_derive_pt                         0x00002a54   Section        0  ecc_core.o(i.ECDH_derive_pt)
    i.ECDH_generate                          0x00002acc   Section        0  ecc_core.o(i.ECDH_generate)
    i.ECDH_mult_basepoint                    0x00002afa   Section        0  ecc_core.o(i.ECDH_mult_basepoint)
    i.ECDSA_sign                             0x00002b0e   Section        0  ecc_core.o(i.ECDSA_sign)
    i.ECDSA_verify                           0x00002b8e   Section        0  ecc_core.o(i.ECDSA_verify)
    i.ECDSA_verify_inner                     0x00002b9e   Section        0  ecc_core.o(i.ECDSA_verify_inner)
    ECDSA_verify_inner                       0x00002b9f   Thumb Code   322  ecc_core.o(i.ECDSA_verify_inner)
    i.big_1wd_mpy                            0x00002ce0   Section        0  ecc_core.o(i.big_1wd_mpy)
    big_1wd_mpy                              0x00002ce1   Thumb Code    66  ecc_core.o(i.big_1wd_mpy)
    i.big_add                                0x00002d22   Section        0  ecc_core.o(i.big_add)
    i.big_addP                               0x00002d54   Section        0  ecc_core.o(i.big_addP)
    big_addP                                 0x00002d55   Thumb Code    34  ecc_core.o(i.big_addP)
    i.big_adjustP                            0x00002d76   Section        0  ecc_core.o(i.big_adjustP)
    big_adjustP                              0x00002d77   Thumb Code   226  ecc_core.o(i.big_adjustP)
    i.big_cmp                                0x00002e58   Section        0  ecc_core.o(i.big_cmp)
    i.big_divide                             0x00002e98   Section        0  ecc_core.o(i.big_divide)
    big_divide                               0x00002e99   Thumb Code   354  ecc_core.o(i.big_divide)
    i.big_get_random_n                       0x00002ffa   Section        0  ecc_core.o(i.big_get_random_n)
    i.big_halve                              0x0000303a   Section        0  ecc_core.o(i.big_halve)
    big_halve                                0x0000303b   Thumb Code    48  ecc_core.o(i.big_halve)
    i.big_halveP                             0x0000306a   Section        0  ecc_core.o(i.big_halveP)
    big_halveP                               0x0000306b   Thumb Code    44  ecc_core.o(i.big_halveP)
    i.big_is_one                             0x00003096   Section        0  ecc_core.o(i.big_is_one)
    big_is_one                               0x00003097   Thumb Code    32  ecc_core.o(i.big_is_one)
    i.big_is_zero                            0x000030b6   Section        0  ecc_core.o(i.big_is_zero)
    i.big_mpyP                               0x000030cc   Section        0  ecc_core.o(i.big_mpyP)
    big_mpyP                                 0x000030cd   Thumb Code  1026  ecc_core.o(i.big_mpyP)
    i.big_precise_reduce                     0x000034ce   Section        0  ecc_core.o(i.big_precise_reduce)
    big_precise_reduce                       0x000034cf   Thumb Code   168  ecc_core.o(i.big_precise_reduce)
    i.big_sub                                0x00003576   Section        0  ecc_core.o(i.big_sub)
    big_sub                                  0x00003577   Thumb Code    54  ecc_core.o(i.big_sub)
    i.big_subP                               0x000035ac   Section        0  ecc_core.o(i.big_subP)
    big_subP                                 0x000035ad   Thumb Code    34  ecc_core.o(i.big_subP)
    i.big_triple                             0x000035ce   Section        0  ecc_core.o(i.big_triple)
    big_triple                               0x000035cf   Thumb Code    52  ecc_core.o(i.big_triple)
    i.bigval_to_binary                       0x00003602   Section        0  ecc_core.o(i.bigval_to_binary)
    i.binary_to_bigval                       0x00003644   Section        0  ecc_core.o(i.binary_to_bigval)
    i.get_random_bytes                       0x00003684   Section        0  ecc_core.o(i.get_random_bytes)
    i.in_curveP                              0x000036a0   Section        0  ecc_core.o(i.in_curveP)
    i.mpy_accum                              0x00003720   Section        0  ecc_core.o(i.mpy_accum)
    mpy_accum                                0x00003721   Thumb Code    36  ecc_core.o(i.mpy_accum)
    i.pointAdd                               0x00003744   Section        0  ecc_core.o(i.pointAdd)
    pointAdd                                 0x00003745   Thumb Code   390  ecc_core.o(i.pointAdd)
    i.pointAddAffine                         0x000038ca   Section        0  ecc_core.o(i.pointAddAffine)
    i.pointDouble                            0x000038ee   Section        0  ecc_core.o(i.pointDouble)
    pointDouble                              0x000038ef   Thumb Code   254  ecc_core.o(i.pointDouble)
    i.pointMpyP                              0x000039ec   Section        0  ecc_core.o(i.pointMpyP)
    pointMpyP                                0x000039ed   Thumb Code   208  ecc_core.o(i.pointMpyP)
    i.toAffine                               0x00003abc   Section        0  ecc_core.o(i.toAffine)
    toAffine                                 0x00003abd   Thumb Code   162  ecc_core.o(i.toAffine)
    i.toJacobian                             0x00003b5e   Section        0  ecc_core.o(i.toJacobian)
    toJacobian                               0x00003b5f   Thumb Code   152  ecc_core.o(i.toJacobian)
    i.toggle_random_bit                      0x00003bf6   Section        0  ecc_core.o(i.toggle_random_bit)
    .text                                    0x00003c4e   Section        0  aes_shared.o(.text)
    .text                                    0x00004a3a   Section        0  des_shared.o(.text)
    l2prefetch                               0x00004a3b   Thumb Code     2  des_shared.o(.text)
    data_l2prefetch                          0x00004a3d   Thumb Code    24  des_shared.o(.text)
    .text                                    0x0000518a   Section        0  ecc_shared.o(.text)
    .text                                    0x00005234   Section        0  ecc_generic_shared.o(.text)
    i.SW_Hash_Final                          0x000053c8   Section        0  sha_shared.o(i.SW_Hash_Final)
    i.SW_Hash_Init                           0x0000549c   Section        0  sha_shared.o(i.SW_Hash_Init)
    i.SW_Hash_Update                         0x00005518   Section        0  sha_shared.o(i.SW_Hash_Update)
    i.SW_Hmac                                0x000055e8   Section        0  sha_shared.o(i.SW_Hmac)
    .text                                    0x00005880   Section        0  timesafe_memcmp.o(.text)
    .text                                    0x000058be   Section        0  secmath_mod_exp.o(.text)
    .text                                    0x00005b60   Section        0  secmath_hex_str_to_bin.o(.text)
    .text                                    0x00005c22   Section        0  secmath_BIGINT_prime_test.o(.text)
    .text                                    0x00006000   Section        0  secrsa_math.o(.text)
    .text                                    0x0000783e   Section        0  secrsa_mem.o(.text)
    .text                                    0x00007852   Section        0  secrsa_crt.o(.text)
    .text                                    0x00007ab4   Section        0  secrsa_padding.o(.text)
    .text                                    0x00008938   Section        0  secasn1.o(.text)
    .text                                    0x00008bfc   Section        0  qsee_oem_utils.o(.text)
    .text                                    0x00008c1c   Section        0  sfs_ll_funcs.o(.text)
    i.aes_decrypt_block                      0x00008d38   Section        0  aes_core.o(i.aes_decrypt_block)
    i.aes_encrypt_block                      0x00008fd0   Section        0  aes_core.o(i.aes_encrypt_block)
    i.aes_set_key                            0x00009268   Section        0  aes_core.o(i.aes_set_key)
    i.gcm_auth_data                          0x0000967c   Section        0  gcm.o(i.gcm_auth_data)
    i.gcm_auth_header                        0x000097ac   Section        0  gcm.o(i.gcm_auth_header)
    i.gcm_compute_tag                        0x000098dc   Section        0  gcm.o(i.gcm_compute_tag)
    i.gcm_crypt_data                         0x000099de   Section        0  gcm.o(i.gcm_crypt_data)
    i.gcm_decrypt                            0x00009b68   Section        0  gcm.o(i.gcm_decrypt)
    i.gcm_decrypt_message                    0x00009b88   Section        0  gcm.o(i.gcm_decrypt_message)
    i.gcm_encrypt                            0x00009bf8   Section        0  gcm.o(i.gcm_encrypt)
    i.gcm_encrypt_message                    0x00009c18   Section        0  gcm.o(i.gcm_encrypt_message)
    i.gcm_end                                0x00009c70   Section        0  gcm.o(i.gcm_end)
    i.gcm_init_and_key                       0x00009c80   Section        0  gcm.o(i.gcm_init_and_key)
    i.gcm_init_message                       0x00009cc6   Section        0  gcm.o(i.gcm_init_message)
    i.gf_mul_hh                              0x00009d88   Section        0  gcm.o(i.gf_mul_hh)
    i.xor_block                              0x00009d9e   Section        0  gcm.o(i.xor_block)
    xor_block                                0x00009d9f   Thumb Code   190  gcm.o(i.xor_block)
    i.xor_block_aligned                      0x00009e5c   Section        0  gcm.o(i.xor_block_aligned)
    xor_block_aligned                        0x00009e5d   Thumb Code    46  gcm.o(i.xor_block_aligned)
    i.ccm_auth_data                          0x00009e8a   Section        0  ccm.o(i.ccm_auth_data)
    i.ccm_auth_header                        0x0000a006   Section        0  ccm.o(i.ccm_auth_header)
    i.ccm_compute_tag                        0x0000a1c4   Section        0  ccm.o(i.ccm_compute_tag)
    i.ccm_crypt_data                         0x0000a300   Section        0  ccm.o(i.ccm_crypt_data)
    i.ccm_decrypt                            0x0000a50e   Section        0  ccm.o(i.ccm_decrypt)
    i.ccm_decrypt_message                    0x0000a52e   Section        0  ccm.o(i.ccm_decrypt_message)
    i.ccm_encrypt                            0x0000a5a0   Section        0  ccm.o(i.ccm_encrypt)
    i.ccm_encrypt_message                    0x0000a5c0   Section        0  ccm.o(i.ccm_encrypt_message)
    i.ccm_end                                0x0000a626   Section        0  ccm.o(i.ccm_end)
    i.ccm_init_and_key                       0x0000a636   Section        0  ccm.o(i.ccm_init_and_key)
    i.ccm_init_message                       0x0000a662   Section        0  ccm.o(i.ccm_init_message)
    i.xor_block                              0x0000a9b4   Section        0  ccm.o(i.xor_block)
    xor_block                                0x0000a9b5   Thumb Code   190  ccm.o(i.xor_block)
    i.xor_block_aligned                      0x0000aa72   Section        0  ccm.o(i.xor_block_aligned)
    xor_block_aligned                        0x0000aa73   Thumb Code    46  ccm.o(i.xor_block_aligned)
    i.check_parity                           0x0000aaa0   Section        0  des_core.o(i.check_parity)
    check_parity                             0x0000aaa1   Thumb Code    36  des_core.o(i.check_parity)
    i.des_cbc_decrypt                        0x0000aac4   Section        0  des_core.o(i.des_cbc_decrypt)
    i.des_cbc_encrypt                        0x0000abee   Section        0  des_core.o(i.des_cbc_encrypt)
    i.des_encrypt                            0x0000ad1a   Section        0  des_core.o(i.des_encrypt)
    i.des_set_key                            0x0000afba   Section        0  des_core.o(i.des_set_key)
    i.compute_16quo                          0x0000b1da   Section        0  qrlbn_arith.o(i.compute_16quo)
    compute_16quo                            0x0000b1db   Thumb Code   160  qrlbn_arith.o(i.compute_16quo)
    i.mpy_hi                                 0x0000b27a   Section        0  qrlbn_arith.o(i.mpy_hi)
    mpy_hi                                   0x0000b27b   Thumb Code    48  qrlbn_arith.o(i.mpy_hi)
    i.qrlbn_add                              0x0000b2aa   Section        0  qrlbn_arith.o(i.qrlbn_add)
    i.qrlbn_binary_to_bn                     0x0000b31c   Section        0  qrlbn_arith.o(i.qrlbn_binary_to_bn)
    i.qrlbn_bn_to_binary                     0x0000b3a6   Section        0  qrlbn_arith.o(i.qrlbn_bn_to_binary)
    i.qrlbn_compare                          0x0000b426   Section        0  qrlbn_arith.o(i.qrlbn_compare)
    i.qrlbn_decimal_string_to_bn             0x0000b48e   Section        0  qrlbn_arith.o(i.qrlbn_decimal_string_to_bn)
    i.qrlbn_full_reduce                      0x0000b544   Section        0  qrlbn_arith.o(i.qrlbn_full_reduce)
    i.qrlbn_hex_string_to_bn                 0x0000b68e   Section        0  qrlbn_arith.o(i.qrlbn_hex_string_to_bn)
    i.qrlbn_is_zero                          0x0000b7a6   Section        0  qrlbn_arith.o(i.qrlbn_is_zero)
    i.qrlbn_modular_2_to_k                   0x0000b7c8   Section        0  qrlbn_arith.o(i.qrlbn_modular_2_to_k)
    i.qrlbn_modular_adjust                   0x0000b828   Section        0  qrlbn_arith.o(i.qrlbn_modular_adjust)
    i.qrlbn_modular_shift_left               0x0000b912   Section        0  qrlbn_arith.o(i.qrlbn_modular_shift_left)
    i.qrlbn_modulus_data_constructor         0x0000ba26   Section        0  qrlbn_arith.o(i.qrlbn_modulus_data_constructor)
    i.qrlbn_modulus_data_post_init           0x0000ba40   Section        0  qrlbn_arith.o(i.qrlbn_modulus_data_post_init)
    i.qrlbn_mont_mul                         0x0000bb58   Section        0  qrlbn_arith.o(i.qrlbn_mont_mul)
    i.qrlbn_mont_mul_one                     0x0000bb96   Section        0  qrlbn_arith.o(i.qrlbn_mont_mul_one)
    i.qrlbn_multiply_add_small               0x0000bbc4   Section        0  qrlbn_arith.o(i.qrlbn_multiply_add_small)
    i.qrlbn_reduce                           0x0000bc4a   Section        0  qrlbn_arith.o(i.qrlbn_reduce)
    i.qrlbn_shift_right                      0x0000bd4c   Section        0  qrlbn_arith.o(i.qrlbn_shift_right)
    i.qrlbn_sub                              0x0000bdac   Section        0  qrlbn_arith.o(i.qrlbn_sub)
    i.qrlbn_vet                              0x0000be26   Section        0  qrlbn_arith.o(i.qrlbn_vet)
    i.recip_63                               0x0000be5c   Section        0  qrlbn_arith.o(i.recip_63)
    recip_63                                 0x0000be5d   Thumb Code    84  qrlbn_arith.o(i.recip_63)
    i.cmov_ecc_bigval                        0x0000beb0   Section        0  qrlbn_ecc.o(i.cmov_ecc_bigval)
    cmov_ecc_bigval                          0x0000beb1   Thumb Code    44  qrlbn_ecc.o(i.cmov_ecc_bigval)
    i.cmov_ecc_point                         0x0000bedc   Section        0  qrlbn_ecc.o(i.cmov_ecc_point)
    cmov_ecc_point                           0x0000bedd   Thumb Code    44  qrlbn_ecc.o(i.cmov_ecc_point)
    i.copy_point                             0x0000bf08   Section        0  qrlbn_ecc.o(i.copy_point)
    copy_point                               0x0000bf09   Thumb Code    72  qrlbn_ecc.o(i.copy_point)
    i.gen_random_QR                          0x0000bf50   Section        0  qrlbn_ecc.o(i.gen_random_QR)
    i.qrlbn_ECC_bigval_to_binary             0x0000bfce   Section        0  qrlbn_ecc.o(i.qrlbn_ECC_bigval_to_binary)
    i.qrlbn_ECC_convert_input_to_bigval      0x0000c04c   Section        0  qrlbn_ecc.o(i.qrlbn_ECC_convert_input_to_bigval)
    i.qrlbn_ECC_domain_field_pointer         0x0000c09e   Section        0  qrlbn_ecc.o(i.qrlbn_ECC_domain_field_pointer)
    i.qrlbn_blind_point                      0x0000c0d8   Section        0  qrlbn_ecc.o(i.qrlbn_blind_point)
    qrlbn_blind_point                        0x0000c0d9   Thumb Code   204  qrlbn_ecc.o(i.qrlbn_blind_point)
    i.qrlbn_ecc_domain_init_str              0x0000c1a4   Section        0  qrlbn_ecc.o(i.qrlbn_ecc_domain_init_str)
    i.qrlbn_ecc_domain_post_init             0x0000c296   Section        0  qrlbn_ecc.o(i.qrlbn_ecc_domain_post_init)
    i.qrlbn_ecc_domain_setup_structure       0x0000c43c   Section        0  qrlbn_ecc.o(i.qrlbn_ecc_domain_setup_structure)
    i.qrlbn_ecc_hash_to_bigval               0x0000c486   Section        0  qrlbn_ecc.o(i.qrlbn_ecc_hash_to_bigval)
    i.qrlbn_ecc_square_root                  0x0000c550   Section        0  qrlbn_ecc.o(i.qrlbn_ecc_square_root)
    i.qrlbn_modexp_for_ecc                   0x0000c5f8   Section        0  qrlbn_ecc.o(i.qrlbn_modexp_for_ecc)
    i.qrlbn_negate                           0x0000c69a   Section        0  qrlbn_ecc.o(i.qrlbn_negate)
    i.qrlbn_point_add                        0x0000c6a6   Section        0  qrlbn_ecc.o(i.qrlbn_point_add)
    i.qrlbn_point_dbl                        0x0000cd00   Section        0  qrlbn_ecc.o(i.qrlbn_point_dbl)
    i.qrlbn_point_multiply                   0x0000d044   Section        0  qrlbn_ecc.o(i.qrlbn_point_multiply)
    i.qrlbn_point_to_affine                  0x0000d596   Section        0  qrlbn_ecc.o(i.qrlbn_point_to_affine)
    i.select_ecc_point                       0x0000d676   Section        0  qrlbn_ecc.o(i.select_ecc_point)
    select_ecc_point                         0x0000d677   Thumb Code   660  qrlbn_ecc.o(i.select_ecc_point)
    i.squares_to_one_montgomery              0x0000d90a   Section        0  qrlbn_ecc.o(i.squares_to_one_montgomery)
    squares_to_one_montgomery                0x0000d90b   Thumb Code    86  qrlbn_ecc.o(i.squares_to_one_montgomery)
    i.tonelli_shanks                         0x0000d960   Section        0  qrlbn_ecc.o(i.tonelli_shanks)
    tonelli_shanks                           0x0000d961   Thumb Code   372  qrlbn_ecc.o(i.tonelli_shanks)
    i.qrlbn_ECDH_derive                      0x0000dad4   Section        0  qrlbn_ecc_protocols.o(i.qrlbn_ECDH_derive)
    i.qrlbn_ECDH_generate                    0x0000dc2a   Section        0  qrlbn_ecc_protocols.o(i.qrlbn_ECDH_generate)
    i.qrlbn_ECDSA_sign                       0x0000dc2e   Section        0  qrlbn_ecc_protocols.o(i.qrlbn_ECDSA_sign)
    i.qrlbn_ECDSA_verify                     0x0000dfc0   Section        0  qrlbn_ecc_protocols.o(i.qrlbn_ECDSA_verify)
    i.qrlbn_EC_keypair_generate              0x0000e316   Section        0  qrlbn_ecc_protocols.o(i.qrlbn_EC_keypair_generate)
    i.qrlbn_EC_keypair_generate_internal     0x0000e3a0   Section        0  qrlbn_ecc_protocols.o(i.qrlbn_EC_keypair_generate_internal)
    i.qrlbn_X_coordinate_to_point            0x0000e3cc   Section        0  qrlbn_ecc_protocols.o(i.qrlbn_X_coordinate_to_point)
    qrlbn_X_coordinate_to_point              0x0000e3cd   Thumb Code   190  qrlbn_ecc_protocols.o(i.qrlbn_X_coordinate_to_point)
    i.qrlbn_cofactor_ECDH_derive             0x0000e48a   Section        0  qrlbn_ecc_protocols.o(i.qrlbn_cofactor_ECDH_derive)
    i.qrlbn_export_point                     0x0000e616   Section        0  qrlbn_ecc_protocols.o(i.qrlbn_export_point)
    i.qrlbn_import_point                     0x0000e6be   Section        0  qrlbn_ecc_protocols.o(i.qrlbn_import_point)
    i.rol1                                   0x0000e816   Section        0  sha_core.o(i.rol1)
    i.rol24                                  0x0000e81c   Section        0  sha_core.o(i.rol24)
    i.rol30                                  0x0000e822   Section        0  sha_core.o(i.rol30)
    i.rol5                                   0x0000e828   Section        0  sha_core.o(i.rol5)
    i.rol8                                   0x0000e82e   Section        0  sha_core.o(i.rol8)
    i.sechsharm_sha1_init                    0x0000e834   Section        0  sha_core.o(i.sechsharm_sha1_init)
    i.sechsharm_sha1_transform               0x0000e86e   Section        0  sha_core.o(i.sechsharm_sha1_transform)
    i.sechsharm_sha1_update                  0x0000fc58   Section        0  sha_core.o(i.sechsharm_sha1_update)
    i.sechsharm_sha256_final                 0x0000fce0   Section        0  sha_core.o(i.sechsharm_sha256_final)
    i.sechsharm_sha256_init                  0x0000fd36   Section        0  sha_core.o(i.sechsharm_sha256_init)
    i.sechsharm_sha256_pad                   0x0000fd7c   Section        0  sha_core.o(i.sechsharm_sha256_pad)
    sechsharm_sha256_pad                     0x0000fd7d   Thumb Code   184  sha_core.o(i.sechsharm_sha256_pad)
    i.sechsharm_sha256_transform             0x0000fe34   Section        0  sha_core.o(i.sechsharm_sha256_transform)
    sechsharm_sha256_transform               0x0000fe35   Thumb Code  2976  sha_core.o(i.sechsharm_sha256_transform)
    i.sechsharm_sha256_update                0x000109d4   Section        0  sha_core.o(i.sechsharm_sha256_update)
    i.uc_free                                0x00010a9a   Section        0  uc_env.o(i.uc_free)
    i.uc_malloc                              0x00010aa4   Section        0  uc_env.o(i.uc_malloc)
    i.uc_memcmp                              0x00010abc   Section        0  uc_env.o(i.uc_memcmp)
    i.uc_memcpy                              0x00010acc   Section        0  uc_env.o(i.uc_memcpy)
    i.uc_memset                              0x00010ad6   Section        0  uc_env.o(i.uc_memset)
    i.uc_rand                                0x00010ae6   Section        0  uc_env.o(i.uc_rand)
    .text                                    0x00010b04   Section        0  memscpy.o(.text)
    .text                                    0x00010b22   Section        0  secmath_montmul_ref.o(.text)
    .text                                    0x00010cc8   Section        0  secmath_montmul_utils.o(.text)
    .text                                    0x00010ff6   Section        0  secmath_barrett_reduce.o(.text)
    div32                                    0x00010ff7   Thumb Code   296  secmath_barrett_reduce.o(.text)
    .text                                    0x000113da   Section        0  secmath_is_prime_div_chk.o(.text)
    .text                                    0x0001161a   Section        0  secrsa_math2.o(.text)
    i.copy_block_aligned                     0x00011a8a   Section        0  gf128mul.o(i.copy_block_aligned)
    copy_block_aligned                       0x00011a8b   Thumb Code    18  gf128mul.o(i.copy_block_aligned)
    i.gf_mul                                 0x00011a9c   Section        0  gf128mul.o(i.gf_mul)
    i.gf_mul_256                             0x00011b7a   Section        0  gf128mul.o(i.gf_mul_256)
    i.gf_mulx1_lb                            0x00011bd0   Section        0  gf128mul.o(i.gf_mulx1_lb)
    gf_mulx1_lb                              0x00011bd1   Thumb Code   114  gf128mul.o(i.gf_mulx1_lb)
    i.gf_mulx4_lb                            0x00011c42   Section        0  gf128mul.o(i.gf_mulx4_lb)
    gf_mulx4_lb                              0x00011c43   Thumb Code   108  gf128mul.o(i.gf_mulx4_lb)
    i.gf_mulx8_lb                            0x00011cae   Section        0  gf128mul.o(i.gf_mulx8_lb)
    gf_mulx8_lb                              0x00011caf   Thumb Code    56  gf128mul.o(i.gf_mulx8_lb)
    i.init_256_table                         0x00011ce6   Section        0  gf128mul.o(i.init_256_table)
    i.xor_block_aligned                      0x00011d44   Section        0  gf128mul.o(i.xor_block_aligned)
    xor_block_aligned                        0x00011d45   Thumb Code    46  gf128mul.o(i.xor_block_aligned)
    i.halve                                  0x00011d72   Section        0  qrlbn_inverse.o(i.halve)
    halve                                    0x00011d73   Thumb Code    62  qrlbn_inverse.o(i.halve)
    i.is_one                                 0x00011db0   Section        0  qrlbn_inverse.o(i.is_one)
    is_one                                   0x00011db1   Thumb Code    38  qrlbn_inverse.o(i.is_one)
    i.qrlbn_modular_divide                   0x00011dd6   Section        0  qrlbn_inverse.o(i.qrlbn_modular_divide)
    i.qrlbn_random_bit_vec                   0x00012004   Section        0  qrlbn_random.o(i.qrlbn_random_bit_vec)
    i.qrlbn_random_element                   0x0001203e   Section        0  qrlbn_random.o(i.qrlbn_random_element)
    i.qrlbn_random_range                     0x000120fc   Section        0  qrlbn_random.o(i.qrlbn_random_range)
    i.ffs                                    0x0001215e   Section        0  qrlbn_utils.o(i.ffs)
    i.find_MSB                               0x0001217c   Section        0  qrlbn_utils.o(i.find_MSB)
    i.find_MSB32                             0x000121b6   Section        0  qrlbn_utils.o(i.find_MSB32)
    find_MSB32                               0x000121b7   Thumb Code    52  qrlbn_utils.o(i.find_MSB32)
    i.microfree                              0x000121ea   Section        0  qrlbn_utils.o(i.microfree)
    i.micromalloc                            0x000121f8   Section        0  qrlbn_utils.o(i.micromalloc)
    i.qrlbn_count_trailing_zeros             0x00012214   Section        0  qrlbn_utils.o(i.qrlbn_count_trailing_zeros)
    i.qrlbn_multiplexed_copy_arrays          0x0001226e   Section        0  qrlbn_utils.o(i.qrlbn_multiplexed_copy_arrays)
    i.qrlbn_zeroize                          0x00012306   Section        0  qrlbn_utils.o(i.qrlbn_zeroize)
    i.qrlbn_zeroize_words                    0x00012338   Section        0  qrlbn_utils.o(i.qrlbn_zeroize_words)
    .text                                    0x0001234a   Section       38  llshl.o(.text)
    .text                                    0x00012370   Section       38  llushr.o(.text)
    .text                                    0x00012396   Section       38  llsshr.o(.text)
    .text                                    0x000123bc   Section        0  isblank.o(.text)
    .text                                    0x000123dc   Section        0  _printf_str.o(.text)
    i._is_digit                              0x0001242e   Section        0  __printf_wp.o(i._is_digit)
    .ARM.Collect$$_printf_percent$$00000000  0x0001243c   Section        0  _printf_percent.o(.ARM.Collect$$_printf_percent$$00000000)
    .ARM.Collect$$_printf_percent$$00000001  0x0001243c   Section        6  _printf_n.o(.ARM.Collect$$_printf_percent$$00000001)
    .ARM.Collect$$_printf_percent$$00000002  0x00012442   Section        6  _printf_p.o(.ARM.Collect$$_printf_percent$$00000002)
    .ARM.Collect$$_printf_percent$$00000003  0x00012448   Section        6  _printf_f.o(.ARM.Collect$$_printf_percent$$00000003)
    .ARM.Collect$$_printf_percent$$00000004  0x0001244e   Section        6  _printf_e.o(.ARM.Collect$$_printf_percent$$00000004)
    .ARM.Collect$$_printf_percent$$00000005  0x00012454   Section        6  _printf_g.o(.ARM.Collect$$_printf_percent$$00000005)
    .ARM.Collect$$_printf_percent$$00000006  0x0001245a   Section        6  _printf_a.o(.ARM.Collect$$_printf_percent$$00000006)
    .ARM.Collect$$_printf_percent$$00000007  0x00012460   Section       10  _printf_ll.o(.ARM.Collect$$_printf_percent$$00000007)
    .ARM.Collect$$_printf_percent$$00000008  0x0001246a   Section        6  _printf_i.o(.ARM.Collect$$_printf_percent$$00000008)
    .ARM.Collect$$_printf_percent$$00000009  0x00012470   Section        6  _printf_d.o(.ARM.Collect$$_printf_percent$$00000009)
    .ARM.Collect$$_printf_percent$$0000000A  0x00012476   Section        6  _printf_u.o(.ARM.Collect$$_printf_percent$$0000000A)
    .ARM.Collect$$_printf_percent$$0000000B  0x0001247c   Section        6  _printf_o.o(.ARM.Collect$$_printf_percent$$0000000B)
    .ARM.Collect$$_printf_percent$$0000000C  0x00012482   Section        6  _printf_x.o(.ARM.Collect$$_printf_percent$$0000000C)
    .ARM.Collect$$_printf_percent$$0000000D  0x00012488   Section        6  _printf_lli.o(.ARM.Collect$$_printf_percent$$0000000D)
    .ARM.Collect$$_printf_percent$$0000000E  0x0001248e   Section        6  _printf_lld.o(.ARM.Collect$$_printf_percent$$0000000E)
    .ARM.Collect$$_printf_percent$$0000000F  0x00012494   Section        6  _printf_llu.o(.ARM.Collect$$_printf_percent$$0000000F)
    .ARM.Collect$$_printf_percent$$00000010  0x0001249a   Section        6  _printf_llo.o(.ARM.Collect$$_printf_percent$$00000010)
    .ARM.Collect$$_printf_percent$$00000011  0x000124a0   Section        6  _printf_llx.o(.ARM.Collect$$_printf_percent$$00000011)
    .ARM.Collect$$_printf_percent$$00000012  0x000124a6   Section       10  _printf_l.o(.ARM.Collect$$_printf_percent$$00000012)
    .ARM.Collect$$_printf_percent$$00000013  0x000124b0   Section        6  _printf_c.o(.ARM.Collect$$_printf_percent$$00000013)
    .ARM.Collect$$_printf_percent$$00000014  0x000124b6   Section        6  _printf_s.o(.ARM.Collect$$_printf_percent$$00000014)
    .ARM.Collect$$_printf_percent$$00000015  0x000124bc   Section        6  _printf_lc.o(.ARM.Collect$$_printf_percent$$00000015)
    .ARM.Collect$$_printf_percent$$00000016  0x000124c2   Section        6  _printf_ls.o(.ARM.Collect$$_printf_percent$$00000016)
    .ARM.Collect$$_printf_percent$$00000017  0x000124c8   Section        4  _printf_percent_end.o(.ARM.Collect$$_printf_percent$$00000017)
    .text                                    0x000124cc   Section        0  memcmp.o(.text)
    .text                                    0x00012524   Section        0  strlen.o(.text)
    .text                                    0x0001255e   Section       22  memset.o(.text)
    .text                                    0x00012574   Section       16  aeabi_memset.o(.text)
    .text                                    0x00012584   Section       68  rt_memclr.o(.text)
    .text                                    0x000125c8   Section       78  rt_memclr_w.o(.text)
    .text                                    0x00012616   Section       22  uread4.o(.text)
    .text                                    0x0001262c   Section       22  uwrite4.o(.text)
    .text                                    0x00012642   Section       46  uread8.o(.text)
    .text                                    0x00012670   Section        0  _printf_pad.o(.text)
    .text                                    0x000126c2   Section        0  _printf_truncate.o(.text)
    .text                                    0x000126e6   Section        0  _printf_intcommon.o(.text)
    .text                                    0x0001279e   Section        0  _printf_charcount.o(.text)
    .text                                    0x000127c8   Section        0  _sputc.o(.text)
    .text                                    0x000127d2   Section        0  _snputc.o(.text)
    .text                                    0x000127e2   Section        0  _printf_char.o(.text)
    x$fpl$printf1                            0x0001280e   Section        4  printf1.o(x$fpl$printf1)
    .text                                    0x00012812   Section        0  _printf_fp_dec.o(.text)
    _fp_digits                               0x00012815   Thumb Code   426  _printf_fp_dec.o(.text)
    .text                                    0x00012c2a   Section        0  _printf_wchar.o(.text)
    .text                                    0x00012c56   Section        0  _wcrtomb.o(.text)
    CL$$btod_d2e                             0x00012c96   Section       62  btod.o(CL$$btod_d2e)
    CL$$btod_d2e_norm_op1                    0x00012cd4   Section       96  btod.o(CL$$btod_d2e_norm_op1)
    CL$$btod_d2e_denorm_low                  0x00012d34   Section       70  btod.o(CL$$btod_d2e_denorm_low)
    CL$$btod_emul                            0x00012d7a   Section       40  btod.o(CL$$btod_emul)
    CL$$btod_ediv                            0x00012da2   Section       40  btod.o(CL$$btod_ediv)
    CL$$btod_e2e                             0x00012dca   Section      198  btod.o(CL$$btod_e2e)
    CL$$btod_mult_common                     0x00012e90   Section      580  btod.o(CL$$btod_mult_common)
    CL$$btod_div_common                      0x000130d4   Section      824  btod.o(CL$$btod_div_common)
    .ARM.Collect$$libinit$$00000011          0x0001340c   Section        0  libinit2.o(.ARM.Collect$$libinit$$00000011)
    .ARM.Collect$$libinit$$00000015          0x0001340c   Section        0  libinit2.o(.ARM.Collect$$libinit$$00000015)
    i.__ARM_fpclassify                       0x0001340c   Section        0  fpclassify.o(i.__ARM_fpclassify)
    x$fpl$usenofp                            0x0001340c   Section        0  usenofp.o(x$fpl$usenofp)
    .text                                    0x00013434   Section        0  cmnlib_main.o(.text)
    .text                                    0x00013cd8   Section        0  cmnlib_services_wrapper.o(.text)
    .text                                    0x00014418   Section        0  secrsa_keygen.o(.text)
    .text                                    0x00014ab4   Section        0  qsee_log.o(.text)
    .text                                    0x00014b14   Section        0  fs.o(.text)
    i.__ARM_common_memclr1_12                0x0001635c   Section        0  fs.o(i.__ARM_common_memclr1_12)
    i.__ARM_common_memclr1_8                 0x00016388   Section        0  fs.o(i.__ARM_common_memclr1_8)
    .text                                    0x000163ac   Section        0  sfs_api.o(.text)
    .text                                    0x0001677c   Section        0  sfs.o(.text)
    i.sechsharm_sha1_final                   0x000185d8   Section        0  sha_core.o(i.sechsharm_sha1_final)
    .text                                    0x00018698   Section        0  sfs_idx.o(.text)
    .text                                    0x000199e0   Section        0  sfs_sec.o(.text)
    .text                                    0x0001a16c   Section      816  lludiv5.o(.text)
    .text                                    0x0001a49c   Section        0  c89vsnprintf.o(.text)
    .text                                    0x0001a4d0   Section        0  __2snprintf.o(.text)
    .text                                    0x0001a508   Section        0  _printf_dec.o(.text)
    .text                                    0x0001a57c   Section        0  __printf_flags_ss_wp.o(.text)
    .text                                    0x0001a704   Section      212  rt_memcpy.o(.text)
    .text                                    0x0001a7d8   Section      212  rt_memmove.o(.text)
    .text                                    0x0001a8ac   Section      124  rt_memcpy_w_qsp.o(.text)
    .text                                    0x0001a928   Section      160  strcmp.o(.text)
    .text                                    0x0001a9c8   Section      556  aeabi_sdivfast_rs.o(.text)
    __arm_div_large_positive                 0x0001a9fc   ARM Code       0  aeabi_sdivfast_rs.o(.text)
    __arm_div16                              0x0001aa24   ARM Code       0  aeabi_sdivfast_rs.o(.text)
    __arm_div12                              0x0001aa54   ARM Code       0  aeabi_sdivfast_rs.o(.text)
    __arm_div8                               0x0001aa88   ARM Code       0  aeabi_sdivfast_rs.o(.text)
    __arm_div5                               0x0001aaac   ARM Code       0  aeabi_sdivfast_rs.o(.text)
    __arm_div2                               0x0001aad0   ARM Code       0  aeabi_sdivfast_rs.o(.text)
    .text_udiv                               0x0001abf4   Section       48  aeabi_sdivfast_rs.o(.text_udiv)
    .text                                    0x0001ac24   Section       16  rt_ctype_table.o(.text)
    .text                                    0x0001ac34   Section        0  _printf_char_common.o(.text)
    _printf_input_char                       0x0001ac35   Thumb Code    10  _printf_char_common.o(.text)
    .text                                    0x0001ac64   Section        0  _printf_wctomb.o(.text)
    .text                                    0x0001ad1c   Section        0  _printf_longlong_dec.o(.text)
    .text                                    0x0001ad94   Section        0  _printf_oct_int_ll.o(.text)
    _printf_longlong_oct_internal            0x0001ad95   Thumb Code     0  _printf_oct_int_ll.o(.text)
    .text                                    0x0001ae0c   Section        0  _printf_hex_int_ll_ptr.o(.text)
    _printf_hex_common                       0x0001ae0d   Thumb Code     0  _printf_hex_int_ll_ptr.o(.text)
    .text                                    0x0001aea8   Section      128  rt_memmove_w.o(.text)
    .text                                    0x0001af28   Section       44  rtudiv10.o(.text)
    .text                                    0x0001af54   Section       12  rt_locale.o(.text)
    .text                                    0x0001af60   Section      152  lludiv10.o(.text)
    locale$$code                             0x0001aff8   Section       44  lc_ctype_c.o(locale$$code)
    .text                                    0x0001b024   Section        0  _printf_fp_infnan.o(.text)
    .text                                    0x0001b0a4   Section        0  bigflt0.o(.text)
    locale$$code                             0x0001b17c   Section       44  lc_numeric_c.o(locale$$code)
    tzapp_syscall_asm                        0x0001b200   Section       92  cmnlib_syscall.o(tzapp_syscall_asm)
    .constdata                               0x0001b264   Section        9  secpkcs8.o(.constdata)
    .constdata                               0x0001b26d   Section       15  qsee_oem_utils.o(.constdata)
    .constdata                               0x0001b27c   Section      256  aes_core.o(.constdata)
    .constdata                               0x0001b37c   Section      256  aes_core.o(.constdata)
    .constdata                               0x0001b47c   Section       17  __printf_flags_ss_wp.o(.constdata)
    maptable                                 0x0001b47c   Data          17  __printf_flags_ss_wp.o(.constdata)
    .constdata                               0x0001b48d   Section       40  _printf_hex_int_ll_ptr.o(.constdata)
    uc_hextab                                0x0001b48d   Data          20  _printf_hex_int_ll_ptr.o(.constdata)
    lc_hextab                                0x0001b4a1   Data          20  _printf_hex_int_ll_ptr.o(.constdata)
    .constdata                               0x0001b4b6   Section     4096  secmath_is_prime_div_chk.o(.constdata)
    .constdata                               0x0001c4b6   Section      512  gf128mul.o(.constdata)
    .constdata                               0x0001c6b8   Section      303  fs.o(.constdata)
    __FUNCTION__                             0x0001c6b8   Data           5  fs.o(.constdata)
    __FUNCTION__                             0x0001c6bd   Data           5  fs.o(.constdata)
    __FUNCTION__                             0x0001c6c2   Data           5  fs.o(.constdata)
    __FUNCTION__                             0x0001c6c7   Data           6  fs.o(.constdata)
    __FUNCTION__                             0x0001c6cd   Data           6  fs.o(.constdata)
    __FUNCTION__                             0x0001c6d3   Data           6  fs.o(.constdata)
    __FUNCTION__                             0x0001c6d9   Data           6  fs.o(.constdata)
    __FUNCTION__                             0x0001c6df   Data           6  fs.o(.constdata)
    __FUNCTION__                             0x0001c6e5   Data           6  fs.o(.constdata)
    __FUNCTION__                             0x0001c6eb   Data           6  fs.o(.constdata)
    __FUNCTION__                             0x0001c6f1   Data           6  fs.o(.constdata)
    __FUNCTION__                             0x0001c6f7   Data           6  fs.o(.constdata)
    __FUNCTION__                             0x0001c6fd   Data           6  fs.o(.constdata)
    __FUNCTION__                             0x0001c703   Data           7  fs.o(.constdata)
    __FUNCTION__                             0x0001c70a   Data           7  fs.o(.constdata)
    __FUNCTION__                             0x0001c711   Data           7  fs.o(.constdata)
    __FUNCTION__                             0x0001c718   Data           8  fs.o(.constdata)
    __FUNCTION__                             0x0001c720   Data           8  fs.o(.constdata)
    __FUNCTION__                             0x0001c728   Data           8  fs.o(.constdata)
    __FUNCTION__                             0x0001c730   Data           8  fs.o(.constdata)
    __FUNCTION__                             0x0001c738   Data           8  fs.o(.constdata)
    __FUNCTION__                             0x0001c740   Data           9  fs.o(.constdata)
    __FUNCTION__                             0x0001c749   Data          16  fs.o(.constdata)
    __FUNCTION__                             0x0001c759   Data           9  fs.o(.constdata)
    __FUNCTION__                             0x0001c762   Data           9  fs.o(.constdata)
    __FUNCTION__                             0x0001c76b   Data          21  fs.o(.constdata)
    __FUNCTION__                             0x0001c780   Data          29  fs.o(.constdata)
    .constdata                               0x0001c7e8   Section      784  secrsa_padding.o(.constdata)
    .constdata                               0x0001caf8   Section      221  sfs.o(.constdata)
    .constdata                               0x0001cbd8   Section    20596  aes_core.o(.constdata)
    .constdata                               0x00021c4c   Section      288  sha_core.o(.constdata)
    sha256_initial_hash_value                0x00021c4c   Data          32  sha_core.o(.constdata)
    K256                                     0x00021c6c   Data         256  sha_core.o(.constdata)
    .constdata                               0x00021d6c   Section      439  sfs_sec.o(.constdata)
    sfs_cipher_key_label                     0x00021d6c   Data          28  sfs_sec.o(.constdata)
    sfs_hmac_key_label                       0x00021d88   Data          26  sfs_sec.o(.constdata)
    sfs_cipher_key_context                   0x00021da2   Data          52  sfs_sec.o(.constdata)
    sfs_hmac_key_context                     0x00021dd6   Data          57  sfs_sec.o(.constdata)
    .constdata                               0x00021f24   Section        8  _printf_wctomb.o(.constdata)
    initial_mbstate                          0x00021f24   Data           8  _printf_wctomb.o(.constdata)
    locale$$data                             0x00021f2c   Section      272  lc_ctype_c.o(locale$$data)
    __lcctype_c_name                         0x00021f30   Data           2  lc_ctype_c.o(locale$$data)
    __lcctype_c_start                        0x00021f38   Data           0  lc_ctype_c.o(locale$$data)
    .constdata                               0x0002203c   Section      148  bigflt0.o(.constdata)
    __lcctype_c_end                          0x0002203c   Data           0  lc_ctype_c.o(locale$$data)
    tenpwrs_x                                0x0002203c   Data          60  bigflt0.o(.constdata)
    tenpwrs_i                                0x00022078   Data          64  bigflt0.o(.constdata)
    locale$$data                             0x000220d0   Section       28  lc_numeric_c.o(locale$$data)
    __lcnum_c_name                           0x000220d4   Data           2  lc_numeric_c.o(locale$$data)
    __lcnum_c_start                          0x000220dc   Data           0  lc_numeric_c.o(locale$$data)
    __lcnum_c_point                          0x000220e8   Data           0  lc_numeric_c.o(locale$$data)
    __lcnum_c_thousands                      0x000220ea   Data           0  lc_numeric_c.o(locale$$data)
    __lcnum_c_grouping                       0x000220eb   Data           0  lc_numeric_c.o(locale$$data)
    __lcnum_c_end                            0x000220ec   Data           0  lc_numeric_c.o(locale$$data)
    .constdata                               0x000220f0   Section      588  ecc_core.o(.constdata)
    affine_infinity                          0x00022138   Data          76  ecc_core.o(.constdata)
    jacobian_infinity                        0x00022184   Data         108  ecc_core.o(.constdata)
    b_P256                                   0x00022214   Data          36  ecc_core.o(.constdata)
    orderDBL256                              0x00022260   Data         144  ecc_core.o(.constdata)
    baseP256                                 0x000222f0   Data          76  ecc_core.o(.constdata)
    .data                                    0x00023004   Section        8  cmnlib_main.o(.data)
    .data                                    0x0002300c   Section        8  sfs_api.o(.data)
    sfs_init                                 0x0002300c   Data           1  sfs_api.o(.data)
    res                                      0x00023010   Data           4  sfs_api.o(.data)
    .data                                    0x00023014   Section       52  secrsa_padding.o(.data)
    .data                                    0x00023048   Section       12  sfs.o(.data)
    sfs_default_seg_size                     0x0002304c   Data           4  sfs.o(.data)
    .data                                    0x00023054   Section     4372  des_core.o(.data)
    des_check_key                            0x00023054   Data           4  des_core.o(.data)
    des_SPtrans                              0x00023058   Data        2048  des_core.o(.data)
    odd_parity                               0x00023858   Data         256  des_core.o(.data)
    des_skb                                  0x00023958   Data        2048  des_core.o(.data)
    shifts2                                  0x00024158   Data          16  des_core.o(.data)
    .data                                    0x00024168   Section       64  qrlbn_arith.o(.data)
    init_recip                               0x00024168   Data          64  qrlbn_arith.o(.data)
    .data                                    0x000241a8   Section       77  qrlbn_ecc.o(.data)
    .bss                                     0x000241f8   Section      160  cmnlib_main.o(.bss)
    printf_buf                               0x000241f8   Data         160  cmnlib_main.o(.bss)
    .bss                                     0x00024298   Section      256  sfs_api.o(.bss)
    .bss                                     0x00024398   Section     2064  secmath_mod_exp.o(.bss)
    .bss                                     0x00024ba8   Section     2600  secmath_BIGINT_prime_test.o(.bss)
    .bss                                     0x000255d0   Section     2620  secrsa_math.o(.bss)
    .bss                                     0x0002600c   Section       20  rt_locale.o(.bss)
    __rt_locale_data                         0x0002600c   Data          20  rt_locale.o(.bss)

    Global Symbols

    Symbol Name                              Value     Ov Type        Size  Object(Section)

    BuildAttributes$$THM_ISAv4$ARM_ISAv7$X$E$P$J$Z$K$B$S$PE$PLD3$A:L22UL41UL21$X:L11$S22US41US21$IEEE1$IW$RWPI$~STKCKD$USESV7$~SHL$OTIME$ROPI$IEEEJ$EBA8$STANDARDLIB$THUMB2LIB$REQ8$PRES8$EABIv2 0x00000000   Number         0  anon$$obj.o ABSOLUTE
    CMNLIBENTRY                              0x00000000   ARM Code       0  cmnlib_entry.o(CMNLIBENTRYCODE)
    __cmnlib_main                            0x00000000   ARM Code       0  cmnlib_entry.o(CMNLIBENTRYCODE)
    _cmnlib_main                             0x00000000   ARM Code       0  cmnlib_entry.o(CMNLIBENTRYCODE)
    _printf_flags                            0x00000000   Number         0  printf_stubs.o ABSOLUTE
    _printf_return_value                     0x00000000   Number         0  printf_stubs.o ABSOLUTE
    _printf_sizespec                         0x00000000   Number         0  printf_stubs.o ABSOLUTE
    _printf_widthprec                        0x00000000   Number         0  printf_stubs.o ABSOLUTE
    __ARM_exceptions_init                     - Undefined Weak Reference
    __alloca_initialize                       - Undefined Weak Reference
    __cpp_initialize__aeabi_                  - Undefined Weak Reference
    __sigvec_lookup                           - Undefined Weak Reference
    _atexit_init                              - Undefined Weak Reference
    _clock_init                               - Undefined Weak Reference
    _fp_trap_init                             - Undefined Weak Reference
    _get_lc_collate                           - Undefined Weak Reference
    _get_lc_monetary                          - Undefined Weak Reference
    _get_lc_time                              - Undefined Weak Reference
    _getenv_init                              - Undefined Weak Reference
    _handle_redirection                       - Undefined Weak Reference
    _init_alloc                               - Undefined Weak Reference
    _init_user_alloc                          - Undefined Weak Reference
    _initio                                   - Undefined Weak Reference
    _printf_fp_hex                            - Undefined Weak Reference
    _printf_mbtowc                            - Undefined Weak Reference
    _printf_wc                                - Undefined Weak Reference
    _rand_init                                - Undefined Weak Reference
    _signal_init                              - Undefined Weak Reference
    set_cmnlib_rw_base                       0x0000000c   ARM Code       0  cmnlib_entry.o(CMNLIBENTRYCODE)
    cmp_char_i                               0x00000019   Thumb Code    28  cmnlib_comstr.o(.text)
    qsee_strnicmp                            0x00000035   Thumb Code    68  cmnlib_comstr.o(.text)
    qsee_strlcpy                             0x00000079   Thumb Code    60  cmnlib_comstr.o(.text)
    qsee_strlcat                             0x000000b5   Thumb Code    88  cmnlib_comstr.o(.text)
    qsee_wstrlen                             0x0000010d   Thumb Code    18  cmnlib_comstr.o(.text)
    wstrlcpy                                 0x0000011f   Thumb Code    52  cmnlib_comstr.o(.text)
    qsee_wstrlcat                            0x00000153   Thumb Code   110  cmnlib_comstr.o(.text)
    qsee_strtowstr                           0x000001c1   Thumb Code   140  cmnlib_comstr.o(.text)
    qsee_wstrtostr                           0x0000024d   Thumb Code    50  cmnlib_comstr.o(.text)
    qsee_wstrchr                             0x0000027f   Thumb Code    24  cmnlib_comstr.o(.text)
    qsee_wstrcmp                             0x00000297   Thumb Code    24  cmnlib_comstr.o(.text)
    secmath_BIGINT_read_unsigned_bin_wrapper 0x000002af   Thumb Code    68  cmnlib_secmath_wrapper.o(.text)
    secmath_BIGINT_read_radix_wrapper        0x000002f3   Thumb Code    68  cmnlib_secmath_wrapper.o(.text)
    secpkcs8_parse_wrapper                   0x00000337   Thumb Code    68  cmnlib_secrsa_wrapper.o(.text)
    ce_rsa_key_gen_wrapper                   0x0000037b   Thumb Code    74  cmnlib_secrsa_wrapper.o(.text)
    ce_rsa_encrypt_wrapper                   0x000003c5   Thumb Code    84  cmnlib_secrsa_wrapper.o(.text)
    ce_rsa_decrypt_wrapper                   0x00000419   Thumb Code    84  cmnlib_secrsa_wrapper.o(.text)
    ce_rsa_sign_hash_wrapper                 0x0000046d   Thumb Code    78  cmnlib_secrsa_wrapper.o(.text)
    ce_rsa_verify_signature_wrapper          0x000004bb   Thumb Code    78  cmnlib_secrsa_wrapper.o(.text)
    ce_util_init_s_bigint_wrapper            0x00000509   Thumb Code    56  cmnlib_secrsa_wrapper.o(.text)
    ce_util_free_s_bigint_wrapper            0x00000541   Thumb Code    54  cmnlib_secrsa_wrapper.o(.text)
    ce_util_count_bytes_wrapper              0x00000577   Thumb Code    56  cmnlib_secrsa_wrapper.o(.text)
    ce_rsa_exptmod_wrapper                   0x000005af   Thumb Code    84  cmnlib_secrsa_wrapper.o(.text)
    SW_ECC_PubPrivate_Key_generate_wrapper   0x00000603   Thumb Code    64  cmnlib_ecc_wrapper.o(.text)
    SW_ECDH_Shared_Key_Derive_wrapper        0x00000643   Thumb Code    68  cmnlib_ecc_wrapper.o(.text)
    SW_ECDSA_Sign_wrapper                    0x00000687   Thumb Code    68  cmnlib_ecc_wrapper.o(.text)
    SW_ECDSA_Verify_wrapper                  0x000006cb   Thumb Code    68  cmnlib_ecc_wrapper.o(.text)
    SW_ECDH_mult_basepoint_wrapper           0x0000070f   Thumb Code    64  cmnlib_ecc_wrapper.o(.text)
    ECC_hash_to_bigval_wrapper               0x0000074f   Thumb Code    64  cmnlib_ecc_wrapper.o(.text)
    toggle_random_bit_wrapper                0x0000078f   Thumb Code    64  cmnlib_ecc_wrapper.o(.text)
    in_curveP_wrapper                        0x000007cf   Thumb Code    56  cmnlib_ecc_wrapper.o(.text)
    get_random_bytes_wrapper                 0x00000807   Thumb Code    64  cmnlib_ecc_wrapper.o(.text)
    SW_ECDH_generate_wrapper                 0x00000847   Thumb Code    64  cmnlib_ecc_wrapper.o(.text)
    SW_ECDH_derive_wrapper                   0x00000887   Thumb Code    68  cmnlib_ecc_wrapper.o(.text)
    SW_GENERIC_ECC_init_wrapper              0x000008cb   Thumb Code    78  cmnlib_ecc_wrapper.o(.text)
    SW_GENERIC_ECDSA_sign_wrapper            0x00000919   Thumb Code    78  cmnlib_ecc_wrapper.o(.text)
    SW_GENERIC_ECDSA_verify_wrapper          0x00000967   Thumb Code    78  cmnlib_ecc_wrapper.o(.text)
    SW_GENERIC_ECDH_shared_key_derive_wrapper 0x000009b5   Thumb Code    74  cmnlib_ecc_wrapper.o(.text)
    SW_GENERIC_ECC_keypair_generate_wrapper  0x000009ff   Thumb Code    68  cmnlib_ecc_wrapper.o(.text)
    SW_GENERIC_ECC_binary_to_bigval_wrapper  0x00000a43   Thumb Code    78  cmnlib_ecc_wrapper.o(.text)
    SW_GENERIC_ECC_bigval_to_binary_wrapper  0x00000a91   Thumb Code    78  cmnlib_ecc_wrapper.o(.text)
    SW_GENERIC_ECC_compare_wrapper           0x00000adf   Thumb Code    68  cmnlib_ecc_wrapper.o(.text)
    SW_Cipher_Init_wrapper                   0x00000b23   Thumb Code    64  cmnlib_ufaes_wrapper.o(.text)
    SW_Cipher_DeInit_wrapper                 0x00000b63   Thumb Code    64  cmnlib_ufaes_wrapper.o(.text)
    SW_CipherData_wrapper                    0x00000ba3   Thumb Code    74  cmnlib_ufaes_wrapper.o(.text)
    SW_Cipher_SetParam_wrapper               0x00000bed   Thumb Code    74  cmnlib_ufaes_wrapper.o(.text)
    SW_Cipher_GetParam_wrapper               0x00000c37   Thumb Code    74  cmnlib_ufaes_wrapper.o(.text)
    SW_AE_UpdateAAD_wrapper                  0x00000c81   Thumb Code    68  cmnlib_ufaes_wrapper.o(.text)
    SW_AE_UpdateData_wrapper                 0x00000cc5   Thumb Code    74  cmnlib_ufaes_wrapper.o(.text)
    SW_AE_FinalData_wrapper                  0x00000d0f   Thumb Code    74  cmnlib_ufaes_wrapper.o(.text)
    SW_Cipher_DES_Init_wrapper               0x00000d59   Thumb Code    64  cmnlib_ufdes_wrapper.o(.text)
    SW_Cipher_DES_DeInit_wrapper             0x00000d99   Thumb Code    56  cmnlib_ufdes_wrapper.o(.text)
    SW_CipherDESData_wrapper                 0x00000dd1   Thumb Code    74  cmnlib_ufdes_wrapper.o(.text)
    SW_Cipher_DES_SetParam_wrapper           0x00000e1b   Thumb Code    74  cmnlib_ufdes_wrapper.o(.text)
    SW_Hash_Init_wrapper                     0x00000e65   Thumb Code    64  cmnlib_ufsha_wrapper.o(.text)
    SW_Hash_Update_wrapper                   0x00000ea5   Thumb Code    68  cmnlib_ufsha_wrapper.o(.text)
    SW_Hash_Final_wrapper                    0x00000ee9   Thumb Code    64  cmnlib_ufsha_wrapper.o(.text)
    SW_Hmac_wrapper                          0x00000f29   Thumb Code    90  cmnlib_ufsha_wrapper.o(.text)
    qsee_hash                                0x00000f83   Thumb Code    36  qsee_crypto_shim.o(.text)
    qsee_hash_init                           0x00000fa7   Thumb Code    34  qsee_crypto_shim.o(.text)
    qsee_hash_reset                          0x00000fc9   Thumb Code    32  qsee_crypto_shim.o(.text)
    qsee_hash_update                         0x00000fe9   Thumb Code    36  qsee_crypto_shim.o(.text)
    qsee_hash_final                          0x0000100d   Thumb Code    36  qsee_crypto_shim.o(.text)
    qsee_hash_free_ctx                       0x00001031   Thumb Code    32  qsee_crypto_shim.o(.text)
    qsee_hash_set_param                      0x00001051   Thumb Code    36  qsee_crypto_shim.o(.text)
    qsee_hashcipher_encrypt                  0x00001075   Thumb Code    46  qsee_crypto_shim.o(.text)
    qsee_hashcipher_decrypt                  0x000010a3   Thumb Code    46  qsee_crypto_shim.o(.text)
    qsee_cipher_init                         0x000010d1   Thumb Code    34  qsee_crypto_shim.o(.text)
    qsee_cipher_reset                        0x000010f3   Thumb Code    32  qsee_crypto_shim.o(.text)
    qsee_cipher_free_ctx                     0x00001113   Thumb Code    32  qsee_crypto_shim.o(.text)
    qsee_cipher_set_param                    0x00001133   Thumb Code    36  qsee_crypto_shim.o(.text)
    qsee_cipher_get_param                    0x00001157   Thumb Code    36  qsee_crypto_shim.o(.text)
    qsee_cipher_encrypt                      0x0000117b   Thumb Code    36  qsee_crypto_shim.o(.text)
    qsee_cipher_decrypt                      0x0000119f   Thumb Code    36  qsee_crypto_shim.o(.text)
    qsee_hmac                                0x000011c3   Thumb Code    36  qsee_crypto_shim.o(.text)
    qsee_hmac_init                           0x000011e7   Thumb Code    34  qsee_crypto_shim.o(.text)
    qsee_hmac_update                         0x00001209   Thumb Code    36  qsee_crypto_shim.o(.text)
    qsee_hmac_final                          0x0000122d   Thumb Code    36  qsee_crypto_shim.o(.text)
    qsee_hmac_free_ctx                       0x00001251   Thumb Code    32  qsee_crypto_shim.o(.text)
    qsee_cmac                                0x00001271   Thumb Code    46  qsee_crypto_shim.o(.text)
    qsee_prng_getdata                        0x0000129f   Thumb Code    34  qsee_crypto_shim.o(.text)
    qsee_crypto_lock_engine                  0x000012c1   Thumb Code    34  qsee_crypto_shim.o(.text)
    qsee_kdf_shim                            0x000012e3   Thumb Code    34  qsee_crypto_shim.o(.text)
    qsee_set_bandwidth                       0x00001305   Thumb Code    36  qsee_crypto_shim.o(.text)
    qsee_counter_set_folder                  0x00001329   Thumb Code    32  qsee_counter_shim.o(.text)
    qsee_create_counter                      0x00001349   Thumb Code    30  qsee_counter_shim.o(.text)
    qsee_query_counter                       0x00001367   Thumb Code    34  qsee_counter_shim.o(.text)
    qsee_increment_counter                   0x00001389   Thumb Code    32  qsee_counter_shim.o(.text)
    qsee_delete_counter                      0x000013a9   Thumb Code    32  qsee_counter_shim.o(.text)
    qsee_get_tz_app_name                     0x000013c9   Thumb Code    34  qsee_counter_shim.o(.text)
    qsee_query_rpmb_version                  0x000013eb   Thumb Code    32  qsee_counter_shim.o(.text)
    qsee_query_rpmb_enablement               0x0000140b   Thumb Code    32  qsee_counter_shim.o(.text)
    mem_heap_get_random_num                  0x00001467   Thumb Code    26  memheap_lite.o(.text)
    mem_init_heap                            0x00001549   Thumb Code   350  memheap_lite.o(.text)
    mem_deinit_heap                          0x000016a7   Thumb Code   116  memheap_lite.o(.text)
    mem_malloc                               0x00001831   Thumb Code   344  memheap_lite.o(.text)
    mem_free                                 0x00001989   Thumb Code   362  memheap_lite.o(.text)
    secmath_BIGINT_read_radix                0x00001af3   Thumb Code    82  secmath_BIGINT_read_radix.o(.text)
    secmath_BIGINT_read_unsigned_bin         0x00001b45   Thumb Code   128  secmath_BIGINT_read_unsigned_bin.o(.text)
    ce_rsa_encrypt                           0x00001bc5   Thumb Code   314  secrsa_encryption.o(.text)
    ce_rsa_decrypt                           0x00001cff   Thumb Code   272  secrsa_encryption.o(.text)
    ce_rsa_exptmod                           0x00001e0f   Thumb Code   388  secrsa_exptmod.o(.text)
    ce_rsa_sign_hash                         0x00001f93   Thumb Code   260  secrsa_signature.o(.text)
    ce_rsa_verify_signature                  0x00002097   Thumb Code   348  secrsa_signature.o(.text)
    ce_util_count_bits                       0x000021f3   Thumb Code    48  secrsa_utils.o(.text)
    ce_util_count_bytes                      0x00002223   Thumb Code    68  secrsa_utils.o(.text)
    ce_util_init_s_bigint                    0x00002267   Thumb Code    42  secrsa_utils.o(.text)
    ce_util_free_s_bigint                    0x00002291   Thumb Code    10  secrsa_utils.o(.text)
    ce_util_reverse_str                      0x0000229b   Thumb Code    30  secrsa_utils.o(.text)
    ce_util_cmp                              0x000022b9   Thumb Code   116  secrsa_utils.o(.text)
    ce_util_cmp_d                            0x0000232d   Thumb Code    48  secrsa_utils.o(.text)
    ce_util_to_unsigned_bin                  0x0000235d   Thumb Code   144  secrsa_utils.o(.text)
    ce_util_read_unsigned_bin                0x000023ed   Thumb Code     4  secrsa_utils.o(.text)
    ce_util_replace_zeros                    0x000023f1   Thumb Code    50  secrsa_utils.o(.text)
    secpkcs8_parse                           0x00002423   Thumb Code   862  secpkcs8.o(.text)
    time_getutcsec                           0x00002781   Thumb Code   136  time.o(.text)
    time_getsystime                          0x00002809   Thumb Code   120  time.o(.text)
    time_getmsec                             0x00002881   Thumb Code   104  time.o(.text)
    time_is_leap_year                        0x000028e9   Thumb Code    56  time.o(.text)
    time_end                                 0x00002921   Thumb Code   104  time.o(.text)
    qsee_kdf                                 0x00002989   Thumb Code    46  qsee_kdf.o(.text)
    ECC_hash_to_bigval                       0x000029b7   Thumb Code   110  ecc_core.o(i.ECC_hash_to_bigval)
    ECDH_derive                              0x00002a25   Thumb Code    48  ecc_core.o(i.ECDH_derive)
    ECDH_derive_pt                           0x00002a55   Thumb Code   120  ecc_core.o(i.ECDH_derive_pt)
    ECDH_generate                            0x00002acd   Thumb Code    46  ecc_core.o(i.ECDH_generate)
    ECDH_mult_basepoint                      0x00002afb   Thumb Code    20  ecc_core.o(i.ECDH_mult_basepoint)
    ECDSA_sign                               0x00002b0f   Thumb Code   128  ecc_core.o(i.ECDSA_sign)
    ECDSA_verify                             0x00002b8f   Thumb Code    16  ecc_core.o(i.ECDSA_verify)
    big_add                                  0x00002d23   Thumb Code    50  ecc_core.o(i.big_add)
    big_cmp                                  0x00002e59   Thumb Code    64  ecc_core.o(i.big_cmp)
    big_get_random_n                         0x00002ffb   Thumb Code    64  ecc_core.o(i.big_get_random_n)
    big_is_zero                              0x000030b7   Thumb Code    22  ecc_core.o(i.big_is_zero)
    bigval_to_binary                         0x00003603   Thumb Code    66  ecc_core.o(i.bigval_to_binary)
    binary_to_bigval                         0x00003645   Thumb Code    64  ecc_core.o(i.binary_to_bigval)
    get_random_bytes                         0x00003685   Thumb Code    28  ecc_core.o(i.get_random_bytes)
    in_curveP                                0x000036a1   Thumb Code   128  ecc_core.o(i.in_curveP)
    pointAddAffine                           0x000038cb   Thumb Code    36  ecc_core.o(i.pointAddAffine)
    toggle_random_bit                        0x00003bf7   Thumb Code    88  ecc_core.o(i.toggle_random_bit)
    SW_Cipher_Init                           0x00003c4f   Thumb Code    64  aes_shared.o(.text)
    SW_Cipher_DeInit                         0x00003c8f   Thumb Code    42  aes_shared.o(.text)
    SW_Cipher_Reset                          0x00003cb9   Thumb Code   190  aes_shared.o(.text)
    SW_CipherData                            0x00003d77   Thumb Code  1636  aes_shared.o(.text)
    SW_AE_UpdateAAD                          0x000043db   Thumb Code   166  aes_shared.o(.text)
    SW_AE_UpdateData                         0x00004481   Thumb Code   396  aes_shared.o(.text)
    SW_AE_FinalData                          0x0000460d   Thumb Code   458  aes_shared.o(.text)
    SW_Cipher_SetParam                       0x000047d7   Thumb Code   510  aes_shared.o(.text)
    SW_Cipher_GetParam                       0x000049d5   Thumb Code   102  aes_shared.o(.text)
    SW_Cipher_DES_Init                       0x00004a55   Thumb Code    52  des_shared.o(.text)
    SW_Cipher_DES_DeInit                     0x00004a89   Thumb Code     6  des_shared.o(.text)
    SW_CipherDESData                         0x00004a8f   Thumb Code  1464  des_shared.o(.text)
    SW_Cipher_DES_SetParam                   0x00005047   Thumb Code   324  des_shared.o(.text)
    SW_ECC_PubPrivate_Key_generate           0x0000518b   Thumb Code    24  ecc_shared.o(.text)
    SW_ECDH_Shared_Key_Derive                0x000051a3   Thumb Code    42  ecc_shared.o(.text)
    SW_ECDSA_Sign                            0x000051cd   Thumb Code    26  ecc_shared.o(.text)
    SW_ECDSA_Verify                          0x000051e7   Thumb Code    26  ecc_shared.o(.text)
    SW_ECDH_mult_basepoint                   0x00005201   Thumb Code    24  ecc_shared.o(.text)
    SW_ECDH_generate                         0x00005219   Thumb Code    14  ecc_shared.o(.text)
    SW_ECDH_derive                           0x00005227   Thumb Code    14  ecc_shared.o(.text)
    SW_GENERIC_ECC_init                      0x00005235   Thumb Code    74  ecc_generic_shared.o(.text)
    SW_GENERIC_ECDSA_sign                    0x0000527f   Thumb Code    66  ecc_generic_shared.o(.text)
    SW_GENERIC_ECDSA_verify                  0x000052c1   Thumb Code    76  ecc_generic_shared.o(.text)
    SW_GENERIC_ECDH_shared_key_derive        0x0000530d   Thumb Code    36  ecc_generic_shared.o(.text)
    SW_GENERIC_ECC_keypair_generate          0x00005331   Thumb Code    28  ecc_generic_shared.o(.text)
    SW_GENERIC_ECC_binary_to_bigval          0x0000534d   Thumb Code    50  ecc_generic_shared.o(.text)
    SW_GENERIC_ECC_bigval_to_binary          0x0000537f   Thumb Code    46  ecc_generic_shared.o(.text)
    SW_GENERIC_ECC_compare                   0x000053ad   Thumb Code    28  ecc_generic_shared.o(.text)
    SW_Hash_Final                            0x000053c9   Thumb Code   212  sha_shared.o(i.SW_Hash_Final)
    SW_Hash_Init                             0x0000549d   Thumb Code   124  sha_shared.o(i.SW_Hash_Init)
    SW_Hash_Update                           0x00005519   Thumb Code   208  sha_shared.o(i.SW_Hash_Update)
    SW_Hmac                                  0x000055e9   Thumb Code   664  sha_shared.o(i.SW_Hmac)
    timesafe_memcmp                          0x00005881   Thumb Code    62  timesafe_memcmp.o(.text)
    mod_exp                                  0x000058bf   Thumb Code   502  secmath_mod_exp.o(.text)
    secmath_BIGINT_modexp                    0x00005ab5   Thumb Code   172  secmath_mod_exp.o(.text)
    secmath_no_c_strnlen                     0x00005b61   Thumb Code    22  secmath_hex_str_to_bin.o(.text)
    secmath_hex_str_to_bin                   0x00005b77   Thumb Code   172  secmath_hex_str_to_bin.o(.text)
    LSB                                      0x00005c23   Thumb Code     6  secmath_BIGINT_prime_test.o(.text)
    BIGINT_LSB                               0x00005c29   Thumb Code     8  secmath_BIGINT_prime_test.o(.text)
    check_trivially_composite                0x00005c31   Thumb Code    14  secmath_BIGINT_prime_test.o(.text)
    BIGINT_RAND                              0x00005c3f   Thumb Code   140  secmath_BIGINT_prime_test.o(.text)
    is_one                                   0x00005ccb   Thumb Code    88  secmath_BIGINT_prime_test.o(.text)
    secmath_BIGINT_prime_test                0x00005d23   Thumb Code   734  secmath_BIGINT_prime_test.o(.text)
    ce_util_lshd                             0x00006001   Thumb Code   156  secrsa_math.o(.text)
    ce_util_rshd                             0x0000609d   Thumb Code   184  secrsa_math.o(.text)
    ce_util_unsigned_add                     0x00006155   Thumb Code   222  secrsa_math.o(.text)
    ce_util_unsigned_sub                     0x00006233   Thumb Code   226  secrsa_math.o(.text)
    ce_util_add                              0x00006315   Thumb Code    78  secrsa_math.o(.text)
    ce_util_sub                              0x00006363   Thumb Code    92  secrsa_math.o(.text)
    ce_util_mul                              0x000063bf   Thumb Code   292  secrsa_math.o(.text)
    ce_util_div_2d                           0x000064e3   Thumb Code   134  secrsa_math.o(.text)
    ce_util_mul_d                            0x00006569   Thumb Code   208  secrsa_math.o(.text)
    ce_util_mul_2d                           0x00006639   Thumb Code   160  secrsa_math.o(.text)
    ce_util_div                              0x000066d9   Thumb Code  1878  secrsa_math.o(.text)
    ce_util_div_2                            0x00006e2f   Thumb Code   158  secrsa_math.o(.text)
    ce_util_mod                              0x00006ecd   Thumb Code    98  secrsa_math.o(.text)
    ce_util_gcd                              0x00006f2f   Thumb Code   282  secrsa_math.o(.text)
    ce_util_lcm                              0x00007049   Thumb Code   148  secrsa_math.o(.text)
    S_BIGINT_ISEVEN                          0x000070dd   Thumb Code    24  secrsa_math.o(.text)
    S_BIGINT_ISODD                           0x000070f5   Thumb Code    24  secrsa_math.o(.text)
    ce_util_invmod_slow                      0x0000710d   Thumb Code  1166  secrsa_math.o(.text)
    ce_util_invmod                           0x0000759b   Thumb Code   676  secrsa_math.o(.text)
    secrsa_memset                            0x0000783f   Thumb Code    20  secrsa_mem.o(.text)
    RSA_CRT_exponent_bignum                  0x00007853   Thumb Code   348  secrsa_crt.o(.text)
    RSA_CRT_exponent                         0x000079af   Thumb Code   262  secrsa_crt.o(.text)
    ce_pkcs1_v1_5_padding_encode             0x00007ab5   Thumb Code   354  secrsa_padding.o(.text)
    ce_pkcs1_v1_5_padding_decode             0x00007c17   Thumb Code   198  secrsa_padding.o(.text)
    i2osp                                    0x00007cdd   Thumb Code    76  secrsa_padding.o(.text)
    ce_pkcs1_mgf1                            0x00007d29   Thumb Code   290  secrsa_padding.o(.text)
    ce_pkcs1_oaep_padding_encode             0x00007e4b   Thumb Code   710  secrsa_padding.o(.text)
    ce_pkcs1_oaep_padding_decode             0x00008111   Thumb Code   608  secrsa_padding.o(.text)
    ce_pkcs1_pss_padding_encode              0x00008371   Thumb Code   502  secrsa_padding.o(.text)
    ce_pkcs1_pss_padding_verify              0x00008567   Thumb Code   466  secrsa_padding.o(.text)
    ce_pkcs1_pss_padding_verify_auto_recover_saltlen 0x00008739   Thumb Code   512  secrsa_padding.o(.text)
    secasn1_decode_tag                       0x00008939   Thumb Code    84  secasn1.o(.text)
    secasn1_decode_length                    0x0000898d   Thumb Code   110  secasn1.o(.text)
    secasn1_start                            0x000089fb   Thumb Code   100  secasn1.o(.text)
    secasn1_end                              0x00008a5f   Thumb Code    44  secasn1.o(.text)
    secasn1_close_sequence                   0x00008a8b   Thumb Code    88  secasn1.o(.text)
    secasn1_next_field                       0x00008ae3   Thumb Code   206  secasn1.o(.text)
    secasn1_decode_bit_string                0x00008bb1   Thumb Code    40  secasn1.o(.text)
    secasn1_decode_boolean                   0x00008bd9   Thumb Code    36  secasn1.o(.text)
    qsee_oem_set_kdf_derive_key              0x00008bfd   Thumb Code    10  qsee_oem_utils.o(.text)
    qsee_sfs_set_segment_size                0x00008c07   Thumb Code     6  qsee_oem_utils.o(.text)
    qsee_sfs_set_safe_mode                   0x00008c0d   Thumb Code     4  qsee_oem_utils.o(.text)
    qsee_sfs_set_root_path                   0x00008c11   Thumb Code    12  qsee_oem_utils.o(.text)
    sfs_ll_alloc_size                        0x00008c1d   Thumb Code     8  sfs_ll_funcs.o(.text)
    sfs_ll_open                              0x00008c25   Thumb Code    34  sfs_ll_funcs.o(.text)
    sfs_ll_close                             0x00008c47   Thumb Code    22  sfs_ll_funcs.o(.text)
    sfs_ll_read                              0x00008c5d   Thumb Code    44  sfs_ll_funcs.o(.text)
    sfs_ll_write                             0x00008c89   Thumb Code     8  sfs_ll_funcs.o(.text)
    sfs_ll_exists                            0x00008c91   Thumb Code    48  sfs_ll_funcs.o(.text)
    sfs_ll_isdir                             0x00008cc1   Thumb Code    38  sfs_ll_funcs.o(.text)
    sfs_ll_rm                                0x00008ce7   Thumb Code    18  sfs_ll_funcs.o(.text)
    sfs_ll_mkdir                             0x00008cf9   Thumb Code    48  sfs_ll_funcs.o(.text)
    sfs_ll_rmdir                             0x00008d29   Thumb Code    16  sfs_ll_funcs.o(.text)
    aes_decrypt_block                        0x00008d39   Thumb Code   664  aes_core.o(i.aes_decrypt_block)
    aes_encrypt_block                        0x00008fd1   Thumb Code   664  aes_core.o(i.aes_encrypt_block)
    aes_set_key                              0x00009269   Thumb Code  1044  aes_core.o(i.aes_set_key)
    gcm_auth_data                            0x0000967d   Thumb Code   304  gcm.o(i.gcm_auth_data)
    gcm_auth_header                          0x000097ad   Thumb Code   304  gcm.o(i.gcm_auth_header)
    gcm_compute_tag                          0x000098dd   Thumb Code   258  gcm.o(i.gcm_compute_tag)
    gcm_crypt_data                           0x000099df   Thumb Code   394  gcm.o(i.gcm_crypt_data)
    gcm_decrypt                              0x00009b69   Thumb Code    32  gcm.o(i.gcm_decrypt)
    gcm_decrypt_message                      0x00009b89   Thumb Code   112  gcm.o(i.gcm_decrypt_message)
    gcm_encrypt                              0x00009bf9   Thumb Code    32  gcm.o(i.gcm_encrypt)
    gcm_encrypt_message                      0x00009c19   Thumb Code    88  gcm.o(i.gcm_encrypt_message)
    gcm_end                                  0x00009c71   Thumb Code    16  gcm.o(i.gcm_end)
    gcm_init_and_key                         0x00009c81   Thumb Code    70  gcm.o(i.gcm_init_and_key)
    gcm_init_message                         0x00009cc7   Thumb Code   194  gcm.o(i.gcm_init_message)
    gf_mul_hh                                0x00009d89   Thumb Code    22  gcm.o(i.gf_mul_hh)
    ccm_auth_data                            0x00009e8b   Thumb Code   380  ccm.o(i.ccm_auth_data)
    ccm_auth_header                          0x0000a007   Thumb Code   446  ccm.o(i.ccm_auth_header)
    ccm_compute_tag                          0x0000a1c5   Thumb Code   316  ccm.o(i.ccm_compute_tag)
    ccm_crypt_data                           0x0000a301   Thumb Code   526  ccm.o(i.ccm_crypt_data)
    ccm_decrypt                              0x0000a50f   Thumb Code    32  ccm.o(i.ccm_decrypt)
    ccm_decrypt_message                      0x0000a52f   Thumb Code   114  ccm.o(i.ccm_decrypt_message)
    ccm_encrypt                              0x0000a5a1   Thumb Code    32  ccm.o(i.ccm_encrypt)
    ccm_encrypt_message                      0x0000a5c1   Thumb Code   102  ccm.o(i.ccm_encrypt_message)
    ccm_end                                  0x0000a627   Thumb Code    16  ccm.o(i.ccm_end)
    ccm_init_and_key                         0x0000a637   Thumb Code    44  ccm.o(i.ccm_init_and_key)
    ccm_init_message                         0x0000a663   Thumb Code   850  ccm.o(i.ccm_init_message)
    des_cbc_decrypt                          0x0000aac5   Thumb Code   298  des_core.o(i.des_cbc_decrypt)
    des_cbc_encrypt                          0x0000abef   Thumb Code   300  des_core.o(i.des_cbc_encrypt)
    des_encrypt                              0x0000ad1b   Thumb Code   672  des_core.o(i.des_encrypt)
    des_set_key                              0x0000afbb   Thumb Code   544  des_core.o(i.des_set_key)
    qrlbn_add                                0x0000b2ab   Thumb Code   114  qrlbn_arith.o(i.qrlbn_add)
    qrlbn_binary_to_bn                       0x0000b31d   Thumb Code   138  qrlbn_arith.o(i.qrlbn_binary_to_bn)
    qrlbn_bn_to_binary                       0x0000b3a7   Thumb Code   128  qrlbn_arith.o(i.qrlbn_bn_to_binary)
    qrlbn_compare                            0x0000b427   Thumb Code   104  qrlbn_arith.o(i.qrlbn_compare)
    qrlbn_decimal_string_to_bn               0x0000b48f   Thumb Code   182  qrlbn_arith.o(i.qrlbn_decimal_string_to_bn)
    qrlbn_full_reduce                        0x0000b545   Thumb Code   330  qrlbn_arith.o(i.qrlbn_full_reduce)
    qrlbn_hex_string_to_bn                   0x0000b68f   Thumb Code   280  qrlbn_arith.o(i.qrlbn_hex_string_to_bn)
    qrlbn_is_zero                            0x0000b7a7   Thumb Code    34  qrlbn_arith.o(i.qrlbn_is_zero)
    qrlbn_modular_2_to_k                     0x0000b7c9   Thumb Code    96  qrlbn_arith.o(i.qrlbn_modular_2_to_k)
    qrlbn_modular_adjust                     0x0000b829   Thumb Code   234  qrlbn_arith.o(i.qrlbn_modular_adjust)
    qrlbn_modular_shift_left                 0x0000b913   Thumb Code   276  qrlbn_arith.o(i.qrlbn_modular_shift_left)
    qrlbn_modulus_data_constructor           0x0000ba27   Thumb Code    26  qrlbn_arith.o(i.qrlbn_modulus_data_constructor)
    qrlbn_modulus_data_post_init             0x0000ba41   Thumb Code   280  qrlbn_arith.o(i.qrlbn_modulus_data_post_init)
    qrlbn_mont_mul                           0x0000bb59   Thumb Code    62  qrlbn_arith.o(i.qrlbn_mont_mul)
    qrlbn_mont_mul_one                       0x0000bb97   Thumb Code    46  qrlbn_arith.o(i.qrlbn_mont_mul_one)
    qrlbn_multiply_add_small                 0x0000bbc5   Thumb Code   134  qrlbn_arith.o(i.qrlbn_multiply_add_small)
    qrlbn_reduce                             0x0000bc4b   Thumb Code   258  qrlbn_arith.o(i.qrlbn_reduce)
    qrlbn_shift_right                        0x0000bd4d   Thumb Code    96  qrlbn_arith.o(i.qrlbn_shift_right)
    qrlbn_sub                                0x0000bdad   Thumb Code   122  qrlbn_arith.o(i.qrlbn_sub)
    qrlbn_vet                                0x0000be27   Thumb Code    54  qrlbn_arith.o(i.qrlbn_vet)
    gen_random_QR                            0x0000bf51   Thumb Code   126  qrlbn_ecc.o(i.gen_random_QR)
    qrlbn_ECC_bigval_to_binary               0x0000bfcf   Thumb Code   126  qrlbn_ecc.o(i.qrlbn_ECC_bigval_to_binary)
    qrlbn_ECC_convert_input_to_bigval        0x0000c04d   Thumb Code    82  qrlbn_ecc.o(i.qrlbn_ECC_convert_input_to_bigval)
    qrlbn_ECC_domain_field_pointer           0x0000c09f   Thumb Code    58  qrlbn_ecc.o(i.qrlbn_ECC_domain_field_pointer)
    qrlbn_ecc_domain_init_str                0x0000c1a5   Thumb Code   242  qrlbn_ecc.o(i.qrlbn_ecc_domain_init_str)
    qrlbn_ecc_domain_post_init               0x0000c297   Thumb Code   422  qrlbn_ecc.o(i.qrlbn_ecc_domain_post_init)
    qrlbn_ecc_domain_setup_structure         0x0000c43d   Thumb Code    74  qrlbn_ecc.o(i.qrlbn_ecc_domain_setup_structure)
    qrlbn_ecc_hash_to_bigval                 0x0000c487   Thumb Code   202  qrlbn_ecc.o(i.qrlbn_ecc_hash_to_bigval)
    qrlbn_ecc_square_root                    0x0000c551   Thumb Code   168  qrlbn_ecc.o(i.qrlbn_ecc_square_root)
    qrlbn_modexp_for_ecc                     0x0000c5f9   Thumb Code   162  qrlbn_ecc.o(i.qrlbn_modexp_for_ecc)
    qrlbn_negate                             0x0000c69b   Thumb Code    12  qrlbn_ecc.o(i.qrlbn_negate)
    qrlbn_point_add                          0x0000c6a7   Thumb Code  1626  qrlbn_ecc.o(i.qrlbn_point_add)
    qrlbn_point_dbl                          0x0000cd01   Thumb Code   836  qrlbn_ecc.o(i.qrlbn_point_dbl)
    qrlbn_point_multiply                     0x0000d045   Thumb Code  1362  qrlbn_ecc.o(i.qrlbn_point_multiply)
    qrlbn_point_to_affine                    0x0000d597   Thumb Code   224  qrlbn_ecc.o(i.qrlbn_point_to_affine)
    qrlbn_ECDH_derive                        0x0000dad5   Thumb Code   342  qrlbn_ecc_protocols.o(i.qrlbn_ECDH_derive)
    qrlbn_ECDH_generate                      0x0000dc2b   Thumb Code     4  qrlbn_ecc_protocols.o(i.qrlbn_ECDH_generate)
    qrlbn_ECDSA_sign                         0x0000dc2f   Thumb Code   914  qrlbn_ecc_protocols.o(i.qrlbn_ECDSA_sign)
    qrlbn_ECDSA_verify                       0x0000dfc1   Thumb Code   854  qrlbn_ecc_protocols.o(i.qrlbn_ECDSA_verify)
    qrlbn_EC_keypair_generate                0x0000e317   Thumb Code   138  qrlbn_ecc_protocols.o(i.qrlbn_EC_keypair_generate)
    qrlbn_EC_keypair_generate_internal       0x0000e3a1   Thumb Code    44  qrlbn_ecc_protocols.o(i.qrlbn_EC_keypair_generate_internal)
    qrlbn_cofactor_ECDH_derive               0x0000e48b   Thumb Code   396  qrlbn_ecc_protocols.o(i.qrlbn_cofactor_ECDH_derive)
    qrlbn_export_point                       0x0000e617   Thumb Code   168  qrlbn_ecc_protocols.o(i.qrlbn_export_point)
    qrlbn_import_point                       0x0000e6bf   Thumb Code   344  qrlbn_ecc_protocols.o(i.qrlbn_import_point)
    rol1                                     0x0000e817   Thumb Code     6  sha_core.o(i.rol1)
    rol24                                    0x0000e81d   Thumb Code     6  sha_core.o(i.rol24)
    rol30                                    0x0000e823   Thumb Code     6  sha_core.o(i.rol30)
    rol5                                     0x0000e829   Thumb Code     6  sha_core.o(i.rol5)
    rol8                                     0x0000e82f   Thumb Code     6  sha_core.o(i.rol8)
    sechsharm_sha1_init                      0x0000e835   Thumb Code    58  sha_core.o(i.sechsharm_sha1_init)
    sechsharm_sha1_transform                 0x0000e86f   Thumb Code  5098  sha_core.o(i.sechsharm_sha1_transform)
    sechsharm_sha1_update                    0x0000fc59   Thumb Code   136  sha_core.o(i.sechsharm_sha1_update)
    sechsharm_sha256_final                   0x0000fce1   Thumb Code    86  sha_core.o(i.sechsharm_sha256_final)
    sechsharm_sha256_init                    0x0000fd37   Thumb Code    70  sha_core.o(i.sechsharm_sha256_init)
    sechsharm_sha256_update                  0x000109d5   Thumb Code   198  sha_core.o(i.sechsharm_sha256_update)
    uc_free                                  0x00010a9b   Thumb Code    10  uc_env.o(i.uc_free)
    uc_malloc                                0x00010aa5   Thumb Code    24  uc_env.o(i.uc_malloc)
    uc_memcmp                                0x00010abd   Thumb Code    16  uc_env.o(i.uc_memcmp)
    uc_memcpy                                0x00010acd   Thumb Code    10  uc_env.o(i.uc_memcpy)
    uc_memset                                0x00010ad7   Thumb Code    16  uc_env.o(i.uc_memset)
    uc_rand                                  0x00010ae7   Thumb Code    30  uc_env.o(i.uc_rand)
    memscpy                                  0x00010b05   Thumb Code    30  memscpy.o(.text)
    montmul_ref                              0x00010b23   Thumb Code   228  secmath_montmul_ref.o(.text)
    montmul_one_ref                          0x00010c07   Thumb Code   194  secmath_montmul_ref.o(.text)
    compare                                  0x00010cc9   Thumb Code    38  secmath_montmul_utils.o(.text)
    increment                                0x00010cef   Thumb Code    42  secmath_montmul_utils.o(.text)
    decrement                                0x00010d19   Thumb Code    58  secmath_montmul_utils.o(.text)
    negate                                   0x00010d53   Thumb Code   118  secmath_montmul_utils.o(.text)
    sub                                      0x00010dc9   Thumb Code    48  secmath_montmul_utils.o(.text)
    add                                      0x00010df9   Thumb Code    46  secmath_montmul_utils.o(.text)
    addition                                 0x00010e27   Thumb Code    46  secmath_montmul_utils.o(.text)
    find_MSB32                               0x00010e55   Thumb Code    52  secmath_montmul_utils.o(.text)
    find_bn_MSB                              0x00010e89   Thumb Code   104  secmath_montmul_utils.o(.text)
    inverse32                                0x00010ef1   Thumb Code    62  secmath_montmul_utils.o(.text)
    right_shift                              0x00010f2f   Thumb Code   200  secmath_montmul_utils.o(.text)
    mult_base_mod_m                          0x0001111f   Thumb Code   228  secmath_barrett_reduce.o(.text)
    mult_R_mod_m                             0x00011203   Thumb Code   472  secmath_barrett_reduce.o(.text)
    bignum_mod_uint16                        0x000113db   Thumb Code   170  secmath_is_prime_div_chk.o(.text)
    bignum_mod_uint32                        0x00011485   Thumb Code   168  secmath_is_prime_div_chk.o(.text)
    is_prime_div_chk                         0x0001152d   Thumb Code   238  secmath_is_prime_div_chk.o(.text)
    ce_bignum_add                            0x0001161b   Thumb Code    76  secrsa_math2.o(.text)
    ce_bignum_sub                            0x00011667   Thumb Code   116  secrsa_math2.o(.text)
    ce_bignum_modular_reduction              0x000116db   Thumb Code   408  secrsa_math2.o(.text)
    ce_bignum_util_mul                       0x00011873   Thumb Code   296  secrsa_math2.o(.text)
    secmath_BIGNUM_modexp                    0x0001199b   Thumb Code   240  secrsa_math2.o(.text)
    gf_mul                                   0x00011a9d   Thumb Code   222  gf128mul.o(i.gf_mul)
    gf_mul_256                               0x00011b7b   Thumb Code    86  gf128mul.o(i.gf_mul_256)
    init_256_table                           0x00011ce7   Thumb Code    94  gf128mul.o(i.init_256_table)
    qrlbn_modular_divide                     0x00011dd7   Thumb Code   558  qrlbn_inverse.o(i.qrlbn_modular_divide)
    qrlbn_random_bit_vec                     0x00012005   Thumb Code    58  qrlbn_random.o(i.qrlbn_random_bit_vec)
    qrlbn_random_element                     0x0001203f   Thumb Code   190  qrlbn_random.o(i.qrlbn_random_element)
    qrlbn_random_range                       0x000120fd   Thumb Code    98  qrlbn_random.o(i.qrlbn_random_range)
    ffs                                      0x0001215f   Thumb Code    30  qrlbn_utils.o(i.ffs)
    find_MSB                                 0x0001217d   Thumb Code    58  qrlbn_utils.o(i.find_MSB)
    microfree                                0x000121eb   Thumb Code    14  qrlbn_utils.o(i.microfree)
    micromalloc                              0x000121f9   Thumb Code    28  qrlbn_utils.o(i.micromalloc)
    qrlbn_count_trailing_zeros               0x00012215   Thumb Code    90  qrlbn_utils.o(i.qrlbn_count_trailing_zeros)
    qrlbn_multiplexed_copy_arrays            0x0001226f   Thumb Code   152  qrlbn_utils.o(i.qrlbn_multiplexed_copy_arrays)
    qrlbn_zeroize                            0x00012307   Thumb Code    50  qrlbn_utils.o(i.qrlbn_zeroize)
    qrlbn_zeroize_words                      0x00012339   Thumb Code    18  qrlbn_utils.o(i.qrlbn_zeroize_words)
    __aeabi_llsl                             0x0001234b   Thumb Code     0  llshl.o(.text)
    _ll_shift_l                              0x0001234b   Thumb Code    38  llshl.o(.text)
    __aeabi_llsr                             0x00012371   Thumb Code     0  llushr.o(.text)
    _ll_ushift_r                             0x00012371   Thumb Code    38  llushr.o(.text)
    __aeabi_lasr                             0x00012397   Thumb Code     0  llsshr.o(.text)
    _ll_sshift_r                             0x00012397   Thumb Code    38  llsshr.o(.text)
    isblank                                  0x000123bd   Thumb Code    32  isblank.o(.text)
    _printf_str                              0x000123dd   Thumb Code    82  _printf_str.o(.text)
    _is_digit                                0x0001242f   Thumb Code    14  __printf_wp.o(i._is_digit)
    _printf_n                                0x0001243d   Thumb Code     0  _printf_n.o(.ARM.Collect$$_printf_percent$$00000001)
    _printf_percent                          0x0001243d   Thumb Code     0  _printf_percent.o(.ARM.Collect$$_printf_percent$$00000000)
    _printf_p                                0x00012443   Thumb Code     0  _printf_p.o(.ARM.Collect$$_printf_percent$$00000002)
    _printf_f                                0x00012449   Thumb Code     0  _printf_f.o(.ARM.Collect$$_printf_percent$$00000003)
    _printf_e                                0x0001244f   Thumb Code     0  _printf_e.o(.ARM.Collect$$_printf_percent$$00000004)
    _printf_g                                0x00012455   Thumb Code     0  _printf_g.o(.ARM.Collect$$_printf_percent$$00000005)
    _printf_a                                0x0001245b   Thumb Code     0  _printf_a.o(.ARM.Collect$$_printf_percent$$00000006)
    _printf_ll                               0x00012461   Thumb Code     0  _printf_ll.o(.ARM.Collect$$_printf_percent$$00000007)
    _printf_i                                0x0001246b   Thumb Code     0  _printf_i.o(.ARM.Collect$$_printf_percent$$00000008)
    _printf_d                                0x00012471   Thumb Code     0  _printf_d.o(.ARM.Collect$$_printf_percent$$00000009)
    _printf_u                                0x00012477   Thumb Code     0  _printf_u.o(.ARM.Collect$$_printf_percent$$0000000A)
    _printf_o                                0x0001247d   Thumb Code     0  _printf_o.o(.ARM.Collect$$_printf_percent$$0000000B)
    _printf_x                                0x00012483   Thumb Code     0  _printf_x.o(.ARM.Collect$$_printf_percent$$0000000C)
    _printf_lli                              0x00012489   Thumb Code     0  _printf_lli.o(.ARM.Collect$$_printf_percent$$0000000D)
    _printf_lld                              0x0001248f   Thumb Code     0  _printf_lld.o(.ARM.Collect$$_printf_percent$$0000000E)
    _printf_llu                              0x00012495   Thumb Code     0  _printf_llu.o(.ARM.Collect$$_printf_percent$$0000000F)
    _printf_llo                              0x0001249b   Thumb Code     0  _printf_llo.o(.ARM.Collect$$_printf_percent$$00000010)
    _printf_llx                              0x000124a1   Thumb Code     0  _printf_llx.o(.ARM.Collect$$_printf_percent$$00000011)
    _printf_l                                0x000124a7   Thumb Code     0  _printf_l.o(.ARM.Collect$$_printf_percent$$00000012)
    _printf_c                                0x000124b1   Thumb Code     0  _printf_c.o(.ARM.Collect$$_printf_percent$$00000013)
    _printf_s                                0x000124b7   Thumb Code     0  _printf_s.o(.ARM.Collect$$_printf_percent$$00000014)
    _printf_lc                               0x000124bd   Thumb Code     0  _printf_lc.o(.ARM.Collect$$_printf_percent$$00000015)
    _printf_ls                               0x000124c3   Thumb Code     0  _printf_ls.o(.ARM.Collect$$_printf_percent$$00000016)
    _printf_percent_end                      0x000124c9   Thumb Code     0  _printf_percent_end.o(.ARM.Collect$$_printf_percent$$00000017)
    memcmp                                   0x000124cd   Thumb Code    88  memcmp.o(.text)
    strlen                                   0x00012525   Thumb Code    58  strlen.o(.text)
    memset                                   0x0001255f   Thumb Code    22  memset.o(.text)
    __aeabi_memset                           0x00012575   Thumb Code    16  aeabi_memset.o(.text)
    __aeabi_memclr                           0x00012585   Thumb Code     0  rt_memclr.o(.text)
    __rt_memclr                              0x00012585   Thumb Code    68  rt_memclr.o(.text)
    _memset                                  0x00012589   Thumb Code     0  rt_memclr.o(.text)
    __aeabi_memclr4                          0x000125c9   Thumb Code     0  rt_memclr_w.o(.text)
    __aeabi_memclr8                          0x000125c9   Thumb Code     0  rt_memclr_w.o(.text)
    __rt_memclr_w                            0x000125c9   Thumb Code    78  rt_memclr_w.o(.text)
    _memset_w                                0x000125cd   Thumb Code     0  rt_memclr_w.o(.text)
    __aeabi_uread4                           0x00012617   Thumb Code     0  uread4.o(.text)
    __rt_uread4                              0x00012617   Thumb Code    22  uread4.o(.text)
    __aeabi_uwrite4                          0x0001262d   Thumb Code     0  uwrite4.o(.text)
    __rt_uwrite4                             0x0001262d   Thumb Code    22  uwrite4.o(.text)
    __aeabi_uread8                           0x00012643   Thumb Code     0  uread8.o(.text)
    __rt_uread8                              0x00012643   Thumb Code    46  uread8.o(.text)
    _printf_pre_padding                      0x00012671   Thumb Code    46  _printf_pad.o(.text)
    _printf_post_padding                     0x0001269f   Thumb Code    36  _printf_pad.o(.text)
    _printf_truncate_signed                  0x000126c3   Thumb Code    18  _printf_truncate.o(.text)
    _printf_truncate_unsigned                0x000126d5   Thumb Code    18  _printf_truncate.o(.text)
    _printf_int_common                       0x000126e7   Thumb Code   184  _printf_intcommon.o(.text)
    _printf_charcount                        0x0001279f   Thumb Code    42  _printf_charcount.o(.text)
    _sputc                                   0x000127c9   Thumb Code    10  _sputc.o(.text)
    _snputc                                  0x000127d3   Thumb Code    16  _snputc.o(.text)
    _printf_cs_common                        0x000127e3   Thumb Code    20  _printf_char.o(.text)
    _printf_char                             0x000127f7   Thumb Code    16  _printf_char.o(.text)
    _printf_string                           0x00012807   Thumb Code     8  _printf_char.o(.text)
    _printf_fp_dec                           0x0001280f   Thumb Code     4  printf1.o(x$fpl$printf1)
    __lib_sel_fp_printf                      0x00012813   Thumb Code     2  _printf_fp_dec.o(.text)
    _printf_fp_dec_real                      0x000129bf   Thumb Code   620  _printf_fp_dec.o(.text)
    _printf_lcs_common                       0x00012c2b   Thumb Code    20  _printf_wchar.o(.text)
    _printf_wchar                            0x00012c3f   Thumb Code    16  _printf_wchar.o(.text)
    _printf_wstring                          0x00012c4f   Thumb Code     8  _printf_wchar.o(.text)
    _wcrtomb                                 0x00012c57   Thumb Code    64  _wcrtomb.o(.text)
    _btod_d2e                                0x00012c97   Thumb Code    62  btod.o(CL$$btod_d2e)
    _d2e_norm_op1                            0x00012cd5   Thumb Code    96  btod.o(CL$$btod_d2e_norm_op1)
    _d2e_denorm_low                          0x00012d35   Thumb Code    70  btod.o(CL$$btod_d2e_denorm_low)
    _btod_emul                               0x00012d7b   Thumb Code    40  btod.o(CL$$btod_emul)
    _btod_ediv                               0x00012da3   Thumb Code    40  btod.o(CL$$btod_ediv)
    _e2e                                     0x00012dcb   Thumb Code   198  btod.o(CL$$btod_e2e)
    __btod_mult_common                       0x00012e91   Thumb Code   580  btod.o(CL$$btod_mult_common)
    __btod_div_common                        0x000130d5   Thumb Code   696  btod.o(CL$$btod_div_common)
    __ARM_fpclassify                         0x0001340d   Thumb Code    40  fpclassify.o(i.__ARM_fpclassify)
    __I$use$fp                               0x0001340c   Number         0  usenofp.o(x$fpl$usenofp)
    __rt_lib_init_lc_ctype_2                 0x0001340d   Thumb Code     0  libinit2.o(.ARM.Collect$$libinit$$00000011)
    __rt_lib_init_lc_numeric_2               0x0001340d   Thumb Code     0  libinit2.o(.ARM.Collect$$libinit$$00000015)
    cmnlib_release_lib                       0x00013435   Thumb Code   176  cmnlib_main.o(.text)
    mem_free_wrapper                         0x000134e5   Thumb Code    42  cmnlib_main.o(.text)
    mem_malloc_wrapper                       0x0001350f   Thumb Code    42  cmnlib_main.o(.text)
    mem_deinit_heap_wrapper                  0x00013539   Thumb Code    34  cmnlib_main.o(.text)
    mem_init_heap_wrapper                    0x0001355b   Thumb Code    46  cmnlib_main.o(.text)
    cmnlib_get_lib_interface                 0x00013589   Thumb Code  1198  cmnlib_main.o(.text)
    cmnlib_main                              0x00013a37   Thumb Code   474  cmnlib_main.o(.text)
    qsee_err_fatal                           0x00013c11   Thumb Code    34  cmnlib_main.o(.text)
    qsee_printf                              0x00013c33   Thumb Code    60  cmnlib_main.o(.text)
    qsee_request_service                     0x00013c6f   Thumb Code    36  cmnlib_main.o(.text)
    cmnlib_malloc                            0x00013c93   Thumb Code    34  cmnlib_main.o(.text)
    cmnlib_free                              0x00013cb5   Thumb Code    34  cmnlib_main.o(.text)
    sfs_kdf_wrapper                          0x00013cd9   Thumb Code    78  cmnlib_services_wrapper.o(.text)
    qsee_sfs_getSize_wrapper                 0x00013d27   Thumb Code    64  cmnlib_services_wrapper.o(.text)
    qsee_sfs_open_wrapper                    0x00013d67   Thumb Code    64  cmnlib_services_wrapper.o(.text)
    qsee_sfs_close_wrapper                   0x00013da7   Thumb Code    56  cmnlib_services_wrapper.o(.text)
    qsee_sfs_read_wrapper                    0x00013ddf   Thumb Code    68  cmnlib_services_wrapper.o(.text)
    qsee_sfs_write_wrapper                   0x00013e23   Thumb Code    68  cmnlib_services_wrapper.o(.text)
    qsee_sfs_seek_wrapper                    0x00013e67   Thumb Code    68  cmnlib_services_wrapper.o(.text)
    qsee_sfs_mkdir_wrapper                   0x00013eab   Thumb Code    56  cmnlib_services_wrapper.o(.text)
    qsee_sfs_rmdir_wrapper                   0x00013ee3   Thumb Code    56  cmnlib_services_wrapper.o(.text)
    qsee_sfs_rm_wrapper                      0x00013f1b   Thumb Code    56  cmnlib_services_wrapper.o(.text)
    qsee_sfs_error_wrapper                   0x00013f53   Thumb Code    56  cmnlib_services_wrapper.o(.text)
    qsee_log_wrapper                         0x00013f8b   Thumb Code    62  cmnlib_services_wrapper.o(.text)
    open_wrapper                             0x00013fc9   Thumb Code    64  cmnlib_services_wrapper.o(.text)
    read_wrapper                             0x00014009   Thumb Code    68  cmnlib_services_wrapper.o(.text)
    write_wrapper                            0x0001404d   Thumb Code    68  cmnlib_services_wrapper.o(.text)
    close_wrapper                            0x00014091   Thumb Code    56  cmnlib_services_wrapper.o(.text)
    lstat_wrapper                            0x000140c9   Thumb Code    64  cmnlib_services_wrapper.o(.text)
    mkdir_wrapper                            0x00014109   Thumb Code    64  cmnlib_services_wrapper.o(.text)
    rename_wrapper                           0x00014149   Thumb Code    64  cmnlib_services_wrapper.o(.text)
    opendir_wrapper                          0x00014189   Thumb Code    56  cmnlib_services_wrapper.o(.text)
    readdir_wrapper                          0x000141c1   Thumb Code    64  cmnlib_services_wrapper.o(.text)
    rmdir_wrapper                            0x00014201   Thumb Code    56  cmnlib_services_wrapper.o(.text)
    testdir_wrapper                          0x00014239   Thumb Code    56  cmnlib_services_wrapper.o(.text)
    file_get_partition_free_size_wrapper     0x00014271   Thumb Code    64  cmnlib_services_wrapper.o(.text)
    fstat_wrapper                            0x000142b1   Thumb Code    64  cmnlib_services_wrapper.o(.text)
    lseek_wrapper                            0x000142f1   Thumb Code    68  cmnlib_services_wrapper.o(.text)
    time_getsystime_wrapper                  0x00014335   Thumb Code    56  cmnlib_services_wrapper.o(.text)
    time_getutcsec_wrapper                   0x0001436d   Thumb Code    60  cmnlib_services_wrapper.o(.text)
    time_is_leap_year_wrapper                0x000143a9   Thumb Code    56  cmnlib_services_wrapper.o(.text)
    remove_wrapper                           0x000143e1   Thumb Code    56  cmnlib_services_wrapper.o(.text)
    ce_rsa_CRT_parameter_calc                0x00014419   Thumb Code   140  secrsa_keygen.o(.text)
    ce_rsa_key_gen                           0x000144a5   Thumb Code  1552  secrsa_keygen.o(.text)
    qsee_log                                 0x00014ab5   Thumb Code    84  qsee_log.o(.text)
    open                                     0x00014b15   Thumb Code   186  fs.o(.text)
    dbg_open                                 0x00014bcf   Thumb Code   142  fs.o(.text)
    dbg_open_malloc                          0x00014c5d   Thumb Code   276  fs.o(.text)
    openat                                   0x00014d71   Thumb Code   204  fs.o(.text)
    unlinkat                                 0x00014e3d   Thumb Code   204  fs.o(.text)
    fcntl                                    0x00014f09   Thumb Code   260  fs.o(.text)
    creat                                    0x0001500d   Thumb Code   194  fs.o(.text)
    read                                     0x000150cf   Thumb Code   242  fs.o(.text)
    write                                    0x000151c1   Thumb Code   288  fs.o(.text)
    close                                    0x000152e1   Thumb Code   140  fs.o(.text)
    lseek                                    0x0001536d   Thumb Code   172  fs.o(.text)
    link                                     0x00015419   Thumb Code   236  fs.o(.text)
    unlink                                   0x00015505   Thumb Code   178  fs.o(.text)
    rmdir                                    0x000155b7   Thumb Code   304  fs.o(.text)
    fstat                                    0x000156e7   Thumb Code   150  fs.o(.text)
    lstat                                    0x0001577d   Thumb Code   198  fs.o(.text)
    mkdir                                    0x00015843   Thumb Code   194  fs.o(.text)
    testdir                                  0x00015905   Thumb Code   178  fs.o(.text)
    telldir                                  0x000159b7   Thumb Code   178  fs.o(.text)
    remove                                   0x00015a69   Thumb Code   178  fs.o(.text)
    file_end                                 0x00015b1b   Thumb Code   136  fs.o(.text)
    file_dir_chown_chmod                     0x00015ba3   Thumb Code   352  fs.o(.text)
    fsync                                    0x00015d03   Thumb Code   130  fs.o(.text)
    frename                                  0x00015d85   Thumb Code   224  fs.o(.text)
    file_get_partition_free_size             0x00015e65   Thumb Code   246  fs.o(.text)
    opendir                                  0x00015f5b   Thumb Code   292  fs.o(.text)
    readdir                                  0x0001607f   Thumb Code   272  fs.o(.text)
    __ARM_common_memclr1_12                  0x0001635c   ARM Code      44  fs.o(i.__ARM_common_memclr1_12)
    __ARM_common_memclr1_8                   0x00016388   ARM Code      36  fs.o(i.__ARM_common_memclr1_8)
    qsee_sfs_init                            0x000163ad   Thumb Code   380  sfs_api.o(.text)
    qsee_sfs_getSize                         0x00016529   Thumb Code    32  sfs_api.o(.text)
    qsee_sfs_open                            0x00016549   Thumb Code    32  sfs_api.o(.text)
    qsee_sfs_close                           0x00016569   Thumb Code    26  sfs_api.o(.text)
    qsee_sfs_read                            0x00016583   Thumb Code    36  sfs_api.o(.text)
    qsee_sfs_write                           0x000165a7   Thumb Code    54  sfs_api.o(.text)
    qsee_sfs_seek                            0x000165dd   Thumb Code    38  sfs_api.o(.text)
    qsee_sfs_mkdir                           0x00016603   Thumb Code    14  sfs_api.o(.text)
    qsee_sfs_rmdir                           0x00016611   Thumb Code    14  sfs_api.o(.text)
    qsee_sfs_rm                              0x0001661f   Thumb Code    26  sfs_api.o(.text)
    qsee_sfs_error                           0x00016639   Thumb Code    22  sfs_api.o(.text)
    sfs_def_init                             0x0001677d   Thumb Code    34  sfs.o(.text)
    sfs_get_size                             0x0001679f   Thumb Code    28  sfs.o(.text)
    sfs_mangle_seg_npath                     0x000167bb   Thumb Code   170  sfs.o(.text)
    sfs_close_seg                            0x00016865   Thumb Code   238  sfs.o(.text)
    sfs_open_seg                             0x00016953   Thumb Code   326  sfs.o(.text)
    sfs_backup_segment                       0x00016a99   Thumb Code   128  sfs.o(.text)
    sfs_backup_index_file                    0x00016b19   Thumb Code  1150  sfs.o(.text)
    sfs_backup_before_write                  0x00016f97   Thumb Code   230  sfs.o(.text)
    sfs_trunc                                0x0001707d   Thumb Code   218  sfs.o(.text)
    sfs_seek_pos                             0x00017157   Thumb Code   208  sfs.o(.text)
    sfs_append                               0x00017227   Thumb Code     4  sfs.o(.text)
    sfs_clean_file_handle                    0x0001722b   Thumb Code    54  sfs.o(.text)
    sfs_clean_backup_files                   0x00017261   Thumb Code   216  sfs.o(.text)
    sfs_close_mfile                          0x00017339   Thumb Code   604  sfs.o(.text)
    sfs_seg_flush                            0x00017595   Thumb Code   114  sfs.o(.text)
    sfs_delete_fragment                      0x00017607   Thumb Code   202  sfs.o(.text)
    sfs_open_mfile                           0x000176d1   Thumb Code  1574  sfs.o(.text)
    sfs_delete                               0x00017cf7   Thumb Code   114  sfs.o(.text)
    sfs_read_bytes                           0x00017d69   Thumb Code   798  sfs.o(.text)
    sfs_update_segment_version               0x00018087   Thumb Code   270  sfs.o(.text)
    sfs_write_bytes                          0x00018195   Thumb Code   426  sfs.o(.text)
    sfs_recover_file                         0x0001833f   Thumb Code   150  sfs.o(.text)
    sechsharm_sha1_final                     0x000185d9   Thumb Code   188  sha_core.o(i.sechsharm_sha1_final)
    sfs_segment_recover                      0x00018699   Thumb Code   210  sfs_idx.o(.text)
    sfs_open_index_info                      0x0001876b   Thumb Code   652  sfs_idx.o(.text)
    sfs_open_index_first_segment             0x000189f7   Thumb Code   922  sfs_idx.o(.text)
    sfs_get_index_info                       0x00018d91   Thumb Code   574  sfs_idx.o(.text)
    sfs_update_index_info                    0x00018fcf   Thumb Code  2542  sfs_idx.o(.text)
    sfs_sec_hmac                             0x000199e1   Thumb Code   324  sfs_sec.o(.text)
    sfs_sec_endec                            0x00019b25   Thumb Code   284  sfs_sec.o(.text)
    sfs_b64fs_encode                         0x00019c41   Thumb Code   234  sfs_sec.o(.text)
    sfs_sec_mangle                           0x00019d2b   Thumb Code   114  sfs_sec.o(.text)
    sfs_get_sec_key                          0x00019d9d   Thumb Code   948  sfs_sec.o(.text)
    __aeabi_uldivmod                         0x0001a16c   ARM Code       0  lludiv5.o(.text)
    _ll_udiv                                 0x0001a16c   ARM Code     816  lludiv5.o(.text)
    _ll_udiv_donemoving                      0x0001a180   ARM Code       0  lludiv5.o(.text)
    __c89vsnprintf                           0x0001a49d   Thumb Code    46  c89vsnprintf.o(.text)
    __2snprintf                              0x0001a4d1   Thumb Code    50  __2snprintf.o(.text)
    _printf_int_dec                          0x0001a509   Thumb Code    98  _printf_dec.o(.text)
    __printf                                 0x0001a57d   Thumb Code   386  __printf_flags_ss_wp.o(.text)
    __aeabi_memcpy                           0x0001a704   ARM Code       0  rt_memcpy.o(.text)
    __rt_memcpy                              0x0001a704   ARM Code     212  rt_memcpy.o(.text)
    _memcpy_lastbytes                        0x0001a7b8   ARM Code       0  rt_memcpy.o(.text)
    __aeabi_memmove                          0x0001a7d8   ARM Code       0  rt_memmove.o(.text)
    __rt_memmove                             0x0001a7d8   ARM Code     212  rt_memmove.o(.text)
    __memmove_lastfew                        0x0001a88c   ARM Code       0  rt_memmove.o(.text)
    __aeabi_memcpy4                          0x0001a8ac   ARM Code       0  rt_memcpy_w_qsp.o(.text)
    __aeabi_memcpy8                          0x0001a8ac   ARM Code       0  rt_memcpy_w_qsp.o(.text)
    __rt_memcpy_w                            0x0001a8ac   ARM Code     124  rt_memcpy_w_qsp.o(.text)
    _memcpy_lastbytes_aligned                0x0001a910   ARM Code       0  rt_memcpy_w_qsp.o(.text)
    strcmp                                   0x0001a928   ARM Code     156  strcmp.o(.text)
    __aeabi_idiv                             0x0001a9c8   ARM Code       0  aeabi_sdivfast_rs.o(.text)
    __aeabi_idivmod                          0x0001a9c8   ARM Code     556  aeabi_sdivfast_rs.o(.text)
    __aeabi_uidiv                            0x0001abf4   ARM Code       0  aeabi_sdivfast_rs.o(.text_udiv)
    __aeabi_uidivmod                         0x0001abf4   ARM Code      48  aeabi_sdivfast_rs.o(.text_udiv)
    __rt_ctype_table                         0x0001ac25   Thumb Code    16  rt_ctype_table.o(.text)
    _printf_char_common                      0x0001ac3f   Thumb Code    32  _printf_char_common.o(.text)
    _printf_wctomb                           0x0001ac65   Thumb Code   178  _printf_wctomb.o(.text)
    _printf_longlong_dec                     0x0001ad1d   Thumb Code   104  _printf_longlong_dec.o(.text)
    _printf_longlong_oct                     0x0001ad95   Thumb Code    76  _printf_oct_int_ll.o(.text)
    _printf_int_oct                          0x0001ade1   Thumb Code    24  _printf_oct_int_ll.o(.text)
    _printf_ll_oct                           0x0001adf9   Thumb Code    12  _printf_oct_int_ll.o(.text)
    _printf_longlong_hex                     0x0001ae0d   Thumb Code    92  _printf_hex_int_ll_ptr.o(.text)
    _printf_int_hex                          0x0001ae69   Thumb Code    28  _printf_hex_int_ll_ptr.o(.text)
    _printf_ll_hex                           0x0001ae85   Thumb Code    12  _printf_hex_int_ll_ptr.o(.text)
    _printf_hex_ptr                          0x0001ae91   Thumb Code    18  _printf_hex_int_ll_ptr.o(.text)
    __aeabi_memmove4                         0x0001aea8   ARM Code       0  rt_memmove_w.o(.text)
    __aeabi_memmove8                         0x0001aea8   ARM Code       0  rt_memmove_w.o(.text)
    __rt_memmove_w                           0x0001aea8   ARM Code     128  rt_memmove_w.o(.text)
    __memmove_aligned                        0x0001aed4   ARM Code       0  rt_memmove_w.o(.text)
    __memmove_lastfew_aligned                0x0001af10   ARM Code       0  rt_memmove_w.o(.text)
    __rt_udiv10                              0x0001af28   ARM Code      44  rtudiv10.o(.text)
    __rt_locale                              0x0001af55   Thumb Code    12  rt_locale.o(.text)
    _ll_udiv10                               0x0001af60   ARM Code     152  lludiv10.o(.text)
    _get_lc_ctype                            0x0001aff9   Thumb Code    44  lc_ctype_c.o(locale$$code)
    _printf_fp_infnan                        0x0001b025   Thumb Code   112  _printf_fp_infnan.o(.text)
    _btod_etento                             0x0001b0a5   Thumb Code   210  bigflt0.o(.text)
    _get_lc_numeric                          0x0001b17d   Thumb Code    44  lc_numeric_c.o(locale$$code)
    app_export_init_info_to_qsee             0x0001b200   ARM Code       0  cmnlib_syscall.o(tzapp_syscall_asm)
    qsee_printf_syscall                      0x0001b220   ARM Code       0  cmnlib_syscall.o(tzapp_syscall_asm)
    qsee_generic_syscall                     0x0001b238   ARM Code       0  cmnlib_syscall.o(tzapp_syscall_asm)
    Short Thumb to ARM Veneer to set_cmnlib_rw_base 0x0001b25d   Thumb Code     8  anon$$obj.o(Veneer$$Code)
    pkcs8_RSAEncryption                      0x0001b264   Data           9  secpkcs8.o(.constdata)
    sfs_root                                 0x0001b26d   Data          15  qsee_oem_utils.o(.constdata)
    s_box                                    0x0001b27c   Data         256  aes_core.o(.constdata)
    inv_s_box                                0x0001b37c   Data         256  aes_core.o(.constdata)
    prime_list                               0x0001b4b6   Data        4096  secmath_is_prime_div_chk.o(.constdata)
    gf_tab                                   0x0001c4b6   Data         512  gf128mul.o(.constdata)
    DER_enc_hash                             0x0001c7e8   Data         784  secrsa_padding.o(.constdata)
    rcon_tab                                 0x0001cbd8   Data         116  aes_core.o(.constdata)
    ft_tab                                   0x0001cc4c   Data        4096  aes_core.o(.constdata)
    it_tab                                   0x0001dc4c   Data        4096  aes_core.o(.constdata)
    fl_tab                                   0x0001ec4c   Data        4096  aes_core.o(.constdata)
    il_tab                                   0x0001fc4c   Data        4096  aes_core.o(.constdata)
    im_tab                                   0x00020c4c   Data        4096  aes_core.o(.constdata)
    sfs_data_bin2ascii_fs                    0x00021e0f   Data          65  sfs_sec.o(.constdata)
    __ctype                                  0x00021f39   Data           0  lc_ctype_c.o(locale$$data)
    big_zero                                 0x000220f0   Data          36  ecc_core.o(.constdata)
    big_one                                  0x00022114   Data          36  ecc_core.o(.constdata)
    modulusP256                              0x000221f0   Data          36  ecc_core.o(.constdata)
    orderP256                                0x00022238   Data          36  ecc_core.o(.constdata)
    pgAppCntxt                               0x00023004   Data           4  cmnlib_main.o(.data)
    cur_app_rw_base                          0x00023008   Data           4  cmnlib_main.o(.data)
    lhash_0_sha1                             0x00023014   Data          20  secrsa_padding.o(.data)
    lhash_0_sha256                           0x00023028   Data          32  secrsa_padding.o(.data)
    SFS_SAFE_MODE                            0x00023048   Data           1  sfs.o(.data)
    global_sfs_error                         0x00023050   Data           4  sfs.o(.data)
    qrlbn_options                            0x000241a8   Data          77  qrlbn_ecc.o(.data)
    sfs_root_folder                          0x00024298   Data         256  sfs_api.o(.bss)
    temp_blong_key                           0x00024398   Data        2064  secmath_mod_exp.o(.bss)
    r_tmp                                    0x00024ba8   Data         520  secmath_BIGINT_prime_test.o(.bss)
    a_tmp                                    0x00024db0   Data         520  secmath_BIGINT_prime_test.o(.bss)
    y_tmp_1                                  0x00024fb8   Data         520  secmath_BIGINT_prime_test.o(.bss)
    n1_tmp                                   0x000251c0   Data         520  secmath_BIGINT_prime_test.o(.bss)
    two_tmp                                  0x000253c8   Data         520  secmath_BIGINT_prime_test.o(.bss)
    q_tmp                                    0x000255d0   Data         524  secrsa_math.o(.bss)
    x_tmp                                    0x000257dc   Data         524  secrsa_math.o(.bss)
    y_tmp                                    0x000259e8   Data         524  secrsa_math.o(.bss)
    t1_tmp                                   0x00025bf4   Data         524  secrsa_math.o(.bss)
    t2_tmp                                   0x00025e00   Data         524  secrsa_math.o(.bss)



==============================================================================

Memory Map of the image

  Image Entry point : 0x00000000

  Load Region CMN_TZLIB (Base: 0x00000000, Size: 0x0002233c, Max: 0xffffffff, PI)

    Execution Region TZ_APP_CODE (Base: 0x00000000, Size: 0x0002233c, Max: 0xffffffff, PI)

    Base Addr    Size         Type   Attr      Idx    E Section Name        Object

    0x00000000   0x00000018   Code   RO            6  * CMNLIBENTRYCODE     cmnlib_entry.o
    0x00000018   0x00000296   Code   RO            9    .text               cmnlib_comstr.o
    0x000002ae   0x00000088   Code   RO          306    .text               cmnlib_secmath_wrapper.o
    0x00000336   0x000002cc   Code   RO          319    .text               cmnlib_secrsa_wrapper.o
    0x00000602   0x00000520   Code   RO          345    .text               cmnlib_ecc_wrapper.o
    0x00000b22   0x00000236   Code   RO          358    .text               cmnlib_ufaes_wrapper.o
    0x00000d58   0x0000010c   Code   RO          371    .text               cmnlib_ufdes_wrapper.o
    0x00000e64   0x0000011e   Code   RO          384    .text               cmnlib_ufsha_wrapper.o
    0x00000f82   0x000003a6   Code   RO          397    .text               qsee_crypto_shim.o
    0x00001328   0x00000102   Code   RO          415    .text               qsee_counter_shim.o
    0x0000142a   0x000006c8   Code   RO          438    .text               memheap_lite.o
    0x00001af2   0x00000052   Code   RO          455    .text               secmath.lib(secmath_BIGINT_read_radix.o)
    0x00001b44   0x00000080   Code   RO          471    .text               secmath.lib(secmath_BIGINT_read_unsigned_bin.o)
    0x00001bc4   0x0000024a   Code   RO          483    .text               secrsa.lib(secrsa_encryption.o)
    0x00001e0e   0x00000184   Code   RO          513    .text               secrsa.lib(secrsa_exptmod.o)
    0x00001f92   0x00000260   Code   RO          525    .text               secrsa.lib(secrsa_signature.o)
    0x000021f2   0x00000230   Code   RO          546    .text               secrsa.lib(secrsa_utils.o)
    0x00002422   0x0000035e   Code   RO          559    .text               secrsa.lib(secpkcs8.o)
    0x00002780   0x00000208   Code   RO          645    .text               qsee_services.lib(time.o)
    0x00002988   0x0000002e   Code   RO          688    .text               qsee_services.lib(qsee_kdf.o)
    0x000029b6   0x0000006e   Code   RO          700    i.ECC_hash_to_bigval  ECCCORE.lib(ecc_core.o)
    0x00002a24   0x00000030   Code   RO          701    i.ECDH_derive       ECCCORE.lib(ecc_core.o)
    0x00002a54   0x00000078   Code   RO          702    i.ECDH_derive_pt    ECCCORE.lib(ecc_core.o)
    0x00002acc   0x0000002e   Code   RO          703    i.ECDH_generate     ECCCORE.lib(ecc_core.o)
    0x00002afa   0x00000014   Code   RO          704    i.ECDH_mult_basepoint  ECCCORE.lib(ecc_core.o)
    0x00002b0e   0x00000080   Code   RO          705    i.ECDSA_sign        ECCCORE.lib(ecc_core.o)
    0x00002b8e   0x00000010   Code   RO          706    i.ECDSA_verify      ECCCORE.lib(ecc_core.o)
    0x00002b9e   0x00000142   Code   RO          707    i.ECDSA_verify_inner  ECCCORE.lib(ecc_core.o)
    0x00002ce0   0x00000042   Code   RO          708    i.big_1wd_mpy       ECCCORE.lib(ecc_core.o)
    0x00002d22   0x00000032   Code   RO          709    i.big_add           ECCCORE.lib(ecc_core.o)
    0x00002d54   0x00000022   Code   RO          710    i.big_addP          ECCCORE.lib(ecc_core.o)
    0x00002d76   0x000000e2   Code   RO          711    i.big_adjustP       ECCCORE.lib(ecc_core.o)
    0x00002e58   0x00000040   Code   RO          712    i.big_cmp           ECCCORE.lib(ecc_core.o)
    0x00002e98   0x00000162   Code   RO          713    i.big_divide        ECCCORE.lib(ecc_core.o)
    0x00002ffa   0x00000040   Code   RO          714    i.big_get_random_n  ECCCORE.lib(ecc_core.o)
    0x0000303a   0x00000030   Code   RO          715    i.big_halve         ECCCORE.lib(ecc_core.o)
    0x0000306a   0x0000002c   Code   RO          716    i.big_halveP        ECCCORE.lib(ecc_core.o)
    0x00003096   0x00000020   Code   RO          717    i.big_is_one        ECCCORE.lib(ecc_core.o)
    0x000030b6   0x00000016   Code   RO          718    i.big_is_zero       ECCCORE.lib(ecc_core.o)
    0x000030cc   0x00000402   Code   RO          719    i.big_mpyP          ECCCORE.lib(ecc_core.o)
    0x000034ce   0x000000a8   Code   RO          720    i.big_precise_reduce  ECCCORE.lib(ecc_core.o)
    0x00003576   0x00000036   Code   RO          721    i.big_sub           ECCCORE.lib(ecc_core.o)
    0x000035ac   0x00000022   Code   RO          722    i.big_subP          ECCCORE.lib(ecc_core.o)
    0x000035ce   0x00000034   Code   RO          723    i.big_triple        ECCCORE.lib(ecc_core.o)
    0x00003602   0x00000042   Code   RO          724    i.bigval_to_binary  ECCCORE.lib(ecc_core.o)
    0x00003644   0x00000040   Code   RO          725    i.binary_to_bigval  ECCCORE.lib(ecc_core.o)
    0x00003684   0x0000001c   Code   RO          726    i.get_random_bytes  ECCCORE.lib(ecc_core.o)
    0x000036a0   0x00000080   Code   RO          727    i.in_curveP         ECCCORE.lib(ecc_core.o)
    0x00003720   0x00000024   Code   RO          728    i.mpy_accum         ECCCORE.lib(ecc_core.o)
    0x00003744   0x00000186   Code   RO          729    i.pointAdd          ECCCORE.lib(ecc_core.o)
    0x000038ca   0x00000024   Code   RO          730    i.pointAddAffine    ECCCORE.lib(ecc_core.o)
    0x000038ee   0x000000fe   Code   RO          731    i.pointDouble       ECCCORE.lib(ecc_core.o)
    0x000039ec   0x000000d0   Code   RO          732    i.pointMpyP         ECCCORE.lib(ecc_core.o)
    0x00003abc   0x000000a2   Code   RO          733    i.toAffine          ECCCORE.lib(ecc_core.o)
    0x00003b5e   0x00000098   Code   RO          734    i.toJacobian        ECCCORE.lib(ecc_core.o)
    0x00003bf6   0x00000058   Code   RO          735    i.toggle_random_bit  ECCCORE.lib(ecc_core.o)
    0x00003c4e   0x00000dec   Code   RO          909    .text               AESSHARED.lib(aes_shared.o)
    0x00004a3a   0x00000750   Code   RO          925    .text               DESSHARED.lib(des_shared.o)
    0x0000518a   0x000000aa   Code   RO          945    .text               ECCSHARED.lib(ecc_shared.o)
    0x00005234   0x00000194   Code   RO          957    .text               ECCGENSHARED.lib(ecc_generic_shared.o)
    0x000053c8   0x000000d4   Code   RO          976    i.SW_Hash_Final     SHASHARED.lib(sha_shared.o)
    0x0000549c   0x0000007c   Code   RO          977    i.SW_Hash_Init      SHASHARED.lib(sha_shared.o)
    0x00005518   0x000000d0   Code   RO          978    i.SW_Hash_Update    SHASHARED.lib(sha_shared.o)
    0x000055e8   0x00000298   Code   RO          979    i.SW_Hmac           SHASHARED.lib(sha_shared.o)
    0x00005880   0x0000003e   Code   RO         1009    .text               libstd.lib(timesafe_memcmp.o)
    0x000058be   0x000002a2   Code   RO         1025    .text               secmath.lib(secmath_mod_exp.o)
    0x00005b60   0x000000c2   Code   RO         1054    .text               secmath.lib(secmath_hex_str_to_bin.o)
    0x00005c22   0x000003de   Code   RO         1067    .text               secmath.lib(secmath_BIGINT_prime_test.o)
    0x00006000   0x0000183e   Code   RO         1086    .text               secrsa.lib(secrsa_math.o)
    0x0000783e   0x00000014   Code   RO         1102    .text               secrsa.lib(secrsa_mem.o)
    0x00007852   0x00000262   Code   RO         1114    .text               secrsa.lib(secrsa_crt.o)
    0x00007ab4   0x00000e84   Code   RO         1127    .text               secrsa.lib(secrsa_padding.o)
    0x00008938   0x000002c4   Code   RO         1144    .text               secrsa.lib(secasn1.o)
    0x00008bfc   0x00000020   Code   RO         1157    .text               qsee_custom.lib(qsee_oem_utils.o)
    0x00008c1c   0x0000011c   Code   RO         1198    .text               qsee_services.lib(sfs_ll_funcs.o)
    0x00008d38   0x00000298   Code   RO         1210    i.aes_decrypt_block  AESCORE.lib(aes_core.o)
    0x00008fd0   0x00000298   Code   RO         1211    i.aes_encrypt_block  AESCORE.lib(aes_core.o)
    0x00009268   0x00000414   Code   RO         1212    i.aes_set_key       AESCORE.lib(aes_core.o)
    0x0000967c   0x00000130   Code   RO         1242    i.gcm_auth_data     AESCORE.lib(gcm.o)
    0x000097ac   0x00000130   Code   RO         1243    i.gcm_auth_header   AESCORE.lib(gcm.o)
    0x000098dc   0x00000102   Code   RO         1244    i.gcm_compute_tag   AESCORE.lib(gcm.o)
    0x000099de   0x0000018a   Code   RO         1245    i.gcm_crypt_data    AESCORE.lib(gcm.o)
    0x00009b68   0x00000020   Code   RO         1246    i.gcm_decrypt       AESCORE.lib(gcm.o)
    0x00009b88   0x00000070   Code   RO         1247    i.gcm_decrypt_message  AESCORE.lib(gcm.o)
    0x00009bf8   0x00000020   Code   RO         1248    i.gcm_encrypt       AESCORE.lib(gcm.o)
    0x00009c18   0x00000058   Code   RO         1249    i.gcm_encrypt_message  AESCORE.lib(gcm.o)
    0x00009c70   0x00000010   Code   RO         1250    i.gcm_end           AESCORE.lib(gcm.o)
    0x00009c80   0x00000046   Code   RO         1251    i.gcm_init_and_key  AESCORE.lib(gcm.o)
    0x00009cc6   0x000000c2   Code   RO         1252    i.gcm_init_message  AESCORE.lib(gcm.o)
    0x00009d88   0x00000016   Code   RO         1253    i.gf_mul_hh         AESCORE.lib(gcm.o)
    0x00009d9e   0x000000be   Code   RO         1254    i.xor_block         AESCORE.lib(gcm.o)
    0x00009e5c   0x0000002e   Code   RO         1255    i.xor_block_aligned  AESCORE.lib(gcm.o)
    0x00009e8a   0x0000017c   Code   RO         1333    i.ccm_auth_data     AESCORE.lib(ccm.o)
    0x0000a006   0x000001be   Code   RO         1334    i.ccm_auth_header   AESCORE.lib(ccm.o)
    0x0000a1c4   0x0000013c   Code   RO         1335    i.ccm_compute_tag   AESCORE.lib(ccm.o)
    0x0000a300   0x0000020e   Code   RO         1336    i.ccm_crypt_data    AESCORE.lib(ccm.o)
    0x0000a50e   0x00000020   Code   RO         1337    i.ccm_decrypt       AESCORE.lib(ccm.o)
    0x0000a52e   0x00000072   Code   RO         1338    i.ccm_decrypt_message  AESCORE.lib(ccm.o)
    0x0000a5a0   0x00000020   Code   RO         1339    i.ccm_encrypt       AESCORE.lib(ccm.o)
    0x0000a5c0   0x00000066   Code   RO         1340    i.ccm_encrypt_message  AESCORE.lib(ccm.o)
    0x0000a626   0x00000010   Code   RO         1341    i.ccm_end           AESCORE.lib(ccm.o)
    0x0000a636   0x0000002c   Code   RO         1342    i.ccm_init_and_key  AESCORE.lib(ccm.o)
    0x0000a662   0x00000352   Code   RO         1343    i.ccm_init_message  AESCORE.lib(ccm.o)
    0x0000a9b4   0x000000be   Code   RO         1344    i.xor_block         AESCORE.lib(ccm.o)
    0x0000aa72   0x0000002e   Code   RO         1345    i.xor_block_aligned  AESCORE.lib(ccm.o)
    0x0000aaa0   0x00000024   Code   RO         1417    i.check_parity      DESCORE.lib(des_core.o)
    0x0000aac4   0x0000012a   Code   RO         1418    i.des_cbc_decrypt   DESCORE.lib(des_core.o)
    0x0000abee   0x0000012c   Code   RO         1419    i.des_cbc_encrypt   DESCORE.lib(des_core.o)
    0x0000ad1a   0x000002a0   Code   RO         1420    i.des_encrypt       DESCORE.lib(des_core.o)
    0x0000afba   0x00000220   Code   RO         1421    i.des_set_key       DESCORE.lib(des_core.o)
    0x0000b1da   0x000000a0   Code   RO         1455    i.compute_16quo     ECCGENCORE.lib(qrlbn_arith.o)
    0x0000b27a   0x00000030   Code   RO         1456    i.mpy_hi            ECCGENCORE.lib(qrlbn_arith.o)
    0x0000b2aa   0x00000072   Code   RO         1457    i.qrlbn_add         ECCGENCORE.lib(qrlbn_arith.o)
    0x0000b31c   0x0000008a   Code   RO         1458    i.qrlbn_binary_to_bn  ECCGENCORE.lib(qrlbn_arith.o)
    0x0000b3a6   0x00000080   Code   RO         1459    i.qrlbn_bn_to_binary  ECCGENCORE.lib(qrlbn_arith.o)
    0x0000b426   0x00000068   Code   RO         1460    i.qrlbn_compare     ECCGENCORE.lib(qrlbn_arith.o)
    0x0000b48e   0x000000b6   Code   RO         1461    i.qrlbn_decimal_string_to_bn  ECCGENCORE.lib(qrlbn_arith.o)
    0x0000b544   0x0000014a   Code   RO         1462    i.qrlbn_full_reduce  ECCGENCORE.lib(qrlbn_arith.o)
    0x0000b68e   0x00000118   Code   RO         1463    i.qrlbn_hex_string_to_bn  ECCGENCORE.lib(qrlbn_arith.o)
    0x0000b7a6   0x00000022   Code   RO         1464    i.qrlbn_is_zero     ECCGENCORE.lib(qrlbn_arith.o)
    0x0000b7c8   0x00000060   Code   RO         1465    i.qrlbn_modular_2_to_k  ECCGENCORE.lib(qrlbn_arith.o)
    0x0000b828   0x000000ea   Code   RO         1466    i.qrlbn_modular_adjust  ECCGENCORE.lib(qrlbn_arith.o)
    0x0000b912   0x00000114   Code   RO         1467    i.qrlbn_modular_shift_left  ECCGENCORE.lib(qrlbn_arith.o)
    0x0000ba26   0x0000001a   Code   RO         1468    i.qrlbn_modulus_data_constructor  ECCGENCORE.lib(qrlbn_arith.o)
    0x0000ba40   0x00000118   Code   RO         1469    i.qrlbn_modulus_data_post_init  ECCGENCORE.lib(qrlbn_arith.o)
    0x0000bb58   0x0000003e   Code   RO         1470    i.qrlbn_mont_mul    ECCGENCORE.lib(qrlbn_arith.o)
    0x0000bb96   0x0000002e   Code   RO         1471    i.qrlbn_mont_mul_one  ECCGENCORE.lib(qrlbn_arith.o)
    0x0000bbc4   0x00000086   Code   RO         1472    i.qrlbn_multiply_add_small  ECCGENCORE.lib(qrlbn_arith.o)
    0x0000bc4a   0x00000102   Code   RO         1473    i.qrlbn_reduce      ECCGENCORE.lib(qrlbn_arith.o)
    0x0000bd4c   0x00000060   Code   RO         1474    i.qrlbn_shift_right  ECCGENCORE.lib(qrlbn_arith.o)
    0x0000bdac   0x0000007a   Code   RO         1475    i.qrlbn_sub         ECCGENCORE.lib(qrlbn_arith.o)
    0x0000be26   0x00000036   Code   RO         1476    i.qrlbn_vet         ECCGENCORE.lib(qrlbn_arith.o)
    0x0000be5c   0x00000054   Code   RO         1477    i.recip_63          ECCGENCORE.lib(qrlbn_arith.o)
    0x0000beb0   0x0000002c   Code   RO         1608    i.cmov_ecc_bigval   ECCGENCORE.lib(qrlbn_ecc.o)
    0x0000bedc   0x0000002c   Code   RO         1609    i.cmov_ecc_point    ECCGENCORE.lib(qrlbn_ecc.o)
    0x0000bf08   0x00000048   Code   RO         1610    i.copy_point        ECCGENCORE.lib(qrlbn_ecc.o)
    0x0000bf50   0x0000007e   Code   RO         1611    i.gen_random_QR     ECCGENCORE.lib(qrlbn_ecc.o)
    0x0000bfce   0x0000007e   Code   RO         1612    i.qrlbn_ECC_bigval_to_binary  ECCGENCORE.lib(qrlbn_ecc.o)
    0x0000c04c   0x00000052   Code   RO         1613    i.qrlbn_ECC_convert_input_to_bigval  ECCGENCORE.lib(qrlbn_ecc.o)
    0x0000c09e   0x0000003a   Code   RO         1614    i.qrlbn_ECC_domain_field_pointer  ECCGENCORE.lib(qrlbn_ecc.o)
    0x0000c0d8   0x000000cc   Code   RO         1615    i.qrlbn_blind_point  ECCGENCORE.lib(qrlbn_ecc.o)
    0x0000c1a4   0x000000f2   Code   RO         1616    i.qrlbn_ecc_domain_init_str  ECCGENCORE.lib(qrlbn_ecc.o)
    0x0000c296   0x000001a6   Code   RO         1617    i.qrlbn_ecc_domain_post_init  ECCGENCORE.lib(qrlbn_ecc.o)
    0x0000c43c   0x0000004a   Code   RO         1618    i.qrlbn_ecc_domain_setup_structure  ECCGENCORE.lib(qrlbn_ecc.o)
    0x0000c486   0x000000ca   Code   RO         1619    i.qrlbn_ecc_hash_to_bigval  ECCGENCORE.lib(qrlbn_ecc.o)
    0x0000c550   0x000000a8   Code   RO         1620    i.qrlbn_ecc_square_root  ECCGENCORE.lib(qrlbn_ecc.o)
    0x0000c5f8   0x000000a2   Code   RO         1621    i.qrlbn_modexp_for_ecc  ECCGENCORE.lib(qrlbn_ecc.o)
    0x0000c69a   0x0000000c   Code   RO         1622    i.qrlbn_negate      ECCGENCORE.lib(qrlbn_ecc.o)
    0x0000c6a6   0x0000065a   Code   RO         1623    i.qrlbn_point_add   ECCGENCORE.lib(qrlbn_ecc.o)
    0x0000cd00   0x00000344   Code   RO         1624    i.qrlbn_point_dbl   ECCGENCORE.lib(qrlbn_ecc.o)
    0x0000d044   0x00000552   Code   RO         1625    i.qrlbn_point_multiply  ECCGENCORE.lib(qrlbn_ecc.o)
    0x0000d596   0x000000e0   Code   RO         1626    i.qrlbn_point_to_affine  ECCGENCORE.lib(qrlbn_ecc.o)
    0x0000d676   0x00000294   Code   RO         1627    i.select_ecc_point  ECCGENCORE.lib(qrlbn_ecc.o)
    0x0000d90a   0x00000056   Code   RO         1628    i.squares_to_one_montgomery  ECCGENCORE.lib(qrlbn_ecc.o)
    0x0000d960   0x00000174   Code   RO         1629    i.tonelli_shanks    ECCGENCORE.lib(qrlbn_ecc.o)
    0x0000dad4   0x00000156   Code   RO         1751    i.qrlbn_ECDH_derive  ECCGENCORE.lib(qrlbn_ecc_protocols.o)
    0x0000dc2a   0x00000004   Code   RO         1752    i.qrlbn_ECDH_generate  ECCGENCORE.lib(qrlbn_ecc_protocols.o)
    0x0000dc2e   0x00000392   Code   RO         1753    i.qrlbn_ECDSA_sign  ECCGENCORE.lib(qrlbn_ecc_protocols.o)
    0x0000dfc0   0x00000356   Code   RO         1754    i.qrlbn_ECDSA_verify  ECCGENCORE.lib(qrlbn_ecc_protocols.o)
    0x0000e316   0x0000008a   Code   RO         1755    i.qrlbn_EC_keypair_generate  ECCGENCORE.lib(qrlbn_ecc_protocols.o)
    0x0000e3a0   0x0000002c   Code   RO         1756    i.qrlbn_EC_keypair_generate_internal  ECCGENCORE.lib(qrlbn_ecc_protocols.o)
    0x0000e3cc   0x000000be   Code   RO         1757    i.qrlbn_X_coordinate_to_point  ECCGENCORE.lib(qrlbn_ecc_protocols.o)
    0x0000e48a   0x0000018c   Code   RO         1758    i.qrlbn_cofactor_ECDH_derive  ECCGENCORE.lib(qrlbn_ecc_protocols.o)
    0x0000e616   0x000000a8   Code   RO         1759    i.qrlbn_export_point  ECCGENCORE.lib(qrlbn_ecc_protocols.o)
    0x0000e6be   0x00000158   Code   RO         1760    i.qrlbn_import_point  ECCGENCORE.lib(qrlbn_ecc_protocols.o)
    0x0000e816   0x00000006   Code   RO         1816    i.rol1              SHACORE.lib(sha_core.o)
    0x0000e81c   0x00000006   Code   RO         1817    i.rol24             SHACORE.lib(sha_core.o)
    0x0000e822   0x00000006   Code   RO         1818    i.rol30             SHACORE.lib(sha_core.o)
    0x0000e828   0x00000006   Code   RO         1819    i.rol5              SHACORE.lib(sha_core.o)
    0x0000e82e   0x00000006   Code   RO         1820    i.rol8              SHACORE.lib(sha_core.o)
    0x0000e834   0x0000003a   Code   RO         1822    i.sechsharm_sha1_init  SHACORE.lib(sha_core.o)
    0x0000e86e   0x000013ea   Code   RO         1823    i.sechsharm_sha1_transform  SHACORE.lib(sha_core.o)
    0x0000fc58   0x00000088   Code   RO         1824    i.sechsharm_sha1_update  SHACORE.lib(sha_core.o)
    0x0000fce0   0x00000056   Code   RO         1825    i.sechsharm_sha256_final  SHACORE.lib(sha_core.o)
    0x0000fd36   0x00000046   Code   RO         1826    i.sechsharm_sha256_init  SHACORE.lib(sha_core.o)
    0x0000fd7c   0x000000b8   Code   RO         1827    i.sechsharm_sha256_pad  SHACORE.lib(sha_core.o)
    0x0000fe34   0x00000ba0   Code   RO         1828    i.sechsharm_sha256_transform  SHACORE.lib(sha_core.o)
    0x000109d4   0x000000c6   Code   RO         1829    i.sechsharm_sha256_update  SHACORE.lib(sha_core.o)
    0x00010a9a   0x0000000a   Code   RO         1907    i.uc_free           SAMPLEAPPENV.lib(uc_env.o)
    0x00010aa4   0x00000018   Code   RO         1908    i.uc_malloc         SAMPLEAPPENV.lib(uc_env.o)
    0x00010abc   0x00000010   Code   RO         1909    i.uc_memcmp         SAMPLEAPPENV.lib(uc_env.o)
    0x00010acc   0x0000000a   Code   RO         1910    i.uc_memcpy         SAMPLEAPPENV.lib(uc_env.o)
    0x00010ad6   0x00000010   Code   RO         1911    i.uc_memset         SAMPLEAPPENV.lib(uc_env.o)
    0x00010ae6   0x0000001e   Code   RO         1912    i.uc_rand           SAMPLEAPPENV.lib(uc_env.o)
    0x00010b04   0x0000001e   Code   RO         1953    .text               libstd.lib(memscpy.o)
    0x00010b22   0x000001a6   Code   RO         1965    .text               secmath.lib(secmath_montmul_ref.o)
    0x00010cc8   0x0000032e   Code   RO         1977    .text               secmath.lib(secmath_montmul_utils.o)
    0x00010ff6   0x000003e4   Code   RO         1991    .text               secmath.lib(secmath_barrett_reduce.o)
    0x000113da   0x00000240   Code   RO         2004    .text               secmath.lib(secmath_is_prime_div_chk.o)
    0x0001161a   0x00000470   Code   RO         2020    .text               secrsa.lib(secrsa_math2.o)
    0x00011a8a   0x00000012   Code   RO         2062    i.copy_block_aligned  AESCORE.lib(gf128mul.o)
    0x00011a9c   0x000000de   Code   RO         2063    i.gf_mul            AESCORE.lib(gf128mul.o)
    0x00011b7a   0x00000056   Code   RO         2064    i.gf_mul_256        AESCORE.lib(gf128mul.o)
    0x00011bd0   0x00000072   Code   RO         2065    i.gf_mulx1_lb       AESCORE.lib(gf128mul.o)
    0x00011c42   0x0000006c   Code   RO         2066    i.gf_mulx4_lb       AESCORE.lib(gf128mul.o)
    0x00011cae   0x00000038   Code   RO         2067    i.gf_mulx8_lb       AESCORE.lib(gf128mul.o)
    0x00011ce6   0x0000005e   Code   RO         2068    i.init_256_table    AESCORE.lib(gf128mul.o)
    0x00011d44   0x0000002e   Code   RO         2069    i.xor_block_aligned  AESCORE.lib(gf128mul.o)
    0x00011d72   0x0000003e   Code   RO         2121    i.halve             ECCGENCORE.lib(qrlbn_inverse.o)
    0x00011db0   0x00000026   Code   RO         2122    i.is_one            ECCGENCORE.lib(qrlbn_inverse.o)
    0x00011dd6   0x0000022e   Code   RO         2123    i.qrlbn_modular_divide  ECCGENCORE.lib(qrlbn_inverse.o)
    0x00012004   0x0000003a   Code   RO         2143    i.qrlbn_random_bit_vec  ECCGENCORE.lib(qrlbn_random.o)
    0x0001203e   0x000000be   Code   RO         2144    i.qrlbn_random_element  ECCGENCORE.lib(qrlbn_random.o)
    0x000120fc   0x00000062   Code   RO         2145    i.qrlbn_random_range  ECCGENCORE.lib(qrlbn_random.o)
    0x0001215e   0x0000001e   Code   RO         2167    i.ffs               ECCGENCORE.lib(qrlbn_utils.o)
    0x0001217c   0x0000003a   Code   RO         2168    i.find_MSB          ECCGENCORE.lib(qrlbn_utils.o)
    0x000121b6   0x00000034   Code   RO         2169    i.find_MSB32        ECCGENCORE.lib(qrlbn_utils.o)
    0x000121ea   0x0000000e   Code   RO         2170    i.microfree         ECCGENCORE.lib(qrlbn_utils.o)
    0x000121f8   0x0000001c   Code   RO         2171    i.micromalloc       ECCGENCORE.lib(qrlbn_utils.o)
    0x00012214   0x0000005a   Code   RO         2172    i.qrlbn_count_trailing_zeros  ECCGENCORE.lib(qrlbn_utils.o)
    0x0001226e   0x00000098   Code   RO         2173    i.qrlbn_multiplexed_copy_arrays  ECCGENCORE.lib(qrlbn_utils.o)
    0x00012306   0x00000032   Code   RO         2174    i.qrlbn_zeroize     ECCGENCORE.lib(qrlbn_utils.o)
    0x00012338   0x00000012   Code   RO         2175    i.qrlbn_zeroize_words  ECCGENCORE.lib(qrlbn_utils.o)
    0x0001234a   0x00000026   Code   RO         2230    .text               c_2e.l(llshl.o)
    0x00012370   0x00000026   Code   RO         2232    .text               c_2e.l(llushr.o)
    0x00012396   0x00000026   Code   RO         2234    .text               c_2e.l(llsshr.o)
    0x000123bc   0x00000020   Code   RO         2236    .text               c_2e.l(isblank.o)
    0x000123dc   0x00000052   Code   RO         2246    .text               c_2e.l(_printf_str.o)
    0x0001242e   0x0000000e   Code   RO         2260    i._is_digit         c_2e.l(__printf_wp.o)
    0x0001243c   0x00000000   Code   RO         2272    .ARM.Collect$$_printf_percent$$00000000  c_2e.l(_printf_percent.o)
    0x0001243c   0x00000006   Code   RO         2374    .ARM.Collect$$_printf_percent$$00000001  c_2e.l(_printf_n.o)
    0x00012442   0x00000006   Code   RO         2376    .ARM.Collect$$_printf_percent$$00000002  c_2e.l(_printf_p.o)
    0x00012448   0x00000006   Code   RO         2380    .ARM.Collect$$_printf_percent$$00000003  c_2e.l(_printf_f.o)
    0x0001244e   0x00000006   Code   RO         2381    .ARM.Collect$$_printf_percent$$00000004  c_2e.l(_printf_e.o)
    0x00012454   0x00000006   Code   RO         2382    .ARM.Collect$$_printf_percent$$00000005  c_2e.l(_printf_g.o)
    0x0001245a   0x00000006   Code   RO         2383    .ARM.Collect$$_printf_percent$$00000006  c_2e.l(_printf_a.o)
    0x00012460   0x0000000a   Code   RO         2388    .ARM.Collect$$_printf_percent$$00000007  c_2e.l(_printf_ll.o)
    0x0001246a   0x00000006   Code   RO         2378    .ARM.Collect$$_printf_percent$$00000008  c_2e.l(_printf_i.o)
    0x00012470   0x00000006   Code   RO         2271    .ARM.Collect$$_printf_percent$$00000009  c_2e.l(_printf_d.o)
    0x00012476   0x00000006   Code   RO         2379    .ARM.Collect$$_printf_percent$$0000000A  c_2e.l(_printf_u.o)
    0x0001247c   0x00000006   Code   RO         2377    .ARM.Collect$$_printf_percent$$0000000B  c_2e.l(_printf_o.o)
    0x00012482   0x00000006   Code   RO         2375    .ARM.Collect$$_printf_percent$$0000000C  c_2e.l(_printf_x.o)
    0x00012488   0x00000006   Code   RO         2385    .ARM.Collect$$_printf_percent$$0000000D  c_2e.l(_printf_lli.o)
    0x0001248e   0x00000006   Code   RO         2386    .ARM.Collect$$_printf_percent$$0000000E  c_2e.l(_printf_lld.o)
    0x00012494   0x00000006   Code   RO         2387    .ARM.Collect$$_printf_percent$$0000000F  c_2e.l(_printf_llu.o)
    0x0001249a   0x00000006   Code   RO         2392    .ARM.Collect$$_printf_percent$$00000010  c_2e.l(_printf_llo.o)
    0x000124a0   0x00000006   Code   RO         2393    .ARM.Collect$$_printf_percent$$00000011  c_2e.l(_printf_llx.o)
    0x000124a6   0x0000000a   Code   RO         2389    .ARM.Collect$$_printf_percent$$00000012  c_2e.l(_printf_l.o)
    0x000124b0   0x00000006   Code   RO         2373    .ARM.Collect$$_printf_percent$$00000013  c_2e.l(_printf_c.o)
    0x000124b6   0x00000006   Code   RO         2270    .ARM.Collect$$_printf_percent$$00000014  c_2e.l(_printf_s.o)
    0x000124bc   0x00000006   Code   RO         2390    .ARM.Collect$$_printf_percent$$00000015  c_2e.l(_printf_lc.o)
    0x000124c2   0x00000006   Code   RO         2391    .ARM.Collect$$_printf_percent$$00000016  c_2e.l(_printf_ls.o)
    0x000124c8   0x00000004   Code   RO         2384    .ARM.Collect$$_printf_percent$$00000017  c_2e.l(_printf_percent_end.o)
    0x000124cc   0x00000058   Code   RO         2273    .text               c_2e.l(memcmp.o)
    0x00012524   0x0000003a   Code   RO         2275    .text               c_2e.l(strlen.o)
    0x0001255e   0x00000016   Code   RO         2281    .text               c_2e.l(memset.o)
    0x00012574   0x00000010   Code   RO         2283    .text               c_2e.l(aeabi_memset.o)
    0x00012584   0x00000044   Code   RO         2285    .text               c_2e.l(rt_memclr.o)
    0x000125c8   0x0000004e   Code   RO         2287    .text               c_2e.l(rt_memclr_w.o)
    0x00012616   0x00000016   Code   RO         2293    .text               c_2e.l(uread4.o)
    0x0001262c   0x00000016   Code   RO         2295    .text               c_2e.l(uwrite4.o)
    0x00012642   0x0000002e   Code   RO         2297    .text               c_2e.l(uread8.o)
    0x00012670   0x00000052   Code   RO         2325    .text               c_2e.l(_printf_pad.o)
    0x000126c2   0x00000024   Code   RO         2327    .text               c_2e.l(_printf_truncate.o)
    0x000126e6   0x000000b8   Code   RO         2329    .text               c_2e.l(_printf_intcommon.o)
    0x0001279e   0x0000002a   Code   RO         2331    .text               c_2e.l(_printf_charcount.o)
    0x000127c8   0x0000000a   Code   RO         2335    .text               c_2e.l(_sputc.o)
    0x000127d2   0x00000010   Code   RO         2337    .text               c_2e.l(_snputc.o)
    0x000127e2   0x0000002c   Code   RO         2339    .text               c_2e.l(_printf_char.o)
    0x0001280e   0x00000004   Code   RO         2398    x$fpl$printf1       fz_2s.l(printf1.o)
    0x00012812   0x00000418   Code   RO         2409    .text               c_2e.l(_printf_fp_dec.o)
    0x00012c2a   0x0000002c   Code   RO         2413    .text               c_2e.l(_printf_wchar.o)
    0x00012c56   0x00000040   Code   RO         2415    .text               c_2e.l(_wcrtomb.o)
    0x00012c96   0x0000003e   Code   RO         2428    CL$$btod_d2e        c_2e.l(btod.o)
    0x00012cd4   0x00000060   Code   RO         2429    CL$$btod_d2e_norm_op1  c_2e.l(btod.o)
    0x00012d34   0x00000046   Code   RO         2430    CL$$btod_d2e_denorm_low  c_2e.l(btod.o)
    0x00012d7a   0x00000028   Code   RO         2431    CL$$btod_emul       c_2e.l(btod.o)
    0x00012da2   0x00000028   Code   RO         2432    CL$$btod_ediv       c_2e.l(btod.o)
    0x00012dca   0x000000c6   Code   RO         2435    CL$$btod_e2e        c_2e.l(btod.o)
    0x00012e90   0x00000244   Code   RO         2437    CL$$btod_mult_common  c_2e.l(btod.o)
    0x000130d4   0x00000338   Code   RO         2438    CL$$btod_div_common  c_2e.l(btod.o)
    0x0001340c   0x00000000   Code   RO         2470    .ARM.Collect$$libinit$$00000011  c_2e.l(libinit2.o)
    0x0001340c   0x00000000   Code   RO         2474    .ARM.Collect$$libinit$$00000015  c_2e.l(libinit2.o)
    0x0001340c   0x00000000   Code   RO         2502    x$fpl$usenofp       fz_2s.l(usenofp.o)
    0x0001340c   0x00000028   Code   RO         2503    i.__ARM_fpclassify  m_2s.l(fpclassify.o)
    0x00013434   0x000008a2   Code   RO           33    .text               cmnlib_main.o
    0x00013cd6   0x00000002   PAD
    0x00013cd8   0x00000740   Code   RO          332    .text               cmnlib_services_wrapper.o
    0x00014418   0x0000069c   Code   RO          574    .text               secrsa.lib(secrsa_keygen.o)
    0x00014ab4   0x00000060   Code   RO          590    .text               qsee_services.lib(qsee_log.o)
    0x00014b14   0x00001848   Code   RO          609    .text               qsee_services.lib(fs.o)
    0x0001635c   0x0000002c   Code   RO          641    i.__ARM_common_memclr1_12  qsee_services.lib(fs.o)
    0x00016388   0x00000024   Code   RO          643    i.__ARM_common_memclr1_8  qsee_services.lib(fs.o)
    0x000163ac   0x000003d0   Code   RO          667    .text               qsee_services.lib(sfs_api.o)
    0x0001677c   0x00001e5c   Code   RO         1172    .text               qsee_services.lib(sfs.o)
    0x000185d8   0x000000c0   Code   RO         1821    i.sechsharm_sha1_final  SHACORE.lib(sha_core.o)
    0x00018698   0x00001348   Code   RO         2033    .text               qsee_services.lib(sfs_idx.o)
    0x000199e0   0x0000078c   Code   RO         2046    .text               qsee_services.lib(sfs_sec.o)
    0x0001a16c   0x00000330   Code   RO         2228    .text               c_2e.l(lludiv5.o)
    0x0001a49c   0x00000034   Code   RO         2238    .text               c_2e.l(c89vsnprintf.o)
    0x0001a4d0   0x00000038   Code   RO         2240    .text               c_2e.l(__2snprintf.o)
    0x0001a508   0x00000074   Code   RO         2248    .text               c_2e.l(_printf_dec.o)
    0x0001a57c   0x00000188   Code   RO         2267    .text               c_2e.l(__printf_flags_ss_wp.o)
    0x0001a704   0x000000d4   Code   RO         2277    .text               c_2e.l(rt_memcpy.o)
    0x0001a7d8   0x000000d4   Code   RO         2279    .text               c_2e.l(rt_memmove.o)
    0x0001a8ac   0x0000007c   Code   RO         2289    .text               c_2e.l(rt_memcpy_w_qsp.o)
    0x0001a928   0x000000a0   Code   RO         2291    .text               c_2e.l(strcmp.o)
    0x0001a9c8   0x0000022c   Code   RO         2299    .text               c_2e.l(aeabi_sdivfast_rs.o)
    0x0001abf4   0x00000030   Code   RO         2300    .text_udiv          c_2e.l(aeabi_sdivfast_rs.o)
    0x0001ac24   0x00000010   Code   RO         2315    .text               c_2e.l(rt_ctype_table.o)
    0x0001ac34   0x00000030   Code   RO         2333    .text               c_2e.l(_printf_char_common.o)
    0x0001ac64   0x000000b8   Code   RO         2341    .text               c_2e.l(_printf_wctomb.o)
    0x0001ad1c   0x00000078   Code   RO         2344    .text               c_2e.l(_printf_longlong_dec.o)
    0x0001ad94   0x00000078   Code   RO         2350    .text               c_2e.l(_printf_oct_int_ll.o)
    0x0001ae0c   0x0000009c   Code   RO         2370    .text               c_2e.l(_printf_hex_int_ll_ptr.o)
    0x0001aea8   0x00000080   Code   RO         2394    .text               c_2e.l(rt_memmove_w.o)
    0x0001af28   0x0000002c   Code   RO         2396    .text               c_2e.l(rtudiv10.o)
    0x0001af54   0x0000000c   Code   RO         2402    .text               c_2e.l(rt_locale.o)
    0x0001af60   0x00000098   Code   RO         2407    .text               c_2e.l(lludiv10.o)
    0x0001aff8   0x0000002c   Code   RO         2418    locale$$code        c_2e.l(lc_ctype_c.o)
    0x0001b024   0x00000080   Code   RO         2423    .text               c_2e.l(_printf_fp_infnan.o)
    0x0001b0a4   0x000000d8   Code   RO         2425    .text               c_2e.l(bigflt0.o)
    0x0001b17c   0x0000002c   Code   RO         2451    locale$$code        c_2e.l(lc_numeric_c.o)
    0x0001b1a8   0x00000058   PAD
    0x0001b200   0x0000005c   Code   RO            1    tzapp_syscall_asm   cmnlib_syscall.o
    0x0001b25c   0x00000008   Ven    RO         2558    Veneer$$Code        anon$$obj.o
    0x0001b264   0x00000009   Data   RO          560    .constdata          secrsa.lib(secpkcs8.o)
    0x0001b26d   0x0000000f   Data   RO         1158    .constdata          qsee_custom.lib(qsee_oem_utils.o)
    0x0001b27c   0x00000100   Data   RO         1213    .constdata          AESCORE.lib(aes_core.o)
    0x0001b37c   0x00000100   Data   RO         1214    .constdata          AESCORE.lib(aes_core.o)
    0x0001b47c   0x00000011   Data   RO         2268    .constdata          c_2e.l(__printf_flags_ss_wp.o)
    0x0001b48d   0x00000028   Data   RO         2371    .constdata          c_2e.l(_printf_hex_int_ll_ptr.o)
    0x0001b4b5   0x00000001   PAD
    0x0001b4b6   0x00001000   Data   RO         2005    .constdata          secmath.lib(secmath_is_prime_div_chk.o)
    0x0001c4b6   0x00000200   Data   RO         2070    .constdata          AESCORE.lib(gf128mul.o)
    0x0001c6b6   0x00000002   PAD
    0x0001c6b8   0x0000012f   Data   RO          610    .constdata          qsee_services.lib(fs.o)
    0x0001c7e7   0x00000001   PAD
    0x0001c7e8   0x00000310   Data   RO         1128    .constdata          secrsa.lib(secrsa_padding.o)
    0x0001caf8   0x000000dd   Data   RO         1173    .constdata          qsee_services.lib(sfs.o)
    0x0001cbd5   0x00000003   PAD
    0x0001cbd8   0x00005074   Data   RO         1215    .constdata          AESCORE.lib(aes_core.o)
    0x00021c4c   0x00000120   Data   RO         1830    .constdata          SHACORE.lib(sha_core.o)
    0x00021d6c   0x000001b7   Data   RO         2047    .constdata          qsee_services.lib(sfs_sec.o)
    0x00021f23   0x00000001   PAD
    0x00021f24   0x00000008   Data   RO         2342    .constdata          c_2e.l(_printf_wctomb.o)
    0x00021f2c   0x00000110   Data   RO         2417    locale$$data        c_2e.l(lc_ctype_c.o)
    0x0002203c   0x00000094   Data   RO         2426    .constdata          c_2e.l(bigflt0.o)
    0x000220d0   0x0000001c   Data   RO         2450    locale$$data        c_2e.l(lc_numeric_c.o)
    0x000220ec   0x00000004   PAD
    0x000220f0   0x0000024c   Data   RO          736    .constdata          ECCCORE.lib(ecc_core.o)



  Load Region CMN_TZLIB_DATA (Base: 0x00023000, Size: 0x000011f8, Max: 0xffffffff, PI)

    Execution Region TZ_APP_RW (Base: 0x00023000, Size: 0x00003020, Max: 0xffffffff, PI)

    Base Addr    Size         Type   Attr      Idx    E Section Name        Object

    0x00023000   0x00000004   Data   RW         2556    PDT$$ptr            anon$$obj.o
    0x00023004   0x00000008   Data   RW           35    .data               cmnlib_main.o
    0x0002300c   0x00000008   Data   RW          669    .data               qsee_services.lib(sfs_api.o)
    0x00023014   0x00000034   Data   RW         1129    .data               secrsa.lib(secrsa_padding.o)
    0x00023048   0x0000000c   Data   RW         1174    .data               qsee_services.lib(sfs.o)
    0x00023054   0x00001114   Data   RW         1422    .data               DESCORE.lib(des_core.o)
    0x00024168   0x00000040   Data   RW         1478    .data               ECCGENCORE.lib(qrlbn_arith.o)
    0x000241a8   0x0000004d   Data   RW         1630    .data               ECCGENCORE.lib(qrlbn_ecc.o)
    0x000241f5   0x00000003   PAD
    0x000241f8   0x000000a0   Zero   RW           34    .bss                cmnlib_main.o
    0x00024298   0x00000100   Zero   RW          668    .bss                qsee_services.lib(sfs_api.o)
    0x00024398   0x00000810   Zero   RW         1026    .bss                secmath.lib(secmath_mod_exp.o)
    0x00024ba8   0x00000a28   Zero   RW         1068    .bss                secmath.lib(secmath_BIGINT_prime_test.o)
    0x000255d0   0x00000a3c   Zero   RW         1087    .bss                secrsa.lib(secrsa_math.o)
    0x0002600c   0x00000014   Zero   RW         2403    .bss                c_2e.l(rt_locale.o)


==============================================================================

Image component sizes


      Code (inc. data)   RO Data    RW Data    ZI Data      Debug   Object Name

       662          0          0          0          0       8251   cmnlib_comstr.o
      1312          0          0          0          0      10332   cmnlib_ecc_wrapper.o
        24          0          0          0          0        656   cmnlib_entry.o
      2210          0          0          8        160      74922   cmnlib_main.o
       136          0          0          0          0       2578   cmnlib_secmath_wrapper.o
       716          0          0          0          0       5839   cmnlib_secrsa_wrapper.o
      1856          4          0          0          0      13642   cmnlib_services_wrapper.o
        92          0          0          0          0        708   cmnlib_syscall.o
       566          0          0          0          0       5148   cmnlib_ufaes_wrapper.o
       268          0          0          0          0       3199   cmnlib_ufdes_wrapper.o
       286          0          0          0          0       3093   cmnlib_ufsha_wrapper.o
      1736          0          0          0          0      11112   memheap_lite.o
       258          0          0          0          0       5160   qsee_counter_shim.o
       934          0          0          0          0      11777   qsee_crypto_shim.o

    ----------------------------------------------------------------------
     11066          4          0         12        160     156417   Object Totals
         8          0          0          4          0          0   (incl. Generated)
         2          0          0          0          0          0   (incl. Padding)

    ----------------------------------------------------------------------

      Code (inc. data)   RO Data    RW Data    ZI Data      Debug   Library Member Name

      2372          0      21108          0          0      25500   aes_core.o
      3094          0          0          0          0      17537   ccm.o
      2062          0          0          0          0      15629   gcm.o
       744          0        512          0          0      12736   gf128mul.o
      3564          0          0          0          0      17079   aes_shared.o
      1850         16          0       4372          0       8652   des_core.o
      1872          0          0          0          0      12638   des_shared.o
      4760         10        588          0          0      41222   ecc_core.o
      3286          0          0         64          0      29061   qrlbn_arith.o
      7204         16          0         77          0      38746   qrlbn_ecc.o
      3394          0          0          0          0      18526   qrlbn_ecc_protocols.o
       658          0          0          0          0       4671   qrlbn_inverse.o
       346          0          0          0          0       4227   qrlbn_random.o
       492          0          0          0          0       8458   qrlbn_utils.o
       404          0          0          0          0       7789   ecc_generic_shared.o
       170          0          0          0          0       4004   ecc_shared.o
       106          0          0          0          0       5524   uc_env.o
      9028          4        288          0          0      24800   sha_core.o
      1208          0          0          0          0       8950   sha_shared.o
        56          6          0          0          0         88   __2snprintf.o
       392          6         17          0          0         88   __printf_flags_ss_wp.o
        14          0          0          0          0         68   __printf_wp.o
         6          0          0          0          0          0   _printf_a.o
         6          0          0          0          0          0   _printf_c.o
        44          0          0          0          0        108   _printf_char.o
        48          6          0          0          0         96   _printf_char_common.o
        42          0          0          0          0         68   _printf_charcount.o
         6          0          0          0          0          0   _printf_d.o
       116         18          0          0          0         92   _printf_dec.o
         6          0          0          0          0          0   _printf_e.o
         6          0          0          0          0          0   _printf_f.o
      1048          0          0          0          0        208   _printf_fp_dec.o
       128         16          0          0          0         84   _printf_fp_infnan.o
         6          0          0          0          0          0   _printf_g.o
       156          6         40          0          0        160   _printf_hex_int_ll_ptr.o
         6          0          0          0          0          0   _printf_i.o
       184          0          0          0          0         88   _printf_intcommon.o
        10          0          0          0          0          0   _printf_l.o
         6          0          0          0          0          0   _printf_lc.o
        10          0          0          0          0          0   _printf_ll.o
         6          0          0          0          0          0   _printf_lld.o
         6          0          0          0          0          0   _printf_lli.o
         6          0          0          0          0          0   _printf_llo.o
         6          0          0          0          0          0   _printf_llu.o
         6          0          0          0          0          0   _printf_llx.o
       120         16          0          0          0         92   _printf_longlong_dec.o
         6          0          0          0          0          0   _printf_ls.o
         6          0          0          0          0          0   _printf_n.o
         6          0          0          0          0          0   _printf_o.o
       120          8          0          0          0        124   _printf_oct_int_ll.o
         6          0          0          0          0          0   _printf_p.o
        82          0          0          0          0        108   _printf_pad.o
         0          0          0          0          0          0   _printf_percent.o
         4          0          0          0          0          0   _printf_percent_end.o
         6          0          0          0          0          0   _printf_s.o
        82          0          0          0          0         80   _printf_str.o
        36          0          0          0          0         84   _printf_truncate.o
         6          0          0          0          0          0   _printf_u.o
        44          0          0          0          0        108   _printf_wchar.o
       184          6          8          0          0         88   _printf_wctomb.o
         6          0          0          0          0          0   _printf_x.o
        16          0          0          0          0         68   _snputc.o
        10          0          0          0          0         68   _sputc.o
        64          0          0          0          0         92   _wcrtomb.o
        16          0          0          0          0         64   aeabi_memset.o
       604          0          0          0          0        136   aeabi_sdivfast_rs.o
       216          6        148          0          0         96   bigflt0.o
      1910        128          0          0          0        640   btod.o
        52          6          0          0          0         80   c89vsnprintf.o
        32          0          0          0          0         76   isblank.o
        44         10        272          0          0         72   lc_ctype_c.o
        44         10         28          0          0         72   lc_numeric_c.o
         0          0          0          0          0          0   libinit2.o
        38          0          0          0          0         64   llshl.o
        38          0          0          0          0         64   llsshr.o
       152          0          0          0          0         76   lludiv10.o
       816         64          0          0          0         80   lludiv5.o
        38          0          0          0          0         64   llushr.o
        88          0          0          0          0         76   memcmp.o
        22          0          0          0          0         72   memset.o
        16          4          0          0          0         72   rt_ctype_table.o
        12          4          0          0         20         64   rt_locale.o
        68          0          0          0          0         64   rt_memclr.o
        78          0          0          0          0         76   rt_memclr_w.o
       212          0          0          0          0         64   rt_memcpy.o
       124          0          0          0          0         92   rt_memcpy_w_qsp.o
       212          0          0          0          0         64   rt_memmove.o
       128          0          0          0          0         76   rt_memmove_w.o
        44          0          0          0          0         64   rtudiv10.o
       160          4          0          0          0         76   strcmp.o
        58          0          0          0          0         68   strlen.o
        22          0          0          0          0         64   uread4.o
        46          0          0          0          0         64   uread8.o
        22          0          0          0          0         64   uwrite4.o
         4          0          0          0          0         68   printf1.o
         0          0          0          0          0          0   usenofp.o
        30          0          0          0          0        802   memscpy.o
        62          0          0          0          0       1526   timesafe_memcmp.o
        40          0          0          0          0         68   fpclassify.o
        32          0         15          0          0       2161   qsee_oem_utils.o
      6296        692        303          0          0      30187   fs.o
        46          0          0          0          0       2179   qsee_kdf.o
        96         12          0          0          0        823   qsee_log.o
      7772       2640        221         12          0      20684   sfs.o
       976        302          0          8        256       7297   sfs_api.o
      4936       1586          0          0          0      11478   sfs_idx.o
       284          0          0          0          0       4585   sfs_ll_funcs.o
      1932        698        439          0          0       6859   sfs_sec.o
       520          0          0          0          0       5177   time.o
       990          0          0          0       2600       6503   secmath_BIGINT_prime_test.o
        82          0          0          0          0       2512   secmath_BIGINT_read_radix.o
       128          0          0          0          0       1843   secmath_BIGINT_read_unsigned_bin.o
       996          0          0          0          0       5429   secmath_barrett_reduce.o
       194          0          0          0          0       2768   secmath_hex_str_to_bin.o
       576          0       4096          0          0       3838   secmath_is_prime_div_chk.o
       674          0          0          0       2064       4653   secmath_mod_exp.o
       422          0          0          0          0       3038   secmath_montmul_ref.o
       814          0          0          0          0       6245   secmath_montmul_utils.o
       708          0          0          0          0       5454   secasn1.o
       862          0          9          0          0       4947   secpkcs8.o
       610          0          0          0          0       3945   secrsa_crt.o
       586          0          0          0          0       5820   secrsa_encryption.o
       388          0          0          0          0       3013   secrsa_exptmod.o
      1692         10          0          0          0       6389   secrsa_keygen.o
      6206          0          0          0       2620      21866   secrsa_math.o
      1136          0          0          0          0       5881   secrsa_math2.o
        20          0          0          0          0        764   secrsa_mem.o
      3716          0        784         52          0      18376   secrsa_padding.o
       608          0          0          0          0       5119   secrsa_signature.o
       560          0          0          0          0       5109   secrsa_utils.o

    ----------------------------------------------------------------------
    100138       6398      28888       4588       7560     527919   Library Totals
        88         88         12          3          0          0   (incl. Padding)

    ----------------------------------------------------------------------

      Code (inc. data)   RO Data    RW Data    ZI Data      Debug   Library Name

      8272          0      21620          0          0      71402   AESCORE.lib
      3564          0          0          0          0      17079   AESSHARED.lib
      1850         16          0       4372          0       8652   DESCORE.lib
      1872          0          0          0          0      12638   DESSHARED.lib
      4760         10        588          0          0      41222   ECCCORE.lib
     15380         16          0        141          0     103689   ECCGENCORE.lib
       404          0          0          0          0       7789   ECCGENSHARED.lib
       170          0          0          0          0       4004   ECCSHARED.lib
       106          0          0          0          0       5524   SAMPLEAPPENV.lib
      9028          4        288          0          0      24800   SHACORE.lib
      1208          0          0          0          0       8950   SHASHARED.lib
      8442        324        513          0         20       4764   c_2e.l
         4          0          0          0          0         68   fz_2s.l
        92          0          0          0          0       2328   libstd.lib
        40          0          0          0          0         68   m_2s.l
        32          0         15          0          0       2161   qsee_custom.lib
     22858       5930        963         20        256      89269   qsee_services.lib
      4876          0       4096          0       4664      36829   secmath.lib
     17092         10        793         52       2620      86683   secrsa.lib

    ----------------------------------------------------------------------
    100138       6398      28888       4588       7560     527919   Library Totals

    ----------------------------------------------------------------------

==============================================================================


      Code (inc. data)   RO Data    RW Data    ZI Data      Debug   

    111204       6402      28888       4600       7720     671376   Grand Totals
    111204       6402      28888       4600       7720     671376   ELF Image Totals
    111204       6402      28888       4600          0          0   ROM Totals

==============================================================================

    Total RO  Size (Code + RO Data)               140092 ( 136.81kB)
    Total RW  Size (RW Data + ZI Data)             12320 (  12.03kB)
    Total ROM Size (Code + RO Data + RW Data)     144692 ( 141.30kB)

==============================================================================

